ARM GAS  /var/folders/n1/76bg37b13ls08p1dhb9rhvd40000gn/T//cc6VEgqh.s 			page 1


   1              		.cpu cortex-m4
   2              		.eabi_attribute 27, 1
   3              		.eabi_attribute 28, 1
   4              		.eabi_attribute 20, 1
   5              		.eabi_attribute 21, 1
   6              		.eabi_attribute 23, 3
   7              		.eabi_attribute 24, 1
   8              		.eabi_attribute 25, 1
   9              		.eabi_attribute 26, 1
  10              		.eabi_attribute 30, 1
  11              		.eabi_attribute 34, 1
  12              		.eabi_attribute 18, 4
  13              		.file	"cmsis_os.c"
  14              		.text
  15              	.Ltext0:
  16              		.cfi_sections	.debug_frame
  17              		.section	.text.makeFreeRtosPriority,"ax",%progbits
  18              		.align	1
  19              		.arch armv7e-m
  20              		.syntax unified
  21              		.thumb
  22              		.thumb_func
  23              		.fpu fpv4-sp-d16
  25              	makeFreeRtosPriority:
  26              	.LVL0:
  27              	.LFB30:
  28              		.file 1 "Middlewares/Third_Party/FreeRTOS/Source/CMSIS_RTOS/cmsis_os.c"
   1:Middlewares/Third_Party/FreeRTOS/Source/CMSIS_RTOS/cmsis_os.c **** /* ----------------------------------------------------------------------
   2:Middlewares/Third_Party/FreeRTOS/Source/CMSIS_RTOS/cmsis_os.c ****  * $Date:        5. February 2013
   3:Middlewares/Third_Party/FreeRTOS/Source/CMSIS_RTOS/cmsis_os.c ****  * $Revision:    V1.02
   4:Middlewares/Third_Party/FreeRTOS/Source/CMSIS_RTOS/cmsis_os.c ****  *
   5:Middlewares/Third_Party/FreeRTOS/Source/CMSIS_RTOS/cmsis_os.c ****  * Project:      CMSIS-RTOS API
   6:Middlewares/Third_Party/FreeRTOS/Source/CMSIS_RTOS/cmsis_os.c ****  * Title:        cmsis_os.c
   7:Middlewares/Third_Party/FreeRTOS/Source/CMSIS_RTOS/cmsis_os.c ****  *
   8:Middlewares/Third_Party/FreeRTOS/Source/CMSIS_RTOS/cmsis_os.c ****  * Version 0.02
   9:Middlewares/Third_Party/FreeRTOS/Source/CMSIS_RTOS/cmsis_os.c ****  *    Initial Proposal Phase
  10:Middlewares/Third_Party/FreeRTOS/Source/CMSIS_RTOS/cmsis_os.c ****  * Version 0.03
  11:Middlewares/Third_Party/FreeRTOS/Source/CMSIS_RTOS/cmsis_os.c ****  *    osKernelStart added, optional feature: main started as thread
  12:Middlewares/Third_Party/FreeRTOS/Source/CMSIS_RTOS/cmsis_os.c ****  *    osSemaphores have standard behavior
  13:Middlewares/Third_Party/FreeRTOS/Source/CMSIS_RTOS/cmsis_os.c ****  *    osTimerCreate does not start the timer, added osTimerStart
  14:Middlewares/Third_Party/FreeRTOS/Source/CMSIS_RTOS/cmsis_os.c ****  *    osThreadPass is renamed to osThreadYield
  15:Middlewares/Third_Party/FreeRTOS/Source/CMSIS_RTOS/cmsis_os.c ****  * Version 1.01
  16:Middlewares/Third_Party/FreeRTOS/Source/CMSIS_RTOS/cmsis_os.c ****  *    Support for C++ interface
  17:Middlewares/Third_Party/FreeRTOS/Source/CMSIS_RTOS/cmsis_os.c ****  *     - const attribute removed from the osXxxxDef_t typedef's
  18:Middlewares/Third_Party/FreeRTOS/Source/CMSIS_RTOS/cmsis_os.c ****  *     - const attribute added to the osXxxxDef macros
  19:Middlewares/Third_Party/FreeRTOS/Source/CMSIS_RTOS/cmsis_os.c ****  *    Added: osTimerDelete, osMutexDelete, osSemaphoreDelete
  20:Middlewares/Third_Party/FreeRTOS/Source/CMSIS_RTOS/cmsis_os.c ****  *    Added: osKernelInitialize
  21:Middlewares/Third_Party/FreeRTOS/Source/CMSIS_RTOS/cmsis_os.c ****  * Version 1.02
  22:Middlewares/Third_Party/FreeRTOS/Source/CMSIS_RTOS/cmsis_os.c ****  *    Control functions for short timeouts in microsecond resolution:
  23:Middlewares/Third_Party/FreeRTOS/Source/CMSIS_RTOS/cmsis_os.c ****  *    Added: osKernelSysTick, osKernelSysTickFrequency, osKernelSysTickMicroSec
  24:Middlewares/Third_Party/FreeRTOS/Source/CMSIS_RTOS/cmsis_os.c ****  *    Removed: osSignalGet 
  25:Middlewares/Third_Party/FreeRTOS/Source/CMSIS_RTOS/cmsis_os.c ****  *    
  26:Middlewares/Third_Party/FreeRTOS/Source/CMSIS_RTOS/cmsis_os.c ****  *  
  27:Middlewares/Third_Party/FreeRTOS/Source/CMSIS_RTOS/cmsis_os.c ****  *----------------------------------------------------------------------------
  28:Middlewares/Third_Party/FreeRTOS/Source/CMSIS_RTOS/cmsis_os.c ****  *
  29:Middlewares/Third_Party/FreeRTOS/Source/CMSIS_RTOS/cmsis_os.c ****  * Portions Copyright © 2016 STMicroelectronics International N.V. All rights reserved.
  30:Middlewares/Third_Party/FreeRTOS/Source/CMSIS_RTOS/cmsis_os.c ****  * Portions Copyright (c) 2013 ARM LIMITED
ARM GAS  /var/folders/n1/76bg37b13ls08p1dhb9rhvd40000gn/T//cc6VEgqh.s 			page 2


  31:Middlewares/Third_Party/FreeRTOS/Source/CMSIS_RTOS/cmsis_os.c ****  * All rights reserved.
  32:Middlewares/Third_Party/FreeRTOS/Source/CMSIS_RTOS/cmsis_os.c ****  * Redistribution and use in source and binary forms, with or without
  33:Middlewares/Third_Party/FreeRTOS/Source/CMSIS_RTOS/cmsis_os.c ****  * modification, are permitted provided that the following conditions are met:
  34:Middlewares/Third_Party/FreeRTOS/Source/CMSIS_RTOS/cmsis_os.c ****  *  - Redistributions of source code must retain the above copyright
  35:Middlewares/Third_Party/FreeRTOS/Source/CMSIS_RTOS/cmsis_os.c ****  *    notice, this list of conditions and the following disclaimer.
  36:Middlewares/Third_Party/FreeRTOS/Source/CMSIS_RTOS/cmsis_os.c ****  *  - Redistributions in binary form must reproduce the above copyright
  37:Middlewares/Third_Party/FreeRTOS/Source/CMSIS_RTOS/cmsis_os.c ****  *    notice, this list of conditions and the following disclaimer in the
  38:Middlewares/Third_Party/FreeRTOS/Source/CMSIS_RTOS/cmsis_os.c ****  *    documentation and/or other materials provided with the distribution.
  39:Middlewares/Third_Party/FreeRTOS/Source/CMSIS_RTOS/cmsis_os.c ****  *  - Neither the name of ARM  nor the names of its contributors may be used
  40:Middlewares/Third_Party/FreeRTOS/Source/CMSIS_RTOS/cmsis_os.c ****  *    to endorse or promote products derived from this software without
  41:Middlewares/Third_Party/FreeRTOS/Source/CMSIS_RTOS/cmsis_os.c ****  *    specific prior written permission.
  42:Middlewares/Third_Party/FreeRTOS/Source/CMSIS_RTOS/cmsis_os.c ****  *
  43:Middlewares/Third_Party/FreeRTOS/Source/CMSIS_RTOS/cmsis_os.c ****  * THIS SOFTWARE IS PROVIDED BY THE COPYRIGHT HOLDERS AND CONTRIBUTORS "AS IS"
  44:Middlewares/Third_Party/FreeRTOS/Source/CMSIS_RTOS/cmsis_os.c ****  * AND ANY EXPRESS OR IMPLIED WARRANTIES, INCLUDING, BUT NOT LIMITED TO, THE
  45:Middlewares/Third_Party/FreeRTOS/Source/CMSIS_RTOS/cmsis_os.c ****  * IMPLIED WARRANTIES OF MERCHANTABILITY AND FITNESS FOR A PARTICULAR PURPOSE
  46:Middlewares/Third_Party/FreeRTOS/Source/CMSIS_RTOS/cmsis_os.c ****  * ARE DISCLAIMED. IN NO EVENT SHALL COPYRIGHT HOLDERS AND CONTRIBUTORS BE
  47:Middlewares/Third_Party/FreeRTOS/Source/CMSIS_RTOS/cmsis_os.c ****  * LIABLE FOR ANY DIRECT, INDIRECT, INCIDENTAL, SPECIAL, EXEMPLARY, OR
  48:Middlewares/Third_Party/FreeRTOS/Source/CMSIS_RTOS/cmsis_os.c ****  * CONSEQUENTIAL DAMAGES (INCLUDING, BUT NOT LIMITED TO, PROCUREMENT OF
  49:Middlewares/Third_Party/FreeRTOS/Source/CMSIS_RTOS/cmsis_os.c ****  * SUBSTITUTE GOODS OR SERVICES; LOSS OF USE, DATA, OR PROFITS; OR BUSINESS
  50:Middlewares/Third_Party/FreeRTOS/Source/CMSIS_RTOS/cmsis_os.c ****  * INTERRUPTION) HOWEVER CAUSED AND ON ANY THEORY OF LIABILITY, WHETHER IN
  51:Middlewares/Third_Party/FreeRTOS/Source/CMSIS_RTOS/cmsis_os.c ****  * CONTRACT, STRICT LIABILITY, OR TORT (INCLUDING NEGLIGENCE OR OTHERWISE)
  52:Middlewares/Third_Party/FreeRTOS/Source/CMSIS_RTOS/cmsis_os.c ****  * ARISING IN ANY WAY OUT OF THE USE OF THIS SOFTWARE, EVEN IF ADVISED OF THE
  53:Middlewares/Third_Party/FreeRTOS/Source/CMSIS_RTOS/cmsis_os.c ****  * POSSIBILITY OF SUCH DAMAGE.
  54:Middlewares/Third_Party/FreeRTOS/Source/CMSIS_RTOS/cmsis_os.c ****  *---------------------------------------------------------------------------*/
  55:Middlewares/Third_Party/FreeRTOS/Source/CMSIS_RTOS/cmsis_os.c **** 
  56:Middlewares/Third_Party/FreeRTOS/Source/CMSIS_RTOS/cmsis_os.c ****  /**
  57:Middlewares/Third_Party/FreeRTOS/Source/CMSIS_RTOS/cmsis_os.c ****   ******************************************************************************
  58:Middlewares/Third_Party/FreeRTOS/Source/CMSIS_RTOS/cmsis_os.c ****   * @file    cmsis_os.c
  59:Middlewares/Third_Party/FreeRTOS/Source/CMSIS_RTOS/cmsis_os.c ****   * @author  MCD Application Team
  60:Middlewares/Third_Party/FreeRTOS/Source/CMSIS_RTOS/cmsis_os.c ****   * @date    13-July-2017
  61:Middlewares/Third_Party/FreeRTOS/Source/CMSIS_RTOS/cmsis_os.c ****   * @brief   CMSIS-RTOS API implementation for FreeRTOS V9.0.0
  62:Middlewares/Third_Party/FreeRTOS/Source/CMSIS_RTOS/cmsis_os.c ****   ******************************************************************************
  63:Middlewares/Third_Party/FreeRTOS/Source/CMSIS_RTOS/cmsis_os.c ****   * @attention
  64:Middlewares/Third_Party/FreeRTOS/Source/CMSIS_RTOS/cmsis_os.c ****   *
  65:Middlewares/Third_Party/FreeRTOS/Source/CMSIS_RTOS/cmsis_os.c ****   * Redistribution and use in source and binary forms, with or without 
  66:Middlewares/Third_Party/FreeRTOS/Source/CMSIS_RTOS/cmsis_os.c ****   * modification, are permitted, provided that the following conditions are met:
  67:Middlewares/Third_Party/FreeRTOS/Source/CMSIS_RTOS/cmsis_os.c ****   *
  68:Middlewares/Third_Party/FreeRTOS/Source/CMSIS_RTOS/cmsis_os.c ****   * 1. Redistribution of source code must retain the above copyright notice, 
  69:Middlewares/Third_Party/FreeRTOS/Source/CMSIS_RTOS/cmsis_os.c ****   *    this list of conditions and the following disclaimer.
  70:Middlewares/Third_Party/FreeRTOS/Source/CMSIS_RTOS/cmsis_os.c ****   * 2. Redistributions in binary form must reproduce the above copyright notice,
  71:Middlewares/Third_Party/FreeRTOS/Source/CMSIS_RTOS/cmsis_os.c ****   *    this list of conditions and the following disclaimer in the documentation
  72:Middlewares/Third_Party/FreeRTOS/Source/CMSIS_RTOS/cmsis_os.c ****   *    and/or other materials provided with the distribution.
  73:Middlewares/Third_Party/FreeRTOS/Source/CMSIS_RTOS/cmsis_os.c ****   * 3. Neither the name of STMicroelectronics nor the names of other 
  74:Middlewares/Third_Party/FreeRTOS/Source/CMSIS_RTOS/cmsis_os.c ****   *    contributors to this software may be used to endorse or promote products 
  75:Middlewares/Third_Party/FreeRTOS/Source/CMSIS_RTOS/cmsis_os.c ****   *    derived from this software without specific written permission.
  76:Middlewares/Third_Party/FreeRTOS/Source/CMSIS_RTOS/cmsis_os.c ****   * 4. This software, including modifications and/or derivative works of this 
  77:Middlewares/Third_Party/FreeRTOS/Source/CMSIS_RTOS/cmsis_os.c ****   *    software, must execute solely and exclusively on microcontroller or
  78:Middlewares/Third_Party/FreeRTOS/Source/CMSIS_RTOS/cmsis_os.c ****   *    microprocessor devices manufactured by or for STMicroelectronics.
  79:Middlewares/Third_Party/FreeRTOS/Source/CMSIS_RTOS/cmsis_os.c ****   * 5. Redistribution and use of this software other than as permitted under 
  80:Middlewares/Third_Party/FreeRTOS/Source/CMSIS_RTOS/cmsis_os.c ****   *    this license is void and will automatically terminate your rights under 
  81:Middlewares/Third_Party/FreeRTOS/Source/CMSIS_RTOS/cmsis_os.c ****   *    this license. 
  82:Middlewares/Third_Party/FreeRTOS/Source/CMSIS_RTOS/cmsis_os.c ****   *
  83:Middlewares/Third_Party/FreeRTOS/Source/CMSIS_RTOS/cmsis_os.c ****   * THIS SOFTWARE IS PROVIDED BY STMICROELECTRONICS AND CONTRIBUTORS "AS IS" 
  84:Middlewares/Third_Party/FreeRTOS/Source/CMSIS_RTOS/cmsis_os.c ****   * AND ANY EXPRESS, IMPLIED OR STATUTORY WARRANTIES, INCLUDING, BUT NOT 
  85:Middlewares/Third_Party/FreeRTOS/Source/CMSIS_RTOS/cmsis_os.c ****   * LIMITED TO, THE IMPLIED WARRANTIES OF MERCHANTABILITY, FITNESS FOR A 
  86:Middlewares/Third_Party/FreeRTOS/Source/CMSIS_RTOS/cmsis_os.c ****   * PARTICULAR PURPOSE AND NON-INFRINGEMENT OF THIRD PARTY INTELLECTUAL PROPERTY
  87:Middlewares/Third_Party/FreeRTOS/Source/CMSIS_RTOS/cmsis_os.c ****   * RIGHTS ARE DISCLAIMED TO THE FULLEST EXTENT PERMITTED BY LAW. IN NO EVENT 
ARM GAS  /var/folders/n1/76bg37b13ls08p1dhb9rhvd40000gn/T//cc6VEgqh.s 			page 3


  88:Middlewares/Third_Party/FreeRTOS/Source/CMSIS_RTOS/cmsis_os.c ****   * SHALL STMICROELECTRONICS OR CONTRIBUTORS BE LIABLE FOR ANY DIRECT, INDIRECT,
  89:Middlewares/Third_Party/FreeRTOS/Source/CMSIS_RTOS/cmsis_os.c ****   * INCIDENTAL, SPECIAL, EXEMPLARY, OR CONSEQUENTIAL DAMAGES (INCLUDING, BUT NOT
  90:Middlewares/Third_Party/FreeRTOS/Source/CMSIS_RTOS/cmsis_os.c ****   * LIMITED TO, PROCUREMENT OF SUBSTITUTE GOODS OR SERVICES; LOSS OF USE, DATA, 
  91:Middlewares/Third_Party/FreeRTOS/Source/CMSIS_RTOS/cmsis_os.c ****   * OR PROFITS; OR BUSINESS INTERRUPTION) HOWEVER CAUSED AND ON ANY THEORY OF 
  92:Middlewares/Third_Party/FreeRTOS/Source/CMSIS_RTOS/cmsis_os.c ****   * LIABILITY, WHETHER IN CONTRACT, STRICT LIABILITY, OR TORT (INCLUDING 
  93:Middlewares/Third_Party/FreeRTOS/Source/CMSIS_RTOS/cmsis_os.c ****   * NEGLIGENCE OR OTHERWISE) ARISING IN ANY WAY OUT OF THE USE OF THIS SOFTWARE,
  94:Middlewares/Third_Party/FreeRTOS/Source/CMSIS_RTOS/cmsis_os.c ****   * EVEN IF ADVISED OF THE POSSIBILITY OF SUCH DAMAGE.
  95:Middlewares/Third_Party/FreeRTOS/Source/CMSIS_RTOS/cmsis_os.c ****   *
  96:Middlewares/Third_Party/FreeRTOS/Source/CMSIS_RTOS/cmsis_os.c ****   ******************************************************************************
  97:Middlewares/Third_Party/FreeRTOS/Source/CMSIS_RTOS/cmsis_os.c ****   */ 
  98:Middlewares/Third_Party/FreeRTOS/Source/CMSIS_RTOS/cmsis_os.c **** 
  99:Middlewares/Third_Party/FreeRTOS/Source/CMSIS_RTOS/cmsis_os.c **** #include <string.h>
 100:Middlewares/Third_Party/FreeRTOS/Source/CMSIS_RTOS/cmsis_os.c **** #include "cmsis_os.h"
 101:Middlewares/Third_Party/FreeRTOS/Source/CMSIS_RTOS/cmsis_os.c **** 
 102:Middlewares/Third_Party/FreeRTOS/Source/CMSIS_RTOS/cmsis_os.c **** /*
 103:Middlewares/Third_Party/FreeRTOS/Source/CMSIS_RTOS/cmsis_os.c ****  * ARM Compiler 4/5
 104:Middlewares/Third_Party/FreeRTOS/Source/CMSIS_RTOS/cmsis_os.c ****  */
 105:Middlewares/Third_Party/FreeRTOS/Source/CMSIS_RTOS/cmsis_os.c **** #if   defined ( __CC_ARM )
 106:Middlewares/Third_Party/FreeRTOS/Source/CMSIS_RTOS/cmsis_os.c **** 
 107:Middlewares/Third_Party/FreeRTOS/Source/CMSIS_RTOS/cmsis_os.c ****   #define __ASM            __asm                                      
 108:Middlewares/Third_Party/FreeRTOS/Source/CMSIS_RTOS/cmsis_os.c ****   #define __INLINE         __inline                                     
 109:Middlewares/Third_Party/FreeRTOS/Source/CMSIS_RTOS/cmsis_os.c ****   #define __STATIC_INLINE  static __inline
 110:Middlewares/Third_Party/FreeRTOS/Source/CMSIS_RTOS/cmsis_os.c **** 
 111:Middlewares/Third_Party/FreeRTOS/Source/CMSIS_RTOS/cmsis_os.c ****   #include "cmsis_armcc.h"
 112:Middlewares/Third_Party/FreeRTOS/Source/CMSIS_RTOS/cmsis_os.c **** 
 113:Middlewares/Third_Party/FreeRTOS/Source/CMSIS_RTOS/cmsis_os.c **** /*
 114:Middlewares/Third_Party/FreeRTOS/Source/CMSIS_RTOS/cmsis_os.c ****  * GNU Compiler
 115:Middlewares/Third_Party/FreeRTOS/Source/CMSIS_RTOS/cmsis_os.c ****  */
 116:Middlewares/Third_Party/FreeRTOS/Source/CMSIS_RTOS/cmsis_os.c **** #elif defined ( __GNUC__ )
 117:Middlewares/Third_Party/FreeRTOS/Source/CMSIS_RTOS/cmsis_os.c **** 
 118:Middlewares/Third_Party/FreeRTOS/Source/CMSIS_RTOS/cmsis_os.c ****   #define __ASM            __asm                                      /*!< asm keyword for GNU Comp
 119:Middlewares/Third_Party/FreeRTOS/Source/CMSIS_RTOS/cmsis_os.c ****   #define __INLINE         inline                                     /*!< inline keyword for GNU C
 120:Middlewares/Third_Party/FreeRTOS/Source/CMSIS_RTOS/cmsis_os.c ****   #define __STATIC_INLINE  static inline
 121:Middlewares/Third_Party/FreeRTOS/Source/CMSIS_RTOS/cmsis_os.c **** 
 122:Middlewares/Third_Party/FreeRTOS/Source/CMSIS_RTOS/cmsis_os.c ****   #include "cmsis_gcc.h"
 123:Middlewares/Third_Party/FreeRTOS/Source/CMSIS_RTOS/cmsis_os.c **** 
 124:Middlewares/Third_Party/FreeRTOS/Source/CMSIS_RTOS/cmsis_os.c **** 
 125:Middlewares/Third_Party/FreeRTOS/Source/CMSIS_RTOS/cmsis_os.c **** /*
 126:Middlewares/Third_Party/FreeRTOS/Source/CMSIS_RTOS/cmsis_os.c ****  * IAR Compiler
 127:Middlewares/Third_Party/FreeRTOS/Source/CMSIS_RTOS/cmsis_os.c ****  */
 128:Middlewares/Third_Party/FreeRTOS/Source/CMSIS_RTOS/cmsis_os.c **** #elif defined ( __ICCARM__ )
 129:Middlewares/Third_Party/FreeRTOS/Source/CMSIS_RTOS/cmsis_os.c **** 
 130:Middlewares/Third_Party/FreeRTOS/Source/CMSIS_RTOS/cmsis_os.c ****   #ifndef   __ASM
 131:Middlewares/Third_Party/FreeRTOS/Source/CMSIS_RTOS/cmsis_os.c ****     #define __ASM                     __asm
 132:Middlewares/Third_Party/FreeRTOS/Source/CMSIS_RTOS/cmsis_os.c ****   #endif
 133:Middlewares/Third_Party/FreeRTOS/Source/CMSIS_RTOS/cmsis_os.c ****   #ifndef   __INLINE
 134:Middlewares/Third_Party/FreeRTOS/Source/CMSIS_RTOS/cmsis_os.c ****     #define __INLINE                  inline
 135:Middlewares/Third_Party/FreeRTOS/Source/CMSIS_RTOS/cmsis_os.c ****   #endif
 136:Middlewares/Third_Party/FreeRTOS/Source/CMSIS_RTOS/cmsis_os.c ****   #ifndef   __STATIC_INLINE
 137:Middlewares/Third_Party/FreeRTOS/Source/CMSIS_RTOS/cmsis_os.c ****     #define __STATIC_INLINE           static inline
 138:Middlewares/Third_Party/FreeRTOS/Source/CMSIS_RTOS/cmsis_os.c ****   #endif
 139:Middlewares/Third_Party/FreeRTOS/Source/CMSIS_RTOS/cmsis_os.c **** 
 140:Middlewares/Third_Party/FreeRTOS/Source/CMSIS_RTOS/cmsis_os.c ****   #include <cmsis_iar.h>
 141:Middlewares/Third_Party/FreeRTOS/Source/CMSIS_RTOS/cmsis_os.c **** #endif
 142:Middlewares/Third_Party/FreeRTOS/Source/CMSIS_RTOS/cmsis_os.c **** 
 143:Middlewares/Third_Party/FreeRTOS/Source/CMSIS_RTOS/cmsis_os.c **** extern void xPortSysTickHandler(void);
 144:Middlewares/Third_Party/FreeRTOS/Source/CMSIS_RTOS/cmsis_os.c **** 
ARM GAS  /var/folders/n1/76bg37b13ls08p1dhb9rhvd40000gn/T//cc6VEgqh.s 			page 4


 145:Middlewares/Third_Party/FreeRTOS/Source/CMSIS_RTOS/cmsis_os.c **** /* Convert from CMSIS type osPriority to FreeRTOS priority number */
 146:Middlewares/Third_Party/FreeRTOS/Source/CMSIS_RTOS/cmsis_os.c **** static unsigned portBASE_TYPE makeFreeRtosPriority (osPriority priority)
 147:Middlewares/Third_Party/FreeRTOS/Source/CMSIS_RTOS/cmsis_os.c **** {
  29              		.loc 1 147 1 view -0
  30              		.cfi_startproc
  31              		@ args = 0, pretend = 0, frame = 0
  32              		@ frame_needed = 0, uses_anonymous_args = 0
  33              		@ link register save eliminated.
 148:Middlewares/Third_Party/FreeRTOS/Source/CMSIS_RTOS/cmsis_os.c ****   unsigned portBASE_TYPE fpriority = tskIDLE_PRIORITY;
  34              		.loc 1 148 3 view .LVU1
 149:Middlewares/Third_Party/FreeRTOS/Source/CMSIS_RTOS/cmsis_os.c ****   
 150:Middlewares/Third_Party/FreeRTOS/Source/CMSIS_RTOS/cmsis_os.c ****   if (priority != osPriorityError) {
  35              		.loc 1 150 3 view .LVU2
  36              		.loc 1 150 6 is_stmt 0 view .LVU3
  37 0000 8428     		cmp	r0, #132
  38 0002 01D0     		beq	.L3
 151:Middlewares/Third_Party/FreeRTOS/Source/CMSIS_RTOS/cmsis_os.c ****     fpriority += (priority - osPriorityIdle);
  39              		.loc 1 151 5 is_stmt 1 view .LVU4
  40              		.loc 1 151 15 is_stmt 0 view .LVU5
  41 0004 0330     		adds	r0, r0, #3
  42              	.LVL1:
  43              		.loc 1 151 15 view .LVU6
  44 0006 7047     		bx	lr
  45              	.LVL2:
  46              	.L3:
 148:Middlewares/Third_Party/FreeRTOS/Source/CMSIS_RTOS/cmsis_os.c ****   unsigned portBASE_TYPE fpriority = tskIDLE_PRIORITY;
  47              		.loc 1 148 26 view .LVU7
  48 0008 0020     		movs	r0, #0
  49              	.LVL3:
 152:Middlewares/Third_Party/FreeRTOS/Source/CMSIS_RTOS/cmsis_os.c ****   }
 153:Middlewares/Third_Party/FreeRTOS/Source/CMSIS_RTOS/cmsis_os.c ****   
 154:Middlewares/Third_Party/FreeRTOS/Source/CMSIS_RTOS/cmsis_os.c ****   return fpriority;
  50              		.loc 1 154 3 is_stmt 1 view .LVU8
 155:Middlewares/Third_Party/FreeRTOS/Source/CMSIS_RTOS/cmsis_os.c **** }
  51              		.loc 1 155 1 is_stmt 0 view .LVU9
  52 000a 7047     		bx	lr
  53              		.cfi_endproc
  54              	.LFE30:
  56              		.section	.text.makeCmsisPriority,"ax",%progbits
  57              		.align	1
  58              		.syntax unified
  59              		.thumb
  60              		.thumb_func
  61              		.fpu fpv4-sp-d16
  63              	makeCmsisPriority:
  64              	.LVL4:
  65              	.LFB31:
 156:Middlewares/Third_Party/FreeRTOS/Source/CMSIS_RTOS/cmsis_os.c **** 
 157:Middlewares/Third_Party/FreeRTOS/Source/CMSIS_RTOS/cmsis_os.c **** #if (INCLUDE_uxTaskPriorityGet == 1)
 158:Middlewares/Third_Party/FreeRTOS/Source/CMSIS_RTOS/cmsis_os.c **** /* Convert from FreeRTOS priority number to CMSIS type osPriority */
 159:Middlewares/Third_Party/FreeRTOS/Source/CMSIS_RTOS/cmsis_os.c **** static osPriority makeCmsisPriority (unsigned portBASE_TYPE fpriority)
 160:Middlewares/Third_Party/FreeRTOS/Source/CMSIS_RTOS/cmsis_os.c **** {
  66              		.loc 1 160 1 is_stmt 1 view -0
  67              		.cfi_startproc
  68              		@ args = 0, pretend = 0, frame = 0
  69              		@ frame_needed = 0, uses_anonymous_args = 0
  70              		@ link register save eliminated.
ARM GAS  /var/folders/n1/76bg37b13ls08p1dhb9rhvd40000gn/T//cc6VEgqh.s 			page 5


 161:Middlewares/Third_Party/FreeRTOS/Source/CMSIS_RTOS/cmsis_os.c ****   osPriority priority = osPriorityError;
  71              		.loc 1 161 3 view .LVU11
 162:Middlewares/Third_Party/FreeRTOS/Source/CMSIS_RTOS/cmsis_os.c ****   
 163:Middlewares/Third_Party/FreeRTOS/Source/CMSIS_RTOS/cmsis_os.c ****   if ((fpriority - tskIDLE_PRIORITY) <= (osPriorityRealtime - osPriorityIdle)) {
  72              		.loc 1 163 3 view .LVU12
  73              		.loc 1 163 6 is_stmt 0 view .LVU13
  74 0000 0628     		cmp	r0, #6
  75 0002 02D8     		bhi	.L6
 164:Middlewares/Third_Party/FreeRTOS/Source/CMSIS_RTOS/cmsis_os.c ****     priority = (osPriority)((int)osPriorityIdle + (int)(fpriority - tskIDLE_PRIORITY));
  76              		.loc 1 164 5 is_stmt 1 view .LVU14
  77              		.loc 1 164 49 is_stmt 0 view .LVU15
  78 0004 0338     		subs	r0, r0, #3
  79              	.LVL5:
  80              		.loc 1 164 14 view .LVU16
  81 0006 00B2     		sxth	r0, r0
  82              	.LVL6:
  83              		.loc 1 164 14 view .LVU17
  84 0008 7047     		bx	lr
  85              	.LVL7:
  86              	.L6:
 161:Middlewares/Third_Party/FreeRTOS/Source/CMSIS_RTOS/cmsis_os.c ****   osPriority priority = osPriorityError;
  87              		.loc 1 161 14 view .LVU18
  88 000a 8420     		movs	r0, #132
  89              	.LVL8:
 165:Middlewares/Third_Party/FreeRTOS/Source/CMSIS_RTOS/cmsis_os.c ****   }
 166:Middlewares/Third_Party/FreeRTOS/Source/CMSIS_RTOS/cmsis_os.c ****   
 167:Middlewares/Third_Party/FreeRTOS/Source/CMSIS_RTOS/cmsis_os.c ****   return priority;
  90              		.loc 1 167 3 is_stmt 1 view .LVU19
 168:Middlewares/Third_Party/FreeRTOS/Source/CMSIS_RTOS/cmsis_os.c **** }
  91              		.loc 1 168 1 is_stmt 0 view .LVU20
  92 000c 7047     		bx	lr
  93              		.cfi_endproc
  94              	.LFE31:
  96              		.section	.text.inHandlerMode,"ax",%progbits
  97              		.align	1
  98              		.syntax unified
  99              		.thumb
 100              		.thumb_func
 101              		.fpu fpv4-sp-d16
 103              	inHandlerMode:
 104              	.LFB32:
 169:Middlewares/Third_Party/FreeRTOS/Source/CMSIS_RTOS/cmsis_os.c **** #endif
 170:Middlewares/Third_Party/FreeRTOS/Source/CMSIS_RTOS/cmsis_os.c **** 
 171:Middlewares/Third_Party/FreeRTOS/Source/CMSIS_RTOS/cmsis_os.c **** 
 172:Middlewares/Third_Party/FreeRTOS/Source/CMSIS_RTOS/cmsis_os.c **** /* Determine whether we are in thread mode or handler mode. */
 173:Middlewares/Third_Party/FreeRTOS/Source/CMSIS_RTOS/cmsis_os.c **** static int inHandlerMode (void)
 174:Middlewares/Third_Party/FreeRTOS/Source/CMSIS_RTOS/cmsis_os.c **** {
 105              		.loc 1 174 1 is_stmt 1 view -0
 106              		.cfi_startproc
 107              		@ args = 0, pretend = 0, frame = 0
 108              		@ frame_needed = 0, uses_anonymous_args = 0
 109              		@ link register save eliminated.
 175:Middlewares/Third_Party/FreeRTOS/Source/CMSIS_RTOS/cmsis_os.c ****   return __get_IPSR() != 0;
 110              		.loc 1 175 3 view .LVU22
 111              	.LBB8:
 112              	.LBI8:
 113              		.file 2 "Drivers/CMSIS/Include/cmsis_gcc.h"
ARM GAS  /var/folders/n1/76bg37b13ls08p1dhb9rhvd40000gn/T//cc6VEgqh.s 			page 6


   1:Drivers/CMSIS/Include/cmsis_gcc.h **** /**************************************************************************//**
   2:Drivers/CMSIS/Include/cmsis_gcc.h ****  * @file     cmsis_gcc.h
   3:Drivers/CMSIS/Include/cmsis_gcc.h ****  * @brief    CMSIS Cortex-M Core Function/Instruction Header File
   4:Drivers/CMSIS/Include/cmsis_gcc.h ****  * @version  V4.30
   5:Drivers/CMSIS/Include/cmsis_gcc.h ****  * @date     20. October 2015
   6:Drivers/CMSIS/Include/cmsis_gcc.h ****  ******************************************************************************/
   7:Drivers/CMSIS/Include/cmsis_gcc.h **** /* Copyright (c) 2009 - 2015 ARM LIMITED
   8:Drivers/CMSIS/Include/cmsis_gcc.h **** 
   9:Drivers/CMSIS/Include/cmsis_gcc.h ****    All rights reserved.
  10:Drivers/CMSIS/Include/cmsis_gcc.h ****    Redistribution and use in source and binary forms, with or without
  11:Drivers/CMSIS/Include/cmsis_gcc.h ****    modification, are permitted provided that the following conditions are met:
  12:Drivers/CMSIS/Include/cmsis_gcc.h ****    - Redistributions of source code must retain the above copyright
  13:Drivers/CMSIS/Include/cmsis_gcc.h ****      notice, this list of conditions and the following disclaimer.
  14:Drivers/CMSIS/Include/cmsis_gcc.h ****    - Redistributions in binary form must reproduce the above copyright
  15:Drivers/CMSIS/Include/cmsis_gcc.h ****      notice, this list of conditions and the following disclaimer in the
  16:Drivers/CMSIS/Include/cmsis_gcc.h ****      documentation and/or other materials provided with the distribution.
  17:Drivers/CMSIS/Include/cmsis_gcc.h ****    - Neither the name of ARM nor the names of its contributors may be used
  18:Drivers/CMSIS/Include/cmsis_gcc.h ****      to endorse or promote products derived from this software without
  19:Drivers/CMSIS/Include/cmsis_gcc.h ****      specific prior written permission.
  20:Drivers/CMSIS/Include/cmsis_gcc.h ****    *
  21:Drivers/CMSIS/Include/cmsis_gcc.h ****    THIS SOFTWARE IS PROVIDED BY THE COPYRIGHT HOLDERS AND CONTRIBUTORS "AS IS"
  22:Drivers/CMSIS/Include/cmsis_gcc.h ****    AND ANY EXPRESS OR IMPLIED WARRANTIES, INCLUDING, BUT NOT LIMITED TO, THE
  23:Drivers/CMSIS/Include/cmsis_gcc.h ****    IMPLIED WARRANTIES OF MERCHANTABILITY AND FITNESS FOR A PARTICULAR PURPOSE
  24:Drivers/CMSIS/Include/cmsis_gcc.h ****    ARE DISCLAIMED. IN NO EVENT SHALL COPYRIGHT HOLDERS AND CONTRIBUTORS BE
  25:Drivers/CMSIS/Include/cmsis_gcc.h ****    LIABLE FOR ANY DIRECT, INDIRECT, INCIDENTAL, SPECIAL, EXEMPLARY, OR
  26:Drivers/CMSIS/Include/cmsis_gcc.h ****    CONSEQUENTIAL DAMAGES (INCLUDING, BUT NOT LIMITED TO, PROCUREMENT OF
  27:Drivers/CMSIS/Include/cmsis_gcc.h ****    SUBSTITUTE GOODS OR SERVICES; LOSS OF USE, DATA, OR PROFITS; OR BUSINESS
  28:Drivers/CMSIS/Include/cmsis_gcc.h ****    INTERRUPTION) HOWEVER CAUSED AND ON ANY THEORY OF LIABILITY, WHETHER IN
  29:Drivers/CMSIS/Include/cmsis_gcc.h ****    CONTRACT, STRICT LIABILITY, OR TORT (INCLUDING NEGLIGENCE OR OTHERWISE)
  30:Drivers/CMSIS/Include/cmsis_gcc.h ****    ARISING IN ANY WAY OUT OF THE USE OF THIS SOFTWARE, EVEN IF ADVISED OF THE
  31:Drivers/CMSIS/Include/cmsis_gcc.h ****    POSSIBILITY OF SUCH DAMAGE.
  32:Drivers/CMSIS/Include/cmsis_gcc.h ****    ---------------------------------------------------------------------------*/
  33:Drivers/CMSIS/Include/cmsis_gcc.h **** 
  34:Drivers/CMSIS/Include/cmsis_gcc.h **** 
  35:Drivers/CMSIS/Include/cmsis_gcc.h **** #ifndef __CMSIS_GCC_H
  36:Drivers/CMSIS/Include/cmsis_gcc.h **** #define __CMSIS_GCC_H
  37:Drivers/CMSIS/Include/cmsis_gcc.h **** 
  38:Drivers/CMSIS/Include/cmsis_gcc.h **** /* ignore some GCC warnings */
  39:Drivers/CMSIS/Include/cmsis_gcc.h **** #if defined ( __GNUC__ )
  40:Drivers/CMSIS/Include/cmsis_gcc.h **** #pragma GCC diagnostic push
  41:Drivers/CMSIS/Include/cmsis_gcc.h **** #pragma GCC diagnostic ignored "-Wsign-conversion"
  42:Drivers/CMSIS/Include/cmsis_gcc.h **** #pragma GCC diagnostic ignored "-Wconversion"
  43:Drivers/CMSIS/Include/cmsis_gcc.h **** #pragma GCC diagnostic ignored "-Wunused-parameter"
  44:Drivers/CMSIS/Include/cmsis_gcc.h **** #endif
  45:Drivers/CMSIS/Include/cmsis_gcc.h **** 
  46:Drivers/CMSIS/Include/cmsis_gcc.h **** 
  47:Drivers/CMSIS/Include/cmsis_gcc.h **** /* ###########################  Core Function Access  ########################### */
  48:Drivers/CMSIS/Include/cmsis_gcc.h **** /** \ingroup  CMSIS_Core_FunctionInterface
  49:Drivers/CMSIS/Include/cmsis_gcc.h ****     \defgroup CMSIS_Core_RegAccFunctions CMSIS Core Register Access Functions
  50:Drivers/CMSIS/Include/cmsis_gcc.h ****   @{
  51:Drivers/CMSIS/Include/cmsis_gcc.h ****  */
  52:Drivers/CMSIS/Include/cmsis_gcc.h **** 
  53:Drivers/CMSIS/Include/cmsis_gcc.h **** /**
  54:Drivers/CMSIS/Include/cmsis_gcc.h ****   \brief   Enable IRQ Interrupts
  55:Drivers/CMSIS/Include/cmsis_gcc.h ****   \details Enables IRQ interrupts by clearing the I-bit in the CPSR.
  56:Drivers/CMSIS/Include/cmsis_gcc.h ****            Can only be executed in Privileged modes.
  57:Drivers/CMSIS/Include/cmsis_gcc.h ****  */
ARM GAS  /var/folders/n1/76bg37b13ls08p1dhb9rhvd40000gn/T//cc6VEgqh.s 			page 7


  58:Drivers/CMSIS/Include/cmsis_gcc.h **** __attribute__( ( always_inline ) ) __STATIC_INLINE void __enable_irq(void)
  59:Drivers/CMSIS/Include/cmsis_gcc.h **** {
  60:Drivers/CMSIS/Include/cmsis_gcc.h ****   __ASM volatile ("cpsie i" : : : "memory");
  61:Drivers/CMSIS/Include/cmsis_gcc.h **** }
  62:Drivers/CMSIS/Include/cmsis_gcc.h **** 
  63:Drivers/CMSIS/Include/cmsis_gcc.h **** 
  64:Drivers/CMSIS/Include/cmsis_gcc.h **** /**
  65:Drivers/CMSIS/Include/cmsis_gcc.h ****   \brief   Disable IRQ Interrupts
  66:Drivers/CMSIS/Include/cmsis_gcc.h ****   \details Disables IRQ interrupts by setting the I-bit in the CPSR.
  67:Drivers/CMSIS/Include/cmsis_gcc.h ****   Can only be executed in Privileged modes.
  68:Drivers/CMSIS/Include/cmsis_gcc.h ****  */
  69:Drivers/CMSIS/Include/cmsis_gcc.h **** __attribute__( ( always_inline ) ) __STATIC_INLINE void __disable_irq(void)
  70:Drivers/CMSIS/Include/cmsis_gcc.h **** {
  71:Drivers/CMSIS/Include/cmsis_gcc.h ****   __ASM volatile ("cpsid i" : : : "memory");
  72:Drivers/CMSIS/Include/cmsis_gcc.h **** }
  73:Drivers/CMSIS/Include/cmsis_gcc.h **** 
  74:Drivers/CMSIS/Include/cmsis_gcc.h **** 
  75:Drivers/CMSIS/Include/cmsis_gcc.h **** /**
  76:Drivers/CMSIS/Include/cmsis_gcc.h ****   \brief   Get Control Register
  77:Drivers/CMSIS/Include/cmsis_gcc.h ****   \details Returns the content of the Control Register.
  78:Drivers/CMSIS/Include/cmsis_gcc.h ****   \return               Control Register value
  79:Drivers/CMSIS/Include/cmsis_gcc.h ****  */
  80:Drivers/CMSIS/Include/cmsis_gcc.h **** __attribute__( ( always_inline ) ) __STATIC_INLINE uint32_t __get_CONTROL(void)
  81:Drivers/CMSIS/Include/cmsis_gcc.h **** {
  82:Drivers/CMSIS/Include/cmsis_gcc.h ****   uint32_t result;
  83:Drivers/CMSIS/Include/cmsis_gcc.h **** 
  84:Drivers/CMSIS/Include/cmsis_gcc.h ****   __ASM volatile ("MRS %0, control" : "=r" (result) );
  85:Drivers/CMSIS/Include/cmsis_gcc.h ****   return(result);
  86:Drivers/CMSIS/Include/cmsis_gcc.h **** }
  87:Drivers/CMSIS/Include/cmsis_gcc.h **** 
  88:Drivers/CMSIS/Include/cmsis_gcc.h **** 
  89:Drivers/CMSIS/Include/cmsis_gcc.h **** /**
  90:Drivers/CMSIS/Include/cmsis_gcc.h ****   \brief   Set Control Register
  91:Drivers/CMSIS/Include/cmsis_gcc.h ****   \details Writes the given value to the Control Register.
  92:Drivers/CMSIS/Include/cmsis_gcc.h ****   \param [in]    control  Control Register value to set
  93:Drivers/CMSIS/Include/cmsis_gcc.h ****  */
  94:Drivers/CMSIS/Include/cmsis_gcc.h **** __attribute__( ( always_inline ) ) __STATIC_INLINE void __set_CONTROL(uint32_t control)
  95:Drivers/CMSIS/Include/cmsis_gcc.h **** {
  96:Drivers/CMSIS/Include/cmsis_gcc.h ****   __ASM volatile ("MSR control, %0" : : "r" (control) : "memory");
  97:Drivers/CMSIS/Include/cmsis_gcc.h **** }
  98:Drivers/CMSIS/Include/cmsis_gcc.h **** 
  99:Drivers/CMSIS/Include/cmsis_gcc.h **** 
 100:Drivers/CMSIS/Include/cmsis_gcc.h **** /**
 101:Drivers/CMSIS/Include/cmsis_gcc.h ****   \brief   Get IPSR Register
 102:Drivers/CMSIS/Include/cmsis_gcc.h ****   \details Returns the content of the IPSR Register.
 103:Drivers/CMSIS/Include/cmsis_gcc.h ****   \return               IPSR Register value
 104:Drivers/CMSIS/Include/cmsis_gcc.h ****  */
 105:Drivers/CMSIS/Include/cmsis_gcc.h **** __attribute__( ( always_inline ) ) __STATIC_INLINE uint32_t __get_IPSR(void)
 114              		.loc 2 105 61 view .LVU23
 115              	.LBB9:
 106:Drivers/CMSIS/Include/cmsis_gcc.h **** {
 107:Drivers/CMSIS/Include/cmsis_gcc.h ****   uint32_t result;
 116              		.loc 2 107 3 view .LVU24
 108:Drivers/CMSIS/Include/cmsis_gcc.h **** 
 109:Drivers/CMSIS/Include/cmsis_gcc.h ****   __ASM volatile ("MRS %0, ipsr" : "=r" (result) );
 117              		.loc 2 109 3 view .LVU25
 118              		.syntax unified
ARM GAS  /var/folders/n1/76bg37b13ls08p1dhb9rhvd40000gn/T//cc6VEgqh.s 			page 8


 119              	@ 109 "Drivers/CMSIS/Include/cmsis_gcc.h" 1
 120 0000 EFF30580 		MRS r0, ipsr
 121              	@ 0 "" 2
 122              	.LVL9:
 110:Drivers/CMSIS/Include/cmsis_gcc.h ****   return(result);
 123              		.loc 2 110 3 view .LVU26
 124              		.loc 2 110 3 is_stmt 0 view .LVU27
 125              		.thumb
 126              		.syntax unified
 127              	.LBE9:
 128              	.LBE8:
 176:Middlewares/Third_Party/FreeRTOS/Source/CMSIS_RTOS/cmsis_os.c **** }
 129              		.loc 1 176 1 view .LVU28
 130 0004 0030     		adds	r0, r0, #0
 131 0006 18BF     		it	ne
 132 0008 0120     		movne	r0, #1
 133 000a 7047     		bx	lr
 134              		.cfi_endproc
 135              	.LFE32:
 137              		.section	.text.osKernelStart,"ax",%progbits
 138              		.align	1
 139              		.global	osKernelStart
 140              		.syntax unified
 141              		.thumb
 142              		.thumb_func
 143              		.fpu fpv4-sp-d16
 145              	osKernelStart:
 146              	.LFB33:
 177:Middlewares/Third_Party/FreeRTOS/Source/CMSIS_RTOS/cmsis_os.c **** 
 178:Middlewares/Third_Party/FreeRTOS/Source/CMSIS_RTOS/cmsis_os.c **** /*********************** Kernel Control Functions *****************************/
 179:Middlewares/Third_Party/FreeRTOS/Source/CMSIS_RTOS/cmsis_os.c **** /**
 180:Middlewares/Third_Party/FreeRTOS/Source/CMSIS_RTOS/cmsis_os.c **** * @brief  Initialize the RTOS Kernel for creating objects.
 181:Middlewares/Third_Party/FreeRTOS/Source/CMSIS_RTOS/cmsis_os.c **** * @retval status code that indicates the execution status of the function.
 182:Middlewares/Third_Party/FreeRTOS/Source/CMSIS_RTOS/cmsis_os.c **** * @note   MUST REMAIN UNCHANGED: \b osKernelInitialize shall be consistent in every CMSIS-RTOS.
 183:Middlewares/Third_Party/FreeRTOS/Source/CMSIS_RTOS/cmsis_os.c **** */
 184:Middlewares/Third_Party/FreeRTOS/Source/CMSIS_RTOS/cmsis_os.c **** osStatus osKernelInitialize (void);
 185:Middlewares/Third_Party/FreeRTOS/Source/CMSIS_RTOS/cmsis_os.c **** 
 186:Middlewares/Third_Party/FreeRTOS/Source/CMSIS_RTOS/cmsis_os.c **** /**
 187:Middlewares/Third_Party/FreeRTOS/Source/CMSIS_RTOS/cmsis_os.c **** * @brief  Start the RTOS Kernel with executing the specified thread.
 188:Middlewares/Third_Party/FreeRTOS/Source/CMSIS_RTOS/cmsis_os.c **** * @param  thread_def    thread definition referenced with \ref osThread.
 189:Middlewares/Third_Party/FreeRTOS/Source/CMSIS_RTOS/cmsis_os.c **** * @param  argument      pointer that is passed to the thread function as start argument.
 190:Middlewares/Third_Party/FreeRTOS/Source/CMSIS_RTOS/cmsis_os.c **** * @retval status code that indicates the execution status of the function
 191:Middlewares/Third_Party/FreeRTOS/Source/CMSIS_RTOS/cmsis_os.c **** * @note   MUST REMAIN UNCHANGED: \b osKernelStart shall be consistent in every CMSIS-RTOS.
 192:Middlewares/Third_Party/FreeRTOS/Source/CMSIS_RTOS/cmsis_os.c **** */
 193:Middlewares/Third_Party/FreeRTOS/Source/CMSIS_RTOS/cmsis_os.c **** osStatus osKernelStart (void)
 194:Middlewares/Third_Party/FreeRTOS/Source/CMSIS_RTOS/cmsis_os.c **** {
 147              		.loc 1 194 1 is_stmt 1 view -0
 148              		.cfi_startproc
 149              		@ args = 0, pretend = 0, frame = 0
 150              		@ frame_needed = 0, uses_anonymous_args = 0
 151 0000 08B5     		push	{r3, lr}
 152              	.LCFI0:
 153              		.cfi_def_cfa_offset 8
 154              		.cfi_offset 3, -8
 155              		.cfi_offset 14, -4
 195:Middlewares/Third_Party/FreeRTOS/Source/CMSIS_RTOS/cmsis_os.c ****   vTaskStartScheduler();
 156              		.loc 1 195 3 view .LVU30
ARM GAS  /var/folders/n1/76bg37b13ls08p1dhb9rhvd40000gn/T//cc6VEgqh.s 			page 9


 157 0002 FFF7FEFF 		bl	vTaskStartScheduler
 158              	.LVL10:
 196:Middlewares/Third_Party/FreeRTOS/Source/CMSIS_RTOS/cmsis_os.c ****   
 197:Middlewares/Third_Party/FreeRTOS/Source/CMSIS_RTOS/cmsis_os.c ****   return osOK;
 159              		.loc 1 197 3 view .LVU31
 198:Middlewares/Third_Party/FreeRTOS/Source/CMSIS_RTOS/cmsis_os.c **** }
 160              		.loc 1 198 1 is_stmt 0 view .LVU32
 161 0006 0020     		movs	r0, #0
 162 0008 08BD     		pop	{r3, pc}
 163              		.cfi_endproc
 164              	.LFE33:
 166              		.section	.text.osKernelRunning,"ax",%progbits
 167              		.align	1
 168              		.global	osKernelRunning
 169              		.syntax unified
 170              		.thumb
 171              		.thumb_func
 172              		.fpu fpv4-sp-d16
 174              	osKernelRunning:
 175              	.LFB34:
 199:Middlewares/Third_Party/FreeRTOS/Source/CMSIS_RTOS/cmsis_os.c **** 
 200:Middlewares/Third_Party/FreeRTOS/Source/CMSIS_RTOS/cmsis_os.c **** /**
 201:Middlewares/Third_Party/FreeRTOS/Source/CMSIS_RTOS/cmsis_os.c **** * @brief  Check if the RTOS kernel is already started
 202:Middlewares/Third_Party/FreeRTOS/Source/CMSIS_RTOS/cmsis_os.c **** * @param  None
 203:Middlewares/Third_Party/FreeRTOS/Source/CMSIS_RTOS/cmsis_os.c **** * @retval (0) RTOS is not started
 204:Middlewares/Third_Party/FreeRTOS/Source/CMSIS_RTOS/cmsis_os.c **** *         (1) RTOS is started
 205:Middlewares/Third_Party/FreeRTOS/Source/CMSIS_RTOS/cmsis_os.c **** *         (-1) if this feature is disabled in FreeRTOSConfig.h 
 206:Middlewares/Third_Party/FreeRTOS/Source/CMSIS_RTOS/cmsis_os.c **** * @note  MUST REMAIN UNCHANGED: \b osKernelRunning shall be consistent in every CMSIS-RTOS.
 207:Middlewares/Third_Party/FreeRTOS/Source/CMSIS_RTOS/cmsis_os.c **** */
 208:Middlewares/Third_Party/FreeRTOS/Source/CMSIS_RTOS/cmsis_os.c **** int32_t osKernelRunning(void)
 209:Middlewares/Third_Party/FreeRTOS/Source/CMSIS_RTOS/cmsis_os.c **** {
 176              		.loc 1 209 1 is_stmt 1 view -0
 177              		.cfi_startproc
 178              		@ args = 0, pretend = 0, frame = 0
 179              		@ frame_needed = 0, uses_anonymous_args = 0
 180 0000 08B5     		push	{r3, lr}
 181              	.LCFI1:
 182              		.cfi_def_cfa_offset 8
 183              		.cfi_offset 3, -8
 184              		.cfi_offset 14, -4
 210:Middlewares/Third_Party/FreeRTOS/Source/CMSIS_RTOS/cmsis_os.c **** #if ( ( INCLUDE_xTaskGetSchedulerState == 1 ) || ( configUSE_TIMERS == 1 ) )
 211:Middlewares/Third_Party/FreeRTOS/Source/CMSIS_RTOS/cmsis_os.c ****   if (xTaskGetSchedulerState() == taskSCHEDULER_NOT_STARTED)
 185              		.loc 1 211 3 view .LVU34
 186              		.loc 1 211 7 is_stmt 0 view .LVU35
 187 0002 FFF7FEFF 		bl	xTaskGetSchedulerState
 188              	.LVL11:
 189              		.loc 1 211 6 view .LVU36
 190 0006 0128     		cmp	r0, #1
 191 0008 01D0     		beq	.L14
 212:Middlewares/Third_Party/FreeRTOS/Source/CMSIS_RTOS/cmsis_os.c ****     return 0;
 213:Middlewares/Third_Party/FreeRTOS/Source/CMSIS_RTOS/cmsis_os.c ****   else
 214:Middlewares/Third_Party/FreeRTOS/Source/CMSIS_RTOS/cmsis_os.c ****     return 1;
 192              		.loc 1 214 12 view .LVU37
 193 000a 0120     		movs	r0, #1
 194              	.L10:
 215:Middlewares/Third_Party/FreeRTOS/Source/CMSIS_RTOS/cmsis_os.c **** #else
 216:Middlewares/Third_Party/FreeRTOS/Source/CMSIS_RTOS/cmsis_os.c **** 	return (-1);
ARM GAS  /var/folders/n1/76bg37b13ls08p1dhb9rhvd40000gn/T//cc6VEgqh.s 			page 10


 217:Middlewares/Third_Party/FreeRTOS/Source/CMSIS_RTOS/cmsis_os.c **** #endif	
 218:Middlewares/Third_Party/FreeRTOS/Source/CMSIS_RTOS/cmsis_os.c **** }
 195              		.loc 1 218 1 view .LVU38
 196 000c 08BD     		pop	{r3, pc}
 197              	.L14:
 212:Middlewares/Third_Party/FreeRTOS/Source/CMSIS_RTOS/cmsis_os.c ****     return 0;
 198              		.loc 1 212 12 view .LVU39
 199 000e 0020     		movs	r0, #0
 200 0010 FCE7     		b	.L10
 201              		.cfi_endproc
 202              	.LFE34:
 204              		.section	.text.osKernelSysTick,"ax",%progbits
 205              		.align	1
 206              		.global	osKernelSysTick
 207              		.syntax unified
 208              		.thumb
 209              		.thumb_func
 210              		.fpu fpv4-sp-d16
 212              	osKernelSysTick:
 213              	.LFB35:
 219:Middlewares/Third_Party/FreeRTOS/Source/CMSIS_RTOS/cmsis_os.c **** 
 220:Middlewares/Third_Party/FreeRTOS/Source/CMSIS_RTOS/cmsis_os.c **** #if (defined (osFeature_SysTick)  &&  (osFeature_SysTick != 0))     // System Timer available
 221:Middlewares/Third_Party/FreeRTOS/Source/CMSIS_RTOS/cmsis_os.c **** /**
 222:Middlewares/Third_Party/FreeRTOS/Source/CMSIS_RTOS/cmsis_os.c **** * @brief  Get the value of the Kernel SysTick timer
 223:Middlewares/Third_Party/FreeRTOS/Source/CMSIS_RTOS/cmsis_os.c **** * @param  None
 224:Middlewares/Third_Party/FreeRTOS/Source/CMSIS_RTOS/cmsis_os.c **** * @retval None
 225:Middlewares/Third_Party/FreeRTOS/Source/CMSIS_RTOS/cmsis_os.c **** * @note   MUST REMAIN UNCHANGED: \b osKernelSysTick shall be consistent in every CMSIS-RTOS.
 226:Middlewares/Third_Party/FreeRTOS/Source/CMSIS_RTOS/cmsis_os.c **** */
 227:Middlewares/Third_Party/FreeRTOS/Source/CMSIS_RTOS/cmsis_os.c **** uint32_t osKernelSysTick(void)
 228:Middlewares/Third_Party/FreeRTOS/Source/CMSIS_RTOS/cmsis_os.c **** {
 214              		.loc 1 228 1 is_stmt 1 view -0
 215              		.cfi_startproc
 216              		@ args = 0, pretend = 0, frame = 0
 217              		@ frame_needed = 0, uses_anonymous_args = 0
 218 0000 08B5     		push	{r3, lr}
 219              	.LCFI2:
 220              		.cfi_def_cfa_offset 8
 221              		.cfi_offset 3, -8
 222              		.cfi_offset 14, -4
 229:Middlewares/Third_Party/FreeRTOS/Source/CMSIS_RTOS/cmsis_os.c ****   if (inHandlerMode()) {
 223              		.loc 1 229 3 view .LVU41
 224              		.loc 1 229 7 is_stmt 0 view .LVU42
 225 0002 FFF7FEFF 		bl	inHandlerMode
 226              	.LVL12:
 227              		.loc 1 229 6 view .LVU43
 228 0006 10B1     		cbz	r0, .L16
 230:Middlewares/Third_Party/FreeRTOS/Source/CMSIS_RTOS/cmsis_os.c ****     return xTaskGetTickCountFromISR();
 229              		.loc 1 230 5 is_stmt 1 view .LVU44
 230              		.loc 1 230 12 is_stmt 0 view .LVU45
 231 0008 FFF7FEFF 		bl	xTaskGetTickCountFromISR
 232              	.LVL13:
 233              	.L15:
 231:Middlewares/Third_Party/FreeRTOS/Source/CMSIS_RTOS/cmsis_os.c ****   }
 232:Middlewares/Third_Party/FreeRTOS/Source/CMSIS_RTOS/cmsis_os.c ****   else {
 233:Middlewares/Third_Party/FreeRTOS/Source/CMSIS_RTOS/cmsis_os.c ****     return xTaskGetTickCount();
 234:Middlewares/Third_Party/FreeRTOS/Source/CMSIS_RTOS/cmsis_os.c ****   }
 235:Middlewares/Third_Party/FreeRTOS/Source/CMSIS_RTOS/cmsis_os.c **** }
ARM GAS  /var/folders/n1/76bg37b13ls08p1dhb9rhvd40000gn/T//cc6VEgqh.s 			page 11


 234              		.loc 1 235 1 view .LVU46
 235 000c 08BD     		pop	{r3, pc}
 236              	.L16:
 233:Middlewares/Third_Party/FreeRTOS/Source/CMSIS_RTOS/cmsis_os.c ****   }
 237              		.loc 1 233 5 is_stmt 1 view .LVU47
 233:Middlewares/Third_Party/FreeRTOS/Source/CMSIS_RTOS/cmsis_os.c ****   }
 238              		.loc 1 233 12 is_stmt 0 view .LVU48
 239 000e FFF7FEFF 		bl	xTaskGetTickCount
 240              	.LVL14:
 241 0012 FBE7     		b	.L15
 242              		.cfi_endproc
 243              	.LFE35:
 245              		.section	.text.osThreadCreate,"ax",%progbits
 246              		.align	1
 247              		.global	osThreadCreate
 248              		.syntax unified
 249              		.thumb
 250              		.thumb_func
 251              		.fpu fpv4-sp-d16
 253              	osThreadCreate:
 254              	.LVL15:
 255              	.LFB36:
 236:Middlewares/Third_Party/FreeRTOS/Source/CMSIS_RTOS/cmsis_os.c **** #endif    // System Timer available
 237:Middlewares/Third_Party/FreeRTOS/Source/CMSIS_RTOS/cmsis_os.c **** /*********************** Thread Management *****************************/
 238:Middlewares/Third_Party/FreeRTOS/Source/CMSIS_RTOS/cmsis_os.c **** /**
 239:Middlewares/Third_Party/FreeRTOS/Source/CMSIS_RTOS/cmsis_os.c **** * @brief  Create a thread and add it to Active Threads and set it to state READY.
 240:Middlewares/Third_Party/FreeRTOS/Source/CMSIS_RTOS/cmsis_os.c **** * @param  thread_def    thread definition referenced with \ref osThread.
 241:Middlewares/Third_Party/FreeRTOS/Source/CMSIS_RTOS/cmsis_os.c **** * @param  argument      pointer that is passed to the thread function as start argument.
 242:Middlewares/Third_Party/FreeRTOS/Source/CMSIS_RTOS/cmsis_os.c **** * @retval thread ID for reference by other functions or NULL in case of error.
 243:Middlewares/Third_Party/FreeRTOS/Source/CMSIS_RTOS/cmsis_os.c **** * @note   MUST REMAIN UNCHANGED: \b osThreadCreate shall be consistent in every CMSIS-RTOS.
 244:Middlewares/Third_Party/FreeRTOS/Source/CMSIS_RTOS/cmsis_os.c **** */
 245:Middlewares/Third_Party/FreeRTOS/Source/CMSIS_RTOS/cmsis_os.c **** osThreadId osThreadCreate (const osThreadDef_t *thread_def, void *argument)
 246:Middlewares/Third_Party/FreeRTOS/Source/CMSIS_RTOS/cmsis_os.c **** {
 256              		.loc 1 246 1 is_stmt 1 view -0
 257              		.cfi_startproc
 258              		@ args = 0, pretend = 0, frame = 8
 259              		@ frame_needed = 0, uses_anonymous_args = 0
 260              		.loc 1 246 1 is_stmt 0 view .LVU50
 261 0000 F0B5     		push	{r4, r5, r6, r7, lr}
 262              	.LCFI3:
 263              		.cfi_def_cfa_offset 20
 264              		.cfi_offset 4, -20
 265              		.cfi_offset 5, -16
 266              		.cfi_offset 6, -12
 267              		.cfi_offset 7, -8
 268              		.cfi_offset 14, -4
 269 0002 85B0     		sub	sp, sp, #20
 270              	.LCFI4:
 271              		.cfi_def_cfa_offset 40
 272 0004 0F46     		mov	r7, r1
 247:Middlewares/Third_Party/FreeRTOS/Source/CMSIS_RTOS/cmsis_os.c ****   TaskHandle_t handle;
 273              		.loc 1 247 3 is_stmt 1 view .LVU51
 248:Middlewares/Third_Party/FreeRTOS/Source/CMSIS_RTOS/cmsis_os.c ****   
 249:Middlewares/Third_Party/FreeRTOS/Source/CMSIS_RTOS/cmsis_os.c **** #if( configSUPPORT_STATIC_ALLOCATION == 1 ) &&  ( configSUPPORT_DYNAMIC_ALLOCATION == 1 )
 250:Middlewares/Third_Party/FreeRTOS/Source/CMSIS_RTOS/cmsis_os.c ****   if((thread_def->buffer != NULL) && (thread_def->controlblock != NULL)) {
 251:Middlewares/Third_Party/FreeRTOS/Source/CMSIS_RTOS/cmsis_os.c ****     handle = xTaskCreateStatic((TaskFunction_t)thread_def->pthread,(const portCHAR *)thread_def->na
 252:Middlewares/Third_Party/FreeRTOS/Source/CMSIS_RTOS/cmsis_os.c ****               thread_def->stacksize, argument, makeFreeRtosPriority(thread_def->tpriority),
ARM GAS  /var/folders/n1/76bg37b13ls08p1dhb9rhvd40000gn/T//cc6VEgqh.s 			page 12


 253:Middlewares/Third_Party/FreeRTOS/Source/CMSIS_RTOS/cmsis_os.c ****               thread_def->buffer, thread_def->controlblock);
 254:Middlewares/Third_Party/FreeRTOS/Source/CMSIS_RTOS/cmsis_os.c ****   }
 255:Middlewares/Third_Party/FreeRTOS/Source/CMSIS_RTOS/cmsis_os.c ****   else {
 256:Middlewares/Third_Party/FreeRTOS/Source/CMSIS_RTOS/cmsis_os.c ****     if (xTaskCreate((TaskFunction_t)thread_def->pthread,(const portCHAR *)thread_def->name,
 257:Middlewares/Third_Party/FreeRTOS/Source/CMSIS_RTOS/cmsis_os.c ****               thread_def->stacksize, argument, makeFreeRtosPriority(thread_def->tpriority),
 258:Middlewares/Third_Party/FreeRTOS/Source/CMSIS_RTOS/cmsis_os.c ****               &handle) != pdPASS)  {
 259:Middlewares/Third_Party/FreeRTOS/Source/CMSIS_RTOS/cmsis_os.c ****       return NULL;
 260:Middlewares/Third_Party/FreeRTOS/Source/CMSIS_RTOS/cmsis_os.c ****     } 
 261:Middlewares/Third_Party/FreeRTOS/Source/CMSIS_RTOS/cmsis_os.c ****   }
 262:Middlewares/Third_Party/FreeRTOS/Source/CMSIS_RTOS/cmsis_os.c **** #elif( configSUPPORT_STATIC_ALLOCATION == 1 )
 263:Middlewares/Third_Party/FreeRTOS/Source/CMSIS_RTOS/cmsis_os.c **** 
 264:Middlewares/Third_Party/FreeRTOS/Source/CMSIS_RTOS/cmsis_os.c ****     handle = xTaskCreateStatic((TaskFunction_t)thread_def->pthread,(const portCHAR *)thread_def->na
 265:Middlewares/Third_Party/FreeRTOS/Source/CMSIS_RTOS/cmsis_os.c ****               thread_def->stacksize, argument, makeFreeRtosPriority(thread_def->tpriority),
 266:Middlewares/Third_Party/FreeRTOS/Source/CMSIS_RTOS/cmsis_os.c ****               thread_def->buffer, thread_def->controlblock);
 267:Middlewares/Third_Party/FreeRTOS/Source/CMSIS_RTOS/cmsis_os.c **** #else
 268:Middlewares/Third_Party/FreeRTOS/Source/CMSIS_RTOS/cmsis_os.c ****   if (xTaskCreate((TaskFunction_t)thread_def->pthread,(const portCHAR *)thread_def->name,
 274              		.loc 1 268 3 view .LVU52
 275              		.loc 1 268 45 is_stmt 0 view .LVU53
 276 0006 4468     		ldr	r4, [r0, #4]
 277              		.loc 1 268 83 view .LVU54
 278 0008 0568     		ldr	r5, [r0]
 269:Middlewares/Third_Party/FreeRTOS/Source/CMSIS_RTOS/cmsis_os.c ****                    thread_def->stacksize, argument, makeFreeRtosPriority(thread_def->tpriority),
 279              		.loc 1 269 30 view .LVU55
 280 000a 0669     		ldr	r6, [r0, #16]
 268:Middlewares/Third_Party/FreeRTOS/Source/CMSIS_RTOS/cmsis_os.c ****                    thread_def->stacksize, argument, makeFreeRtosPriority(thread_def->tpriority),
 281              		.loc 1 268 7 view .LVU56
 282 000c B0F90800 		ldrsh	r0, [r0, #8]
 283              	.LVL16:
 268:Middlewares/Third_Party/FreeRTOS/Source/CMSIS_RTOS/cmsis_os.c ****                    thread_def->stacksize, argument, makeFreeRtosPriority(thread_def->tpriority),
 284              		.loc 1 268 7 view .LVU57
 285 0010 FFF7FEFF 		bl	makeFreeRtosPriority
 286              	.LVL17:
 268:Middlewares/Third_Party/FreeRTOS/Source/CMSIS_RTOS/cmsis_os.c ****                    thread_def->stacksize, argument, makeFreeRtosPriority(thread_def->tpriority),
 287              		.loc 1 268 7 view .LVU58
 288 0014 03AB     		add	r3, sp, #12
 289 0016 0193     		str	r3, [sp, #4]
 290 0018 0090     		str	r0, [sp]
 291 001a 3B46     		mov	r3, r7
 292 001c B2B2     		uxth	r2, r6
 293 001e 2946     		mov	r1, r5
 294 0020 2046     		mov	r0, r4
 295 0022 FFF7FEFF 		bl	xTaskCreate
 296              	.LVL18:
 268:Middlewares/Third_Party/FreeRTOS/Source/CMSIS_RTOS/cmsis_os.c ****                    thread_def->stacksize, argument, makeFreeRtosPriority(thread_def->tpriority),
 297              		.loc 1 268 6 view .LVU59
 298 0026 0128     		cmp	r0, #1
 299 0028 02D1     		bne	.L21
 270:Middlewares/Third_Party/FreeRTOS/Source/CMSIS_RTOS/cmsis_os.c ****                    &handle) != pdPASS)  {
 271:Middlewares/Third_Party/FreeRTOS/Source/CMSIS_RTOS/cmsis_os.c ****     return NULL;
 272:Middlewares/Third_Party/FreeRTOS/Source/CMSIS_RTOS/cmsis_os.c ****   }     
 273:Middlewares/Third_Party/FreeRTOS/Source/CMSIS_RTOS/cmsis_os.c **** #endif
 274:Middlewares/Third_Party/FreeRTOS/Source/CMSIS_RTOS/cmsis_os.c ****   
 275:Middlewares/Third_Party/FreeRTOS/Source/CMSIS_RTOS/cmsis_os.c ****   return handle;
 300              		.loc 1 275 3 is_stmt 1 view .LVU60
 301              		.loc 1 275 10 is_stmt 0 view .LVU61
 302 002a 0398     		ldr	r0, [sp, #12]
 303              	.L19:
ARM GAS  /var/folders/n1/76bg37b13ls08p1dhb9rhvd40000gn/T//cc6VEgqh.s 			page 13


 276:Middlewares/Third_Party/FreeRTOS/Source/CMSIS_RTOS/cmsis_os.c **** }
 304              		.loc 1 276 1 view .LVU62
 305 002c 05B0     		add	sp, sp, #20
 306              	.LCFI5:
 307              		.cfi_remember_state
 308              		.cfi_def_cfa_offset 20
 309              		@ sp needed
 310 002e F0BD     		pop	{r4, r5, r6, r7, pc}
 311              	.LVL19:
 312              	.L21:
 313              	.LCFI6:
 314              		.cfi_restore_state
 271:Middlewares/Third_Party/FreeRTOS/Source/CMSIS_RTOS/cmsis_os.c ****   }     
 315              		.loc 1 271 12 view .LVU63
 316 0030 0020     		movs	r0, #0
 317 0032 FBE7     		b	.L19
 318              		.cfi_endproc
 319              	.LFE36:
 321              		.section	.text.osThreadGetId,"ax",%progbits
 322              		.align	1
 323              		.global	osThreadGetId
 324              		.syntax unified
 325              		.thumb
 326              		.thumb_func
 327              		.fpu fpv4-sp-d16
 329              	osThreadGetId:
 330              	.LFB37:
 277:Middlewares/Third_Party/FreeRTOS/Source/CMSIS_RTOS/cmsis_os.c **** 
 278:Middlewares/Third_Party/FreeRTOS/Source/CMSIS_RTOS/cmsis_os.c **** /**
 279:Middlewares/Third_Party/FreeRTOS/Source/CMSIS_RTOS/cmsis_os.c **** * @brief  Return the thread ID of the current running thread.
 280:Middlewares/Third_Party/FreeRTOS/Source/CMSIS_RTOS/cmsis_os.c **** * @retval thread ID for reference by other functions or NULL in case of error.
 281:Middlewares/Third_Party/FreeRTOS/Source/CMSIS_RTOS/cmsis_os.c **** * @note   MUST REMAIN UNCHANGED: \b osThreadGetId shall be consistent in every CMSIS-RTOS.
 282:Middlewares/Third_Party/FreeRTOS/Source/CMSIS_RTOS/cmsis_os.c **** */
 283:Middlewares/Third_Party/FreeRTOS/Source/CMSIS_RTOS/cmsis_os.c **** osThreadId osThreadGetId (void)
 284:Middlewares/Third_Party/FreeRTOS/Source/CMSIS_RTOS/cmsis_os.c **** {
 331              		.loc 1 284 1 is_stmt 1 view -0
 332              		.cfi_startproc
 333              		@ args = 0, pretend = 0, frame = 0
 334              		@ frame_needed = 0, uses_anonymous_args = 0
 335 0000 08B5     		push	{r3, lr}
 336              	.LCFI7:
 337              		.cfi_def_cfa_offset 8
 338              		.cfi_offset 3, -8
 339              		.cfi_offset 14, -4
 285:Middlewares/Third_Party/FreeRTOS/Source/CMSIS_RTOS/cmsis_os.c **** #if ( ( INCLUDE_xTaskGetCurrentTaskHandle == 1 ) || ( configUSE_MUTEXES == 1 ) )
 286:Middlewares/Third_Party/FreeRTOS/Source/CMSIS_RTOS/cmsis_os.c ****   return xTaskGetCurrentTaskHandle();
 340              		.loc 1 286 3 view .LVU65
 341              		.loc 1 286 10 is_stmt 0 view .LVU66
 342 0002 FFF7FEFF 		bl	xTaskGetCurrentTaskHandle
 343              	.LVL20:
 287:Middlewares/Third_Party/FreeRTOS/Source/CMSIS_RTOS/cmsis_os.c **** #else
 288:Middlewares/Third_Party/FreeRTOS/Source/CMSIS_RTOS/cmsis_os.c **** 	return NULL;
 289:Middlewares/Third_Party/FreeRTOS/Source/CMSIS_RTOS/cmsis_os.c **** #endif
 290:Middlewares/Third_Party/FreeRTOS/Source/CMSIS_RTOS/cmsis_os.c **** }
 344              		.loc 1 290 1 view .LVU67
 345 0006 08BD     		pop	{r3, pc}
 346              		.cfi_endproc
ARM GAS  /var/folders/n1/76bg37b13ls08p1dhb9rhvd40000gn/T//cc6VEgqh.s 			page 14


 347              	.LFE37:
 349              		.section	.text.osThreadTerminate,"ax",%progbits
 350              		.align	1
 351              		.global	osThreadTerminate
 352              		.syntax unified
 353              		.thumb
 354              		.thumb_func
 355              		.fpu fpv4-sp-d16
 357              	osThreadTerminate:
 358              	.LVL21:
 359              	.LFB38:
 291:Middlewares/Third_Party/FreeRTOS/Source/CMSIS_RTOS/cmsis_os.c **** 
 292:Middlewares/Third_Party/FreeRTOS/Source/CMSIS_RTOS/cmsis_os.c **** /**
 293:Middlewares/Third_Party/FreeRTOS/Source/CMSIS_RTOS/cmsis_os.c **** * @brief  Terminate execution of a thread and remove it from Active Threads.
 294:Middlewares/Third_Party/FreeRTOS/Source/CMSIS_RTOS/cmsis_os.c **** * @param   thread_id   thread ID obtained by \ref osThreadCreate or \ref osThreadGetId.
 295:Middlewares/Third_Party/FreeRTOS/Source/CMSIS_RTOS/cmsis_os.c **** * @retval  status code that indicates the execution status of the function.
 296:Middlewares/Third_Party/FreeRTOS/Source/CMSIS_RTOS/cmsis_os.c **** * @note   MUST REMAIN UNCHANGED: \b osThreadTerminate shall be consistent in every CMSIS-RTOS.
 297:Middlewares/Third_Party/FreeRTOS/Source/CMSIS_RTOS/cmsis_os.c **** */
 298:Middlewares/Third_Party/FreeRTOS/Source/CMSIS_RTOS/cmsis_os.c **** osStatus osThreadTerminate (osThreadId thread_id)
 299:Middlewares/Third_Party/FreeRTOS/Source/CMSIS_RTOS/cmsis_os.c **** {
 360              		.loc 1 299 1 is_stmt 1 view -0
 361              		.cfi_startproc
 362              		@ args = 0, pretend = 0, frame = 0
 363              		@ frame_needed = 0, uses_anonymous_args = 0
 364              		.loc 1 299 1 is_stmt 0 view .LVU69
 365 0000 08B5     		push	{r3, lr}
 366              	.LCFI8:
 367              		.cfi_def_cfa_offset 8
 368              		.cfi_offset 3, -8
 369              		.cfi_offset 14, -4
 300:Middlewares/Third_Party/FreeRTOS/Source/CMSIS_RTOS/cmsis_os.c **** #if (INCLUDE_vTaskDelete == 1)
 301:Middlewares/Third_Party/FreeRTOS/Source/CMSIS_RTOS/cmsis_os.c ****   vTaskDelete(thread_id);
 370              		.loc 1 301 3 is_stmt 1 view .LVU70
 371 0002 FFF7FEFF 		bl	vTaskDelete
 372              	.LVL22:
 302:Middlewares/Third_Party/FreeRTOS/Source/CMSIS_RTOS/cmsis_os.c ****   return osOK;
 373              		.loc 1 302 3 view .LVU71
 303:Middlewares/Third_Party/FreeRTOS/Source/CMSIS_RTOS/cmsis_os.c **** #else
 304:Middlewares/Third_Party/FreeRTOS/Source/CMSIS_RTOS/cmsis_os.c ****   return osErrorOS;
 305:Middlewares/Third_Party/FreeRTOS/Source/CMSIS_RTOS/cmsis_os.c **** #endif
 306:Middlewares/Third_Party/FreeRTOS/Source/CMSIS_RTOS/cmsis_os.c **** }
 374              		.loc 1 306 1 is_stmt 0 view .LVU72
 375 0006 0020     		movs	r0, #0
 376 0008 08BD     		pop	{r3, pc}
 377              		.cfi_endproc
 378              	.LFE38:
 380              		.section	.text.osThreadYield,"ax",%progbits
 381              		.align	1
 382              		.global	osThreadYield
 383              		.syntax unified
 384              		.thumb
 385              		.thumb_func
 386              		.fpu fpv4-sp-d16
 388              	osThreadYield:
 389              	.LFB39:
 307:Middlewares/Third_Party/FreeRTOS/Source/CMSIS_RTOS/cmsis_os.c **** 
 308:Middlewares/Third_Party/FreeRTOS/Source/CMSIS_RTOS/cmsis_os.c **** /**
ARM GAS  /var/folders/n1/76bg37b13ls08p1dhb9rhvd40000gn/T//cc6VEgqh.s 			page 15


 309:Middlewares/Third_Party/FreeRTOS/Source/CMSIS_RTOS/cmsis_os.c **** * @brief  Pass control to next thread that is in state \b READY.
 310:Middlewares/Third_Party/FreeRTOS/Source/CMSIS_RTOS/cmsis_os.c **** * @retval status code that indicates the execution status of the function.
 311:Middlewares/Third_Party/FreeRTOS/Source/CMSIS_RTOS/cmsis_os.c **** * @note   MUST REMAIN UNCHANGED: \b osThreadYield shall be consistent in every CMSIS-RTOS.
 312:Middlewares/Third_Party/FreeRTOS/Source/CMSIS_RTOS/cmsis_os.c **** */
 313:Middlewares/Third_Party/FreeRTOS/Source/CMSIS_RTOS/cmsis_os.c **** osStatus osThreadYield (void)
 314:Middlewares/Third_Party/FreeRTOS/Source/CMSIS_RTOS/cmsis_os.c **** {
 390              		.loc 1 314 1 is_stmt 1 view -0
 391              		.cfi_startproc
 392              		@ args = 0, pretend = 0, frame = 0
 393              		@ frame_needed = 0, uses_anonymous_args = 0
 394              		@ link register save eliminated.
 315:Middlewares/Third_Party/FreeRTOS/Source/CMSIS_RTOS/cmsis_os.c ****   taskYIELD();
 395              		.loc 1 315 3 view .LVU74
 396 0000 044B     		ldr	r3, .L28
 397 0002 4FF08052 		mov	r2, #268435456
 398 0006 1A60     		str	r2, [r3]
 399              		.loc 1 315 3 view .LVU75
 400              		.syntax unified
 401              	@ 315 "Middlewares/Third_Party/FreeRTOS/Source/CMSIS_RTOS/cmsis_os.c" 1
 402 0008 BFF34F8F 		dsb
 403              	@ 0 "" 2
 404              		.loc 1 315 3 view .LVU76
 405              	@ 315 "Middlewares/Third_Party/FreeRTOS/Source/CMSIS_RTOS/cmsis_os.c" 1
 406 000c BFF36F8F 		isb
 407              	@ 0 "" 2
 408              		.loc 1 315 14 view .LVU77
 316:Middlewares/Third_Party/FreeRTOS/Source/CMSIS_RTOS/cmsis_os.c ****   
 317:Middlewares/Third_Party/FreeRTOS/Source/CMSIS_RTOS/cmsis_os.c ****   return osOK;
 409              		.loc 1 317 3 view .LVU78
 318:Middlewares/Third_Party/FreeRTOS/Source/CMSIS_RTOS/cmsis_os.c **** }
 410              		.loc 1 318 1 is_stmt 0 view .LVU79
 411              		.thumb
 412              		.syntax unified
 413 0010 0020     		movs	r0, #0
 414 0012 7047     		bx	lr
 415              	.L29:
 416              		.align	2
 417              	.L28:
 418 0014 04ED00E0 		.word	-536810236
 419              		.cfi_endproc
 420              	.LFE39:
 422              		.section	.text.osThreadSetPriority,"ax",%progbits
 423              		.align	1
 424              		.global	osThreadSetPriority
 425              		.syntax unified
 426              		.thumb
 427              		.thumb_func
 428              		.fpu fpv4-sp-d16
 430              	osThreadSetPriority:
 431              	.LVL23:
 432              	.LFB40:
 319:Middlewares/Third_Party/FreeRTOS/Source/CMSIS_RTOS/cmsis_os.c **** 
 320:Middlewares/Third_Party/FreeRTOS/Source/CMSIS_RTOS/cmsis_os.c **** /**
 321:Middlewares/Third_Party/FreeRTOS/Source/CMSIS_RTOS/cmsis_os.c **** * @brief   Change priority of an active thread.
 322:Middlewares/Third_Party/FreeRTOS/Source/CMSIS_RTOS/cmsis_os.c **** * @param   thread_id     thread ID obtained by \ref osThreadCreate or \ref osThreadGetId.
 323:Middlewares/Third_Party/FreeRTOS/Source/CMSIS_RTOS/cmsis_os.c **** * @param   priority      new priority value for the thread function.
 324:Middlewares/Third_Party/FreeRTOS/Source/CMSIS_RTOS/cmsis_os.c **** * @retval  status code that indicates the execution status of the function.
ARM GAS  /var/folders/n1/76bg37b13ls08p1dhb9rhvd40000gn/T//cc6VEgqh.s 			page 16


 325:Middlewares/Third_Party/FreeRTOS/Source/CMSIS_RTOS/cmsis_os.c **** * @note   MUST REMAIN UNCHANGED: \b osThreadSetPriority shall be consistent in every CMSIS-RTOS.
 326:Middlewares/Third_Party/FreeRTOS/Source/CMSIS_RTOS/cmsis_os.c **** */
 327:Middlewares/Third_Party/FreeRTOS/Source/CMSIS_RTOS/cmsis_os.c **** osStatus osThreadSetPriority (osThreadId thread_id, osPriority priority)
 328:Middlewares/Third_Party/FreeRTOS/Source/CMSIS_RTOS/cmsis_os.c **** {
 433              		.loc 1 328 1 is_stmt 1 view -0
 434              		.cfi_startproc
 435              		@ args = 0, pretend = 0, frame = 0
 436              		@ frame_needed = 0, uses_anonymous_args = 0
 437              		.loc 1 328 1 is_stmt 0 view .LVU81
 438 0000 10B5     		push	{r4, lr}
 439              	.LCFI9:
 440              		.cfi_def_cfa_offset 8
 441              		.cfi_offset 4, -8
 442              		.cfi_offset 14, -4
 443 0002 0446     		mov	r4, r0
 329:Middlewares/Third_Party/FreeRTOS/Source/CMSIS_RTOS/cmsis_os.c **** #if (INCLUDE_vTaskPrioritySet == 1)
 330:Middlewares/Third_Party/FreeRTOS/Source/CMSIS_RTOS/cmsis_os.c ****   vTaskPrioritySet(thread_id, makeFreeRtosPriority(priority));
 444              		.loc 1 330 3 is_stmt 1 view .LVU82
 445 0004 0846     		mov	r0, r1
 446              	.LVL24:
 447              		.loc 1 330 3 is_stmt 0 view .LVU83
 448 0006 FFF7FEFF 		bl	makeFreeRtosPriority
 449              	.LVL25:
 450              		.loc 1 330 3 view .LVU84
 451 000a 0146     		mov	r1, r0
 452 000c 2046     		mov	r0, r4
 453 000e FFF7FEFF 		bl	vTaskPrioritySet
 454              	.LVL26:
 331:Middlewares/Third_Party/FreeRTOS/Source/CMSIS_RTOS/cmsis_os.c ****   return osOK;
 455              		.loc 1 331 3 is_stmt 1 view .LVU85
 332:Middlewares/Third_Party/FreeRTOS/Source/CMSIS_RTOS/cmsis_os.c **** #else
 333:Middlewares/Third_Party/FreeRTOS/Source/CMSIS_RTOS/cmsis_os.c ****   return osErrorOS;
 334:Middlewares/Third_Party/FreeRTOS/Source/CMSIS_RTOS/cmsis_os.c **** #endif
 335:Middlewares/Third_Party/FreeRTOS/Source/CMSIS_RTOS/cmsis_os.c **** }
 456              		.loc 1 335 1 is_stmt 0 view .LVU86
 457 0012 0020     		movs	r0, #0
 458 0014 10BD     		pop	{r4, pc}
 459              		.loc 1 335 1 view .LVU87
 460              		.cfi_endproc
 461              	.LFE40:
 463              		.section	.text.osThreadGetPriority,"ax",%progbits
 464              		.align	1
 465              		.global	osThreadGetPriority
 466              		.syntax unified
 467              		.thumb
 468              		.thumb_func
 469              		.fpu fpv4-sp-d16
 471              	osThreadGetPriority:
 472              	.LVL27:
 473              	.LFB41:
 336:Middlewares/Third_Party/FreeRTOS/Source/CMSIS_RTOS/cmsis_os.c **** 
 337:Middlewares/Third_Party/FreeRTOS/Source/CMSIS_RTOS/cmsis_os.c **** /**
 338:Middlewares/Third_Party/FreeRTOS/Source/CMSIS_RTOS/cmsis_os.c **** * @brief   Get current priority of an active thread.
 339:Middlewares/Third_Party/FreeRTOS/Source/CMSIS_RTOS/cmsis_os.c **** * @param   thread_id     thread ID obtained by \ref osThreadCreate or \ref osThreadGetId.
 340:Middlewares/Third_Party/FreeRTOS/Source/CMSIS_RTOS/cmsis_os.c **** * @retval  current priority value of the thread function.
 341:Middlewares/Third_Party/FreeRTOS/Source/CMSIS_RTOS/cmsis_os.c **** * @note   MUST REMAIN UNCHANGED: \b osThreadGetPriority shall be consistent in every CMSIS-RTOS.
 342:Middlewares/Third_Party/FreeRTOS/Source/CMSIS_RTOS/cmsis_os.c **** */
ARM GAS  /var/folders/n1/76bg37b13ls08p1dhb9rhvd40000gn/T//cc6VEgqh.s 			page 17


 343:Middlewares/Third_Party/FreeRTOS/Source/CMSIS_RTOS/cmsis_os.c **** osPriority osThreadGetPriority (osThreadId thread_id)
 344:Middlewares/Third_Party/FreeRTOS/Source/CMSIS_RTOS/cmsis_os.c **** {
 474              		.loc 1 344 1 is_stmt 1 view -0
 475              		.cfi_startproc
 476              		@ args = 0, pretend = 0, frame = 0
 477              		@ frame_needed = 0, uses_anonymous_args = 0
 478              		.loc 1 344 1 is_stmt 0 view .LVU89
 479 0000 10B5     		push	{r4, lr}
 480              	.LCFI10:
 481              		.cfi_def_cfa_offset 8
 482              		.cfi_offset 4, -8
 483              		.cfi_offset 14, -4
 484 0002 0446     		mov	r4, r0
 345:Middlewares/Third_Party/FreeRTOS/Source/CMSIS_RTOS/cmsis_os.c **** #if (INCLUDE_uxTaskPriorityGet == 1)
 346:Middlewares/Third_Party/FreeRTOS/Source/CMSIS_RTOS/cmsis_os.c ****   if (inHandlerMode())
 485              		.loc 1 346 3 is_stmt 1 view .LVU90
 486              		.loc 1 346 7 is_stmt 0 view .LVU91
 487 0004 FFF7FEFF 		bl	inHandlerMode
 488              	.LVL28:
 489              		.loc 1 346 6 view .LVU92
 490 0008 28B1     		cbz	r0, .L33
 347:Middlewares/Third_Party/FreeRTOS/Source/CMSIS_RTOS/cmsis_os.c ****   {
 348:Middlewares/Third_Party/FreeRTOS/Source/CMSIS_RTOS/cmsis_os.c ****     return makeCmsisPriority(uxTaskPriorityGetFromISR(thread_id));  
 491              		.loc 1 348 5 is_stmt 1 view .LVU93
 492              		.loc 1 348 12 is_stmt 0 view .LVU94
 493 000a 2046     		mov	r0, r4
 494 000c FFF7FEFF 		bl	uxTaskPriorityGetFromISR
 495              	.LVL29:
 496 0010 FFF7FEFF 		bl	makeCmsisPriority
 497              	.LVL30:
 498              	.L34:
 349:Middlewares/Third_Party/FreeRTOS/Source/CMSIS_RTOS/cmsis_os.c ****   }
 350:Middlewares/Third_Party/FreeRTOS/Source/CMSIS_RTOS/cmsis_os.c ****   else
 351:Middlewares/Third_Party/FreeRTOS/Source/CMSIS_RTOS/cmsis_os.c ****   {  
 352:Middlewares/Third_Party/FreeRTOS/Source/CMSIS_RTOS/cmsis_os.c ****     return makeCmsisPriority(uxTaskPriorityGet(thread_id));
 353:Middlewares/Third_Party/FreeRTOS/Source/CMSIS_RTOS/cmsis_os.c ****   }
 354:Middlewares/Third_Party/FreeRTOS/Source/CMSIS_RTOS/cmsis_os.c **** #else
 355:Middlewares/Third_Party/FreeRTOS/Source/CMSIS_RTOS/cmsis_os.c ****   return osPriorityError;
 356:Middlewares/Third_Party/FreeRTOS/Source/CMSIS_RTOS/cmsis_os.c **** #endif
 357:Middlewares/Third_Party/FreeRTOS/Source/CMSIS_RTOS/cmsis_os.c **** }
 499              		.loc 1 357 1 view .LVU95
 500 0014 10BD     		pop	{r4, pc}
 501              	.LVL31:
 502              	.L33:
 352:Middlewares/Third_Party/FreeRTOS/Source/CMSIS_RTOS/cmsis_os.c ****   }
 503              		.loc 1 352 5 is_stmt 1 view .LVU96
 352:Middlewares/Third_Party/FreeRTOS/Source/CMSIS_RTOS/cmsis_os.c ****   }
 504              		.loc 1 352 12 is_stmt 0 view .LVU97
 505 0016 2046     		mov	r0, r4
 506 0018 FFF7FEFF 		bl	uxTaskPriorityGet
 507              	.LVL32:
 508 001c FFF7FEFF 		bl	makeCmsisPriority
 509              	.LVL33:
 510 0020 F8E7     		b	.L34
 511              		.cfi_endproc
 512              	.LFE41:
 514              		.section	.text.osDelay,"ax",%progbits
ARM GAS  /var/folders/n1/76bg37b13ls08p1dhb9rhvd40000gn/T//cc6VEgqh.s 			page 18


 515              		.align	1
 516              		.global	osDelay
 517              		.syntax unified
 518              		.thumb
 519              		.thumb_func
 520              		.fpu fpv4-sp-d16
 522              	osDelay:
 523              	.LVL34:
 524              	.LFB42:
 358:Middlewares/Third_Party/FreeRTOS/Source/CMSIS_RTOS/cmsis_os.c **** 
 359:Middlewares/Third_Party/FreeRTOS/Source/CMSIS_RTOS/cmsis_os.c **** /*********************** Generic Wait Functions *******************************/
 360:Middlewares/Third_Party/FreeRTOS/Source/CMSIS_RTOS/cmsis_os.c **** /**
 361:Middlewares/Third_Party/FreeRTOS/Source/CMSIS_RTOS/cmsis_os.c **** * @brief   Wait for Timeout (Time Delay)
 362:Middlewares/Third_Party/FreeRTOS/Source/CMSIS_RTOS/cmsis_os.c **** * @param   millisec      time delay value
 363:Middlewares/Third_Party/FreeRTOS/Source/CMSIS_RTOS/cmsis_os.c **** * @retval  status code that indicates the execution status of the function.
 364:Middlewares/Third_Party/FreeRTOS/Source/CMSIS_RTOS/cmsis_os.c **** */
 365:Middlewares/Third_Party/FreeRTOS/Source/CMSIS_RTOS/cmsis_os.c **** osStatus osDelay (uint32_t millisec)
 366:Middlewares/Third_Party/FreeRTOS/Source/CMSIS_RTOS/cmsis_os.c **** {
 525              		.loc 1 366 1 is_stmt 1 view -0
 526              		.cfi_startproc
 527              		@ args = 0, pretend = 0, frame = 0
 528              		@ frame_needed = 0, uses_anonymous_args = 0
 529              		.loc 1 366 1 is_stmt 0 view .LVU99
 530 0000 08B5     		push	{r3, lr}
 531              	.LCFI11:
 532              		.cfi_def_cfa_offset 8
 533              		.cfi_offset 3, -8
 534              		.cfi_offset 14, -4
 367:Middlewares/Third_Party/FreeRTOS/Source/CMSIS_RTOS/cmsis_os.c **** #if INCLUDE_vTaskDelay
 368:Middlewares/Third_Party/FreeRTOS/Source/CMSIS_RTOS/cmsis_os.c ****   TickType_t ticks = millisec / portTICK_PERIOD_MS;
 535              		.loc 1 368 3 is_stmt 1 view .LVU100
 536              	.LVL35:
 369:Middlewares/Third_Party/FreeRTOS/Source/CMSIS_RTOS/cmsis_os.c ****   
 370:Middlewares/Third_Party/FreeRTOS/Source/CMSIS_RTOS/cmsis_os.c ****   vTaskDelay(ticks ? ticks : 1);          /* Minimum delay = 1 tick */
 537              		.loc 1 370 3 view .LVU101
 538 0002 0346     		mov	r3, r0
 539 0004 00B9     		cbnz	r0, .L37
 540 0006 0123     		movs	r3, #1
 541              	.L37:
 542              		.loc 1 370 3 is_stmt 0 discriminator 4 view .LVU102
 543 0008 1846     		mov	r0, r3
 544              	.LVL36:
 545              		.loc 1 370 3 discriminator 4 view .LVU103
 546 000a FFF7FEFF 		bl	vTaskDelay
 547              	.LVL37:
 371:Middlewares/Third_Party/FreeRTOS/Source/CMSIS_RTOS/cmsis_os.c ****   
 372:Middlewares/Third_Party/FreeRTOS/Source/CMSIS_RTOS/cmsis_os.c ****   return osOK;
 548              		.loc 1 372 3 is_stmt 1 discriminator 4 view .LVU104
 373:Middlewares/Third_Party/FreeRTOS/Source/CMSIS_RTOS/cmsis_os.c **** #else
 374:Middlewares/Third_Party/FreeRTOS/Source/CMSIS_RTOS/cmsis_os.c ****   (void) millisec;
 375:Middlewares/Third_Party/FreeRTOS/Source/CMSIS_RTOS/cmsis_os.c ****   
 376:Middlewares/Third_Party/FreeRTOS/Source/CMSIS_RTOS/cmsis_os.c ****   return osErrorResource;
 377:Middlewares/Third_Party/FreeRTOS/Source/CMSIS_RTOS/cmsis_os.c **** #endif
 378:Middlewares/Third_Party/FreeRTOS/Source/CMSIS_RTOS/cmsis_os.c **** }
 549              		.loc 1 378 1 is_stmt 0 discriminator 4 view .LVU105
 550 000e 0020     		movs	r0, #0
 551 0010 08BD     		pop	{r3, pc}
ARM GAS  /var/folders/n1/76bg37b13ls08p1dhb9rhvd40000gn/T//cc6VEgqh.s 			page 19


 552              		.cfi_endproc
 553              	.LFE42:
 555              		.section	.text.osTimerCreate,"ax",%progbits
 556              		.align	1
 557              		.global	osTimerCreate
 558              		.syntax unified
 559              		.thumb
 560              		.thumb_func
 561              		.fpu fpv4-sp-d16
 563              	osTimerCreate:
 564              	.LVL38:
 565              	.LFB43:
 379:Middlewares/Third_Party/FreeRTOS/Source/CMSIS_RTOS/cmsis_os.c **** 
 380:Middlewares/Third_Party/FreeRTOS/Source/CMSIS_RTOS/cmsis_os.c **** #if (defined (osFeature_Wait)  &&  (osFeature_Wait != 0)) /* Generic Wait available */
 381:Middlewares/Third_Party/FreeRTOS/Source/CMSIS_RTOS/cmsis_os.c **** /**
 382:Middlewares/Third_Party/FreeRTOS/Source/CMSIS_RTOS/cmsis_os.c **** * @brief  Wait for Signal, Message, Mail, or Timeout
 383:Middlewares/Third_Party/FreeRTOS/Source/CMSIS_RTOS/cmsis_os.c **** * @param   millisec  timeout value or 0 in case of no time-out
 384:Middlewares/Third_Party/FreeRTOS/Source/CMSIS_RTOS/cmsis_os.c **** * @retval  event that contains signal, message, or mail information or error code.
 385:Middlewares/Third_Party/FreeRTOS/Source/CMSIS_RTOS/cmsis_os.c **** * @note   MUST REMAIN UNCHANGED: \b osWait shall be consistent in every CMSIS-RTOS.
 386:Middlewares/Third_Party/FreeRTOS/Source/CMSIS_RTOS/cmsis_os.c **** */
 387:Middlewares/Third_Party/FreeRTOS/Source/CMSIS_RTOS/cmsis_os.c **** osEvent osWait (uint32_t millisec);
 388:Middlewares/Third_Party/FreeRTOS/Source/CMSIS_RTOS/cmsis_os.c **** 
 389:Middlewares/Third_Party/FreeRTOS/Source/CMSIS_RTOS/cmsis_os.c **** #endif  /* Generic Wait available */
 390:Middlewares/Third_Party/FreeRTOS/Source/CMSIS_RTOS/cmsis_os.c **** 
 391:Middlewares/Third_Party/FreeRTOS/Source/CMSIS_RTOS/cmsis_os.c **** /***********************  Timer Management Functions ***************************/
 392:Middlewares/Third_Party/FreeRTOS/Source/CMSIS_RTOS/cmsis_os.c **** /**
 393:Middlewares/Third_Party/FreeRTOS/Source/CMSIS_RTOS/cmsis_os.c **** * @brief  Create a timer.
 394:Middlewares/Third_Party/FreeRTOS/Source/CMSIS_RTOS/cmsis_os.c **** * @param  timer_def     timer object referenced with \ref osTimer.
 395:Middlewares/Third_Party/FreeRTOS/Source/CMSIS_RTOS/cmsis_os.c **** * @param  type          osTimerOnce for one-shot or osTimerPeriodic for periodic behavior.
 396:Middlewares/Third_Party/FreeRTOS/Source/CMSIS_RTOS/cmsis_os.c **** * @param  argument      argument to the timer call back function.
 397:Middlewares/Third_Party/FreeRTOS/Source/CMSIS_RTOS/cmsis_os.c **** * @retval  timer ID for reference by other functions or NULL in case of error.
 398:Middlewares/Third_Party/FreeRTOS/Source/CMSIS_RTOS/cmsis_os.c **** * @note   MUST REMAIN UNCHANGED: \b osTimerCreate shall be consistent in every CMSIS-RTOS.
 399:Middlewares/Third_Party/FreeRTOS/Source/CMSIS_RTOS/cmsis_os.c **** */
 400:Middlewares/Third_Party/FreeRTOS/Source/CMSIS_RTOS/cmsis_os.c **** osTimerId osTimerCreate (const osTimerDef_t *timer_def, os_timer_type type, void *argument)
 401:Middlewares/Third_Party/FreeRTOS/Source/CMSIS_RTOS/cmsis_os.c **** {
 566              		.loc 1 401 1 is_stmt 1 view -0
 567              		.cfi_startproc
 568              		@ args = 0, pretend = 0, frame = 0
 569              		@ frame_needed = 0, uses_anonymous_args = 0
 570              		@ link register save eliminated.
 402:Middlewares/Third_Party/FreeRTOS/Source/CMSIS_RTOS/cmsis_os.c **** #if (configUSE_TIMERS == 1)
 403:Middlewares/Third_Party/FreeRTOS/Source/CMSIS_RTOS/cmsis_os.c **** 
 404:Middlewares/Third_Party/FreeRTOS/Source/CMSIS_RTOS/cmsis_os.c **** #if( ( configSUPPORT_STATIC_ALLOCATION == 1 ) && ( configSUPPORT_DYNAMIC_ALLOCATION == 1 ) ) 
 405:Middlewares/Third_Party/FreeRTOS/Source/CMSIS_RTOS/cmsis_os.c ****   if(timer_def->controlblock != NULL) {
 406:Middlewares/Third_Party/FreeRTOS/Source/CMSIS_RTOS/cmsis_os.c ****     return xTimerCreateStatic((const char *)"",
 407:Middlewares/Third_Party/FreeRTOS/Source/CMSIS_RTOS/cmsis_os.c ****                       1, // period should be filled when starting the Timer using osTimerStart
 408:Middlewares/Third_Party/FreeRTOS/Source/CMSIS_RTOS/cmsis_os.c ****                       (type == osTimerPeriodic) ? pdTRUE : pdFALSE,
 409:Middlewares/Third_Party/FreeRTOS/Source/CMSIS_RTOS/cmsis_os.c ****                       (void *) argument,
 410:Middlewares/Third_Party/FreeRTOS/Source/CMSIS_RTOS/cmsis_os.c ****                       (TaskFunction_t)timer_def->ptimer,
 411:Middlewares/Third_Party/FreeRTOS/Source/CMSIS_RTOS/cmsis_os.c ****                       (StaticTimer_t *)timer_def->controlblock);
 412:Middlewares/Third_Party/FreeRTOS/Source/CMSIS_RTOS/cmsis_os.c ****   }
 413:Middlewares/Third_Party/FreeRTOS/Source/CMSIS_RTOS/cmsis_os.c ****   else {
 414:Middlewares/Third_Party/FreeRTOS/Source/CMSIS_RTOS/cmsis_os.c ****     return xTimerCreate((const char *)"",
 415:Middlewares/Third_Party/FreeRTOS/Source/CMSIS_RTOS/cmsis_os.c ****                       1, // period should be filled when starting the Timer using osTimerStart
 416:Middlewares/Third_Party/FreeRTOS/Source/CMSIS_RTOS/cmsis_os.c ****                       (type == osTimerPeriodic) ? pdTRUE : pdFALSE,
 417:Middlewares/Third_Party/FreeRTOS/Source/CMSIS_RTOS/cmsis_os.c ****                       (void *) argument,
 418:Middlewares/Third_Party/FreeRTOS/Source/CMSIS_RTOS/cmsis_os.c ****                       (TaskFunction_t)timer_def->ptimer);
ARM GAS  /var/folders/n1/76bg37b13ls08p1dhb9rhvd40000gn/T//cc6VEgqh.s 			page 20


 419:Middlewares/Third_Party/FreeRTOS/Source/CMSIS_RTOS/cmsis_os.c ****  }
 420:Middlewares/Third_Party/FreeRTOS/Source/CMSIS_RTOS/cmsis_os.c **** #elif( configSUPPORT_STATIC_ALLOCATION == 1 )
 421:Middlewares/Third_Party/FreeRTOS/Source/CMSIS_RTOS/cmsis_os.c ****   return xTimerCreateStatic((const char *)"",
 422:Middlewares/Third_Party/FreeRTOS/Source/CMSIS_RTOS/cmsis_os.c ****                       1, // period should be filled when starting the Timer using osTimerStart
 423:Middlewares/Third_Party/FreeRTOS/Source/CMSIS_RTOS/cmsis_os.c ****                       (type == osTimerPeriodic) ? pdTRUE : pdFALSE,
 424:Middlewares/Third_Party/FreeRTOS/Source/CMSIS_RTOS/cmsis_os.c ****                       (void *) argument,
 425:Middlewares/Third_Party/FreeRTOS/Source/CMSIS_RTOS/cmsis_os.c ****                       (TaskFunction_t)timer_def->ptimer,
 426:Middlewares/Third_Party/FreeRTOS/Source/CMSIS_RTOS/cmsis_os.c ****                       (StaticTimer_t *)timer_def->controlblock);  
 427:Middlewares/Third_Party/FreeRTOS/Source/CMSIS_RTOS/cmsis_os.c **** #else
 428:Middlewares/Third_Party/FreeRTOS/Source/CMSIS_RTOS/cmsis_os.c ****   return xTimerCreate((const char *)"",
 429:Middlewares/Third_Party/FreeRTOS/Source/CMSIS_RTOS/cmsis_os.c ****                       1, // period should be filled when starting the Timer using osTimerStart
 430:Middlewares/Third_Party/FreeRTOS/Source/CMSIS_RTOS/cmsis_os.c ****                       (type == osTimerPeriodic) ? pdTRUE : pdFALSE,
 431:Middlewares/Third_Party/FreeRTOS/Source/CMSIS_RTOS/cmsis_os.c ****                       (void *) argument,
 432:Middlewares/Third_Party/FreeRTOS/Source/CMSIS_RTOS/cmsis_os.c ****                       (TaskFunction_t)timer_def->ptimer);
 433:Middlewares/Third_Party/FreeRTOS/Source/CMSIS_RTOS/cmsis_os.c **** #endif
 434:Middlewares/Third_Party/FreeRTOS/Source/CMSIS_RTOS/cmsis_os.c **** 
 435:Middlewares/Third_Party/FreeRTOS/Source/CMSIS_RTOS/cmsis_os.c **** #else 
 436:Middlewares/Third_Party/FreeRTOS/Source/CMSIS_RTOS/cmsis_os.c **** 	return NULL;
 571              		.loc 1 436 2 view .LVU107
 437:Middlewares/Third_Party/FreeRTOS/Source/CMSIS_RTOS/cmsis_os.c **** #endif
 438:Middlewares/Third_Party/FreeRTOS/Source/CMSIS_RTOS/cmsis_os.c **** }
 572              		.loc 1 438 1 is_stmt 0 view .LVU108
 573 0000 0020     		movs	r0, #0
 574              	.LVL39:
 575              		.loc 1 438 1 view .LVU109
 576 0002 7047     		bx	lr
 577              		.cfi_endproc
 578              	.LFE43:
 580              		.section	.text.osTimerStart,"ax",%progbits
 581              		.align	1
 582              		.global	osTimerStart
 583              		.syntax unified
 584              		.thumb
 585              		.thumb_func
 586              		.fpu fpv4-sp-d16
 588              	osTimerStart:
 589              	.LVL40:
 590              	.LFB44:
 439:Middlewares/Third_Party/FreeRTOS/Source/CMSIS_RTOS/cmsis_os.c **** 
 440:Middlewares/Third_Party/FreeRTOS/Source/CMSIS_RTOS/cmsis_os.c **** /**
 441:Middlewares/Third_Party/FreeRTOS/Source/CMSIS_RTOS/cmsis_os.c **** * @brief  Start or restart a timer.
 442:Middlewares/Third_Party/FreeRTOS/Source/CMSIS_RTOS/cmsis_os.c **** * @param  timer_id      timer ID obtained by \ref osTimerCreate.
 443:Middlewares/Third_Party/FreeRTOS/Source/CMSIS_RTOS/cmsis_os.c **** * @param  millisec      time delay value of the timer.
 444:Middlewares/Third_Party/FreeRTOS/Source/CMSIS_RTOS/cmsis_os.c **** * @retval  status code that indicates the execution status of the function
 445:Middlewares/Third_Party/FreeRTOS/Source/CMSIS_RTOS/cmsis_os.c **** * @note   MUST REMAIN UNCHANGED: \b osTimerStart shall be consistent in every CMSIS-RTOS.
 446:Middlewares/Third_Party/FreeRTOS/Source/CMSIS_RTOS/cmsis_os.c **** */
 447:Middlewares/Third_Party/FreeRTOS/Source/CMSIS_RTOS/cmsis_os.c **** osStatus osTimerStart (osTimerId timer_id, uint32_t millisec)
 448:Middlewares/Third_Party/FreeRTOS/Source/CMSIS_RTOS/cmsis_os.c **** {
 591              		.loc 1 448 1 is_stmt 1 view -0
 592              		.cfi_startproc
 593              		@ args = 0, pretend = 0, frame = 0
 594              		@ frame_needed = 0, uses_anonymous_args = 0
 595              		@ link register save eliminated.
 449:Middlewares/Third_Party/FreeRTOS/Source/CMSIS_RTOS/cmsis_os.c ****   osStatus result = osOK;
 596              		.loc 1 449 3 view .LVU111
 450:Middlewares/Third_Party/FreeRTOS/Source/CMSIS_RTOS/cmsis_os.c **** #if (configUSE_TIMERS == 1)  
 451:Middlewares/Third_Party/FreeRTOS/Source/CMSIS_RTOS/cmsis_os.c ****   portBASE_TYPE taskWoken = pdFALSE;
ARM GAS  /var/folders/n1/76bg37b13ls08p1dhb9rhvd40000gn/T//cc6VEgqh.s 			page 21


 452:Middlewares/Third_Party/FreeRTOS/Source/CMSIS_RTOS/cmsis_os.c ****   TickType_t ticks = millisec / portTICK_PERIOD_MS;
 453:Middlewares/Third_Party/FreeRTOS/Source/CMSIS_RTOS/cmsis_os.c **** 
 454:Middlewares/Third_Party/FreeRTOS/Source/CMSIS_RTOS/cmsis_os.c ****   if (ticks == 0)
 455:Middlewares/Third_Party/FreeRTOS/Source/CMSIS_RTOS/cmsis_os.c ****     ticks = 1;
 456:Middlewares/Third_Party/FreeRTOS/Source/CMSIS_RTOS/cmsis_os.c ****     
 457:Middlewares/Third_Party/FreeRTOS/Source/CMSIS_RTOS/cmsis_os.c ****   if (inHandlerMode()) 
 458:Middlewares/Third_Party/FreeRTOS/Source/CMSIS_RTOS/cmsis_os.c ****   {
 459:Middlewares/Third_Party/FreeRTOS/Source/CMSIS_RTOS/cmsis_os.c ****     if (xTimerChangePeriodFromISR(timer_id, ticks, &taskWoken) != pdPASS)
 460:Middlewares/Third_Party/FreeRTOS/Source/CMSIS_RTOS/cmsis_os.c ****     {
 461:Middlewares/Third_Party/FreeRTOS/Source/CMSIS_RTOS/cmsis_os.c ****       result = osErrorOS;
 462:Middlewares/Third_Party/FreeRTOS/Source/CMSIS_RTOS/cmsis_os.c ****     }
 463:Middlewares/Third_Party/FreeRTOS/Source/CMSIS_RTOS/cmsis_os.c ****     else
 464:Middlewares/Third_Party/FreeRTOS/Source/CMSIS_RTOS/cmsis_os.c ****     {
 465:Middlewares/Third_Party/FreeRTOS/Source/CMSIS_RTOS/cmsis_os.c ****       portEND_SWITCHING_ISR(taskWoken);     
 466:Middlewares/Third_Party/FreeRTOS/Source/CMSIS_RTOS/cmsis_os.c ****     }
 467:Middlewares/Third_Party/FreeRTOS/Source/CMSIS_RTOS/cmsis_os.c ****   }
 468:Middlewares/Third_Party/FreeRTOS/Source/CMSIS_RTOS/cmsis_os.c ****   else 
 469:Middlewares/Third_Party/FreeRTOS/Source/CMSIS_RTOS/cmsis_os.c ****   {
 470:Middlewares/Third_Party/FreeRTOS/Source/CMSIS_RTOS/cmsis_os.c ****     if (xTimerChangePeriod(timer_id, ticks, 0) != pdPASS)
 471:Middlewares/Third_Party/FreeRTOS/Source/CMSIS_RTOS/cmsis_os.c ****       result = osErrorOS;
 472:Middlewares/Third_Party/FreeRTOS/Source/CMSIS_RTOS/cmsis_os.c ****   }
 473:Middlewares/Third_Party/FreeRTOS/Source/CMSIS_RTOS/cmsis_os.c **** 
 474:Middlewares/Third_Party/FreeRTOS/Source/CMSIS_RTOS/cmsis_os.c **** #else 
 475:Middlewares/Third_Party/FreeRTOS/Source/CMSIS_RTOS/cmsis_os.c ****   result = osErrorOS;
 597              		.loc 1 475 3 view .LVU112
 476:Middlewares/Third_Party/FreeRTOS/Source/CMSIS_RTOS/cmsis_os.c **** #endif
 477:Middlewares/Third_Party/FreeRTOS/Source/CMSIS_RTOS/cmsis_os.c ****   return result;
 598              		.loc 1 477 3 view .LVU113
 478:Middlewares/Third_Party/FreeRTOS/Source/CMSIS_RTOS/cmsis_os.c **** }
 599              		.loc 1 478 1 is_stmt 0 view .LVU114
 600 0000 FF20     		movs	r0, #255
 601              	.LVL41:
 602              		.loc 1 478 1 view .LVU115
 603 0002 7047     		bx	lr
 604              		.cfi_endproc
 605              	.LFE44:
 607              		.section	.text.osTimerStop,"ax",%progbits
 608              		.align	1
 609              		.global	osTimerStop
 610              		.syntax unified
 611              		.thumb
 612              		.thumb_func
 613              		.fpu fpv4-sp-d16
 615              	osTimerStop:
 616              	.LVL42:
 617              	.LFB45:
 479:Middlewares/Third_Party/FreeRTOS/Source/CMSIS_RTOS/cmsis_os.c **** 
 480:Middlewares/Third_Party/FreeRTOS/Source/CMSIS_RTOS/cmsis_os.c **** /**
 481:Middlewares/Third_Party/FreeRTOS/Source/CMSIS_RTOS/cmsis_os.c **** * @brief  Stop a timer.
 482:Middlewares/Third_Party/FreeRTOS/Source/CMSIS_RTOS/cmsis_os.c **** * @param  timer_id      timer ID obtained by \ref osTimerCreate
 483:Middlewares/Third_Party/FreeRTOS/Source/CMSIS_RTOS/cmsis_os.c **** * @retval  status code that indicates the execution status of the function.
 484:Middlewares/Third_Party/FreeRTOS/Source/CMSIS_RTOS/cmsis_os.c **** * @note   MUST REMAIN UNCHANGED: \b osTimerStop shall be consistent in every CMSIS-RTOS.
 485:Middlewares/Third_Party/FreeRTOS/Source/CMSIS_RTOS/cmsis_os.c **** */
 486:Middlewares/Third_Party/FreeRTOS/Source/CMSIS_RTOS/cmsis_os.c **** osStatus osTimerStop (osTimerId timer_id)
 487:Middlewares/Third_Party/FreeRTOS/Source/CMSIS_RTOS/cmsis_os.c **** {
 618              		.loc 1 487 1 is_stmt 1 view -0
 619              		.cfi_startproc
ARM GAS  /var/folders/n1/76bg37b13ls08p1dhb9rhvd40000gn/T//cc6VEgqh.s 			page 22


 620              		@ args = 0, pretend = 0, frame = 0
 621              		@ frame_needed = 0, uses_anonymous_args = 0
 622              		@ link register save eliminated.
 488:Middlewares/Third_Party/FreeRTOS/Source/CMSIS_RTOS/cmsis_os.c ****   osStatus result = osOK;
 623              		.loc 1 488 3 view .LVU117
 489:Middlewares/Third_Party/FreeRTOS/Source/CMSIS_RTOS/cmsis_os.c **** #if (configUSE_TIMERS == 1)  
 490:Middlewares/Third_Party/FreeRTOS/Source/CMSIS_RTOS/cmsis_os.c ****   portBASE_TYPE taskWoken = pdFALSE;
 491:Middlewares/Third_Party/FreeRTOS/Source/CMSIS_RTOS/cmsis_os.c **** 
 492:Middlewares/Third_Party/FreeRTOS/Source/CMSIS_RTOS/cmsis_os.c ****   if (inHandlerMode()) {
 493:Middlewares/Third_Party/FreeRTOS/Source/CMSIS_RTOS/cmsis_os.c ****     if (xTimerStopFromISR(timer_id, &taskWoken) != pdPASS) {
 494:Middlewares/Third_Party/FreeRTOS/Source/CMSIS_RTOS/cmsis_os.c ****       return osErrorOS;
 495:Middlewares/Third_Party/FreeRTOS/Source/CMSIS_RTOS/cmsis_os.c ****     }
 496:Middlewares/Third_Party/FreeRTOS/Source/CMSIS_RTOS/cmsis_os.c ****     portEND_SWITCHING_ISR(taskWoken);
 497:Middlewares/Third_Party/FreeRTOS/Source/CMSIS_RTOS/cmsis_os.c ****   }
 498:Middlewares/Third_Party/FreeRTOS/Source/CMSIS_RTOS/cmsis_os.c ****   else {
 499:Middlewares/Third_Party/FreeRTOS/Source/CMSIS_RTOS/cmsis_os.c ****     if (xTimerStop(timer_id, 0) != pdPASS) {
 500:Middlewares/Third_Party/FreeRTOS/Source/CMSIS_RTOS/cmsis_os.c ****       result = osErrorOS;
 501:Middlewares/Third_Party/FreeRTOS/Source/CMSIS_RTOS/cmsis_os.c ****     }
 502:Middlewares/Third_Party/FreeRTOS/Source/CMSIS_RTOS/cmsis_os.c ****   }
 503:Middlewares/Third_Party/FreeRTOS/Source/CMSIS_RTOS/cmsis_os.c **** #else 
 504:Middlewares/Third_Party/FreeRTOS/Source/CMSIS_RTOS/cmsis_os.c ****   result = osErrorOS;
 624              		.loc 1 504 3 view .LVU118
 505:Middlewares/Third_Party/FreeRTOS/Source/CMSIS_RTOS/cmsis_os.c **** #endif 
 506:Middlewares/Third_Party/FreeRTOS/Source/CMSIS_RTOS/cmsis_os.c ****   return result;
 625              		.loc 1 506 3 view .LVU119
 507:Middlewares/Third_Party/FreeRTOS/Source/CMSIS_RTOS/cmsis_os.c **** }
 626              		.loc 1 507 1 is_stmt 0 view .LVU120
 627 0000 FF20     		movs	r0, #255
 628              	.LVL43:
 629              		.loc 1 507 1 view .LVU121
 630 0002 7047     		bx	lr
 631              		.cfi_endproc
 632              	.LFE45:
 634              		.section	.text.osTimerDelete,"ax",%progbits
 635              		.align	1
 636              		.global	osTimerDelete
 637              		.syntax unified
 638              		.thumb
 639              		.thumb_func
 640              		.fpu fpv4-sp-d16
 642              	osTimerDelete:
 643              	.LVL44:
 644              	.LFB46:
 508:Middlewares/Third_Party/FreeRTOS/Source/CMSIS_RTOS/cmsis_os.c **** 
 509:Middlewares/Third_Party/FreeRTOS/Source/CMSIS_RTOS/cmsis_os.c **** /**
 510:Middlewares/Third_Party/FreeRTOS/Source/CMSIS_RTOS/cmsis_os.c **** * @brief  Delete a timer.
 511:Middlewares/Third_Party/FreeRTOS/Source/CMSIS_RTOS/cmsis_os.c **** * @param  timer_id      timer ID obtained by \ref osTimerCreate
 512:Middlewares/Third_Party/FreeRTOS/Source/CMSIS_RTOS/cmsis_os.c **** * @retval  status code that indicates the execution status of the function.
 513:Middlewares/Third_Party/FreeRTOS/Source/CMSIS_RTOS/cmsis_os.c **** * @note   MUST REMAIN UNCHANGED: \b osTimerDelete shall be consistent in every CMSIS-RTOS.
 514:Middlewares/Third_Party/FreeRTOS/Source/CMSIS_RTOS/cmsis_os.c **** */
 515:Middlewares/Third_Party/FreeRTOS/Source/CMSIS_RTOS/cmsis_os.c **** osStatus osTimerDelete (osTimerId timer_id)
 516:Middlewares/Third_Party/FreeRTOS/Source/CMSIS_RTOS/cmsis_os.c **** {
 645              		.loc 1 516 1 is_stmt 1 view -0
 646              		.cfi_startproc
 647              		@ args = 0, pretend = 0, frame = 0
 648              		@ frame_needed = 0, uses_anonymous_args = 0
 649              		@ link register save eliminated.
ARM GAS  /var/folders/n1/76bg37b13ls08p1dhb9rhvd40000gn/T//cc6VEgqh.s 			page 23


 517:Middlewares/Third_Party/FreeRTOS/Source/CMSIS_RTOS/cmsis_os.c **** osStatus result = osOK;
 650              		.loc 1 517 1 view .LVU123
 518:Middlewares/Third_Party/FreeRTOS/Source/CMSIS_RTOS/cmsis_os.c **** 
 519:Middlewares/Third_Party/FreeRTOS/Source/CMSIS_RTOS/cmsis_os.c **** #if (configUSE_TIMERS == 1)
 520:Middlewares/Third_Party/FreeRTOS/Source/CMSIS_RTOS/cmsis_os.c **** 
 521:Middlewares/Third_Party/FreeRTOS/Source/CMSIS_RTOS/cmsis_os.c ****    if (inHandlerMode()) {
 522:Middlewares/Third_Party/FreeRTOS/Source/CMSIS_RTOS/cmsis_os.c ****      return osErrorISR;
 523:Middlewares/Third_Party/FreeRTOS/Source/CMSIS_RTOS/cmsis_os.c ****   }
 524:Middlewares/Third_Party/FreeRTOS/Source/CMSIS_RTOS/cmsis_os.c ****   else { 
 525:Middlewares/Third_Party/FreeRTOS/Source/CMSIS_RTOS/cmsis_os.c ****     if ((xTimerDelete(timer_id, osWaitForever )) != pdPASS) {
 526:Middlewares/Third_Party/FreeRTOS/Source/CMSIS_RTOS/cmsis_os.c ****       result = osErrorOS;
 527:Middlewares/Third_Party/FreeRTOS/Source/CMSIS_RTOS/cmsis_os.c ****     }
 528:Middlewares/Third_Party/FreeRTOS/Source/CMSIS_RTOS/cmsis_os.c ****   } 
 529:Middlewares/Third_Party/FreeRTOS/Source/CMSIS_RTOS/cmsis_os.c ****     
 530:Middlewares/Third_Party/FreeRTOS/Source/CMSIS_RTOS/cmsis_os.c **** #else 
 531:Middlewares/Third_Party/FreeRTOS/Source/CMSIS_RTOS/cmsis_os.c ****   result = osErrorOS;
 651              		.loc 1 531 3 view .LVU124
 532:Middlewares/Third_Party/FreeRTOS/Source/CMSIS_RTOS/cmsis_os.c **** #endif 
 533:Middlewares/Third_Party/FreeRTOS/Source/CMSIS_RTOS/cmsis_os.c ****  
 534:Middlewares/Third_Party/FreeRTOS/Source/CMSIS_RTOS/cmsis_os.c ****   return result;
 652              		.loc 1 534 3 view .LVU125
 535:Middlewares/Third_Party/FreeRTOS/Source/CMSIS_RTOS/cmsis_os.c **** }
 653              		.loc 1 535 1 is_stmt 0 view .LVU126
 654 0000 FF20     		movs	r0, #255
 655              	.LVL45:
 656              		.loc 1 535 1 view .LVU127
 657 0002 7047     		bx	lr
 658              		.cfi_endproc
 659              	.LFE46:
 661              		.section	.text.osSignalSet,"ax",%progbits
 662              		.align	1
 663              		.global	osSignalSet
 664              		.syntax unified
 665              		.thumb
 666              		.thumb_func
 667              		.fpu fpv4-sp-d16
 669              	osSignalSet:
 670              	.LVL46:
 671              	.LFB47:
 536:Middlewares/Third_Party/FreeRTOS/Source/CMSIS_RTOS/cmsis_os.c **** 
 537:Middlewares/Third_Party/FreeRTOS/Source/CMSIS_RTOS/cmsis_os.c **** /***************************  Signal Management ********************************/
 538:Middlewares/Third_Party/FreeRTOS/Source/CMSIS_RTOS/cmsis_os.c **** /**
 539:Middlewares/Third_Party/FreeRTOS/Source/CMSIS_RTOS/cmsis_os.c **** * @brief  Set the specified Signal Flags of an active thread.
 540:Middlewares/Third_Party/FreeRTOS/Source/CMSIS_RTOS/cmsis_os.c **** * @param  thread_id     thread ID obtained by \ref osThreadCreate or \ref osThreadGetId.
 541:Middlewares/Third_Party/FreeRTOS/Source/CMSIS_RTOS/cmsis_os.c **** * @param  signals       specifies the signal flags of the thread that should be set.
 542:Middlewares/Third_Party/FreeRTOS/Source/CMSIS_RTOS/cmsis_os.c **** * @retval previous signal flags of the specified thread or 0x80000000 in case of incorrect paramete
 543:Middlewares/Third_Party/FreeRTOS/Source/CMSIS_RTOS/cmsis_os.c **** * @note   MUST REMAIN UNCHANGED: \b osSignalSet shall be consistent in every CMSIS-RTOS.
 544:Middlewares/Third_Party/FreeRTOS/Source/CMSIS_RTOS/cmsis_os.c **** */
 545:Middlewares/Third_Party/FreeRTOS/Source/CMSIS_RTOS/cmsis_os.c **** int32_t osSignalSet (osThreadId thread_id, int32_t signal)
 546:Middlewares/Third_Party/FreeRTOS/Source/CMSIS_RTOS/cmsis_os.c **** {
 672              		.loc 1 546 1 is_stmt 1 view -0
 673              		.cfi_startproc
 674              		@ args = 0, pretend = 0, frame = 8
 675              		@ frame_needed = 0, uses_anonymous_args = 0
 676              		.loc 1 546 1 is_stmt 0 view .LVU129
 677 0000 30B5     		push	{r4, r5, lr}
 678              	.LCFI12:
ARM GAS  /var/folders/n1/76bg37b13ls08p1dhb9rhvd40000gn/T//cc6VEgqh.s 			page 24


 679              		.cfi_def_cfa_offset 12
 680              		.cfi_offset 4, -12
 681              		.cfi_offset 5, -8
 682              		.cfi_offset 14, -4
 683 0002 85B0     		sub	sp, sp, #20
 684              	.LCFI13:
 685              		.cfi_def_cfa_offset 32
 686 0004 0446     		mov	r4, r0
 687 0006 0D46     		mov	r5, r1
 547:Middlewares/Third_Party/FreeRTOS/Source/CMSIS_RTOS/cmsis_os.c **** #if( configUSE_TASK_NOTIFICATIONS == 1 )	
 548:Middlewares/Third_Party/FreeRTOS/Source/CMSIS_RTOS/cmsis_os.c ****   BaseType_t xHigherPriorityTaskWoken = pdFALSE;
 688              		.loc 1 548 3 is_stmt 1 view .LVU130
 689              		.loc 1 548 14 is_stmt 0 view .LVU131
 690 0008 0023     		movs	r3, #0
 691 000a 0393     		str	r3, [sp, #12]
 549:Middlewares/Third_Party/FreeRTOS/Source/CMSIS_RTOS/cmsis_os.c ****   uint32_t ulPreviousNotificationValue = 0;
 692              		.loc 1 549 3 is_stmt 1 view .LVU132
 693              		.loc 1 549 12 is_stmt 0 view .LVU133
 694 000c 0293     		str	r3, [sp, #8]
 550:Middlewares/Third_Party/FreeRTOS/Source/CMSIS_RTOS/cmsis_os.c ****   
 551:Middlewares/Third_Party/FreeRTOS/Source/CMSIS_RTOS/cmsis_os.c ****   if (inHandlerMode())
 695              		.loc 1 551 3 is_stmt 1 view .LVU134
 696              		.loc 1 551 7 is_stmt 0 view .LVU135
 697 000e FFF7FEFF 		bl	inHandlerMode
 698              	.LVL47:
 699              		.loc 1 551 6 view .LVU136
 700 0012 A0B1     		cbz	r0, .L45
 552:Middlewares/Third_Party/FreeRTOS/Source/CMSIS_RTOS/cmsis_os.c ****   {
 553:Middlewares/Third_Party/FreeRTOS/Source/CMSIS_RTOS/cmsis_os.c ****     if(xTaskGenericNotifyFromISR( thread_id , (uint32_t)signal, eSetBits, &ulPreviousNotificationVa
 701              		.loc 1 553 5 is_stmt 1 view .LVU137
 702              		.loc 1 553 8 is_stmt 0 view .LVU138
 703 0014 03AB     		add	r3, sp, #12
 704 0016 0093     		str	r3, [sp]
 705 0018 02AB     		add	r3, sp, #8
 706 001a 0122     		movs	r2, #1
 707 001c 2946     		mov	r1, r5
 708 001e 2046     		mov	r0, r4
 709 0020 FFF7FEFF 		bl	xTaskGenericNotifyFromISR
 710              	.LVL48:
 711              		.loc 1 553 7 view .LVU139
 712 0024 0128     		cmp	r0, #1
 713 0026 15D1     		bne	.L48
 554:Middlewares/Third_Party/FreeRTOS/Source/CMSIS_RTOS/cmsis_os.c ****       return 0x80000000;
 555:Middlewares/Third_Party/FreeRTOS/Source/CMSIS_RTOS/cmsis_os.c ****     
 556:Middlewares/Third_Party/FreeRTOS/Source/CMSIS_RTOS/cmsis_os.c ****     portYIELD_FROM_ISR( xHigherPriorityTaskWoken );
 714              		.loc 1 556 5 is_stmt 1 view .LVU140
 715 0028 039B     		ldr	r3, [sp, #12]
 716 002a 83B1     		cbz	r3, .L47
 717              		.loc 1 556 5 discriminator 1 view .LVU141
 718 002c 0C4B     		ldr	r3, .L51
 719 002e 4FF08052 		mov	r2, #268435456
 720 0032 1A60     		str	r2, [r3]
 721              		.loc 1 556 5 discriminator 1 view .LVU142
 722              		.syntax unified
 723              	@ 556 "Middlewares/Third_Party/FreeRTOS/Source/CMSIS_RTOS/cmsis_os.c" 1
 724 0034 BFF34F8F 		dsb
 725              	@ 0 "" 2
ARM GAS  /var/folders/n1/76bg37b13ls08p1dhb9rhvd40000gn/T//cc6VEgqh.s 			page 25


 726              		.loc 1 556 5 discriminator 1 view .LVU143
 727              	@ 556 "Middlewares/Third_Party/FreeRTOS/Source/CMSIS_RTOS/cmsis_os.c" 1
 728 0038 BFF36F8F 		isb
 729              	@ 0 "" 2
 730              		.thumb
 731              		.syntax unified
 732 003c 07E0     		b	.L47
 733              	.L45:
 557:Middlewares/Third_Party/FreeRTOS/Source/CMSIS_RTOS/cmsis_os.c ****   }  
 558:Middlewares/Third_Party/FreeRTOS/Source/CMSIS_RTOS/cmsis_os.c ****   else if(xTaskGenericNotify( thread_id , (uint32_t)signal, eSetBits, &ulPreviousNotificationValue)
 734              		.loc 1 558 8 view .LVU144
 735              		.loc 1 558 11 is_stmt 0 view .LVU145
 736 003e 02AB     		add	r3, sp, #8
 737 0040 0122     		movs	r2, #1
 738 0042 2946     		mov	r1, r5
 739 0044 2046     		mov	r0, r4
 740 0046 FFF7FEFF 		bl	xTaskGenericNotify
 741              	.LVL49:
 742              		.loc 1 558 10 view .LVU146
 743 004a 0128     		cmp	r0, #1
 744 004c 05D1     		bne	.L49
 745              	.L47:
 559:Middlewares/Third_Party/FreeRTOS/Source/CMSIS_RTOS/cmsis_os.c ****     return 0x80000000;
 560:Middlewares/Third_Party/FreeRTOS/Source/CMSIS_RTOS/cmsis_os.c ****   
 561:Middlewares/Third_Party/FreeRTOS/Source/CMSIS_RTOS/cmsis_os.c ****   return ulPreviousNotificationValue;
 746              		.loc 1 561 3 is_stmt 1 view .LVU147
 747              		.loc 1 561 10 is_stmt 0 view .LVU148
 748 004e 0298     		ldr	r0, [sp, #8]
 749              	.L44:
 562:Middlewares/Third_Party/FreeRTOS/Source/CMSIS_RTOS/cmsis_os.c **** #else
 563:Middlewares/Third_Party/FreeRTOS/Source/CMSIS_RTOS/cmsis_os.c ****   (void) thread_id;
 564:Middlewares/Third_Party/FreeRTOS/Source/CMSIS_RTOS/cmsis_os.c ****   (void) signal;
 565:Middlewares/Third_Party/FreeRTOS/Source/CMSIS_RTOS/cmsis_os.c **** 
 566:Middlewares/Third_Party/FreeRTOS/Source/CMSIS_RTOS/cmsis_os.c ****   return 0x80000000; /* Task Notification not supported */ 	
 567:Middlewares/Third_Party/FreeRTOS/Source/CMSIS_RTOS/cmsis_os.c **** #endif
 568:Middlewares/Third_Party/FreeRTOS/Source/CMSIS_RTOS/cmsis_os.c **** }
 750              		.loc 1 568 1 view .LVU149
 751 0050 05B0     		add	sp, sp, #20
 752              	.LCFI14:
 753              		.cfi_remember_state
 754              		.cfi_def_cfa_offset 12
 755              		@ sp needed
 756 0052 30BD     		pop	{r4, r5, pc}
 757              	.LVL50:
 758              	.L48:
 759              	.LCFI15:
 760              		.cfi_restore_state
 554:Middlewares/Third_Party/FreeRTOS/Source/CMSIS_RTOS/cmsis_os.c ****     
 761              		.loc 1 554 14 view .LVU150
 762 0054 4FF00040 		mov	r0, #-2147483648
 763 0058 FAE7     		b	.L44
 764              	.L49:
 559:Middlewares/Third_Party/FreeRTOS/Source/CMSIS_RTOS/cmsis_os.c ****     return 0x80000000;
 765              		.loc 1 559 12 view .LVU151
 766 005a 4FF00040 		mov	r0, #-2147483648
 767 005e F7E7     		b	.L44
 768              	.L52:
ARM GAS  /var/folders/n1/76bg37b13ls08p1dhb9rhvd40000gn/T//cc6VEgqh.s 			page 26


 769              		.align	2
 770              	.L51:
 771 0060 04ED00E0 		.word	-536810236
 772              		.cfi_endproc
 773              	.LFE47:
 775              		.section	.text.osSignalWait,"ax",%progbits
 776              		.align	1
 777              		.global	osSignalWait
 778              		.syntax unified
 779              		.thumb
 780              		.thumb_func
 781              		.fpu fpv4-sp-d16
 783              	osSignalWait:
 784              	.LVL51:
 785              	.LFB48:
 569:Middlewares/Third_Party/FreeRTOS/Source/CMSIS_RTOS/cmsis_os.c **** 
 570:Middlewares/Third_Party/FreeRTOS/Source/CMSIS_RTOS/cmsis_os.c **** /**
 571:Middlewares/Third_Party/FreeRTOS/Source/CMSIS_RTOS/cmsis_os.c **** * @brief  Clear the specified Signal Flags of an active thread.
 572:Middlewares/Third_Party/FreeRTOS/Source/CMSIS_RTOS/cmsis_os.c **** * @param  thread_id  thread ID obtained by \ref osThreadCreate or \ref osThreadGetId.
 573:Middlewares/Third_Party/FreeRTOS/Source/CMSIS_RTOS/cmsis_os.c **** * @param  signals    specifies the signal flags of the thread that shall be cleared.
 574:Middlewares/Third_Party/FreeRTOS/Source/CMSIS_RTOS/cmsis_os.c **** * @retval  previous signal flags of the specified thread or 0x80000000 in case of incorrect paramet
 575:Middlewares/Third_Party/FreeRTOS/Source/CMSIS_RTOS/cmsis_os.c **** * @note   MUST REMAIN UNCHANGED: \b osSignalClear shall be consistent in every CMSIS-RTOS.
 576:Middlewares/Third_Party/FreeRTOS/Source/CMSIS_RTOS/cmsis_os.c **** */
 577:Middlewares/Third_Party/FreeRTOS/Source/CMSIS_RTOS/cmsis_os.c **** int32_t osSignalClear (osThreadId thread_id, int32_t signal);
 578:Middlewares/Third_Party/FreeRTOS/Source/CMSIS_RTOS/cmsis_os.c **** 
 579:Middlewares/Third_Party/FreeRTOS/Source/CMSIS_RTOS/cmsis_os.c **** /**
 580:Middlewares/Third_Party/FreeRTOS/Source/CMSIS_RTOS/cmsis_os.c **** * @brief  Wait for one or more Signal Flags to become signaled for the current \b RUNNING thread.
 581:Middlewares/Third_Party/FreeRTOS/Source/CMSIS_RTOS/cmsis_os.c **** * @param  signals   wait until all specified signal flags set or 0 for any single signal flag.
 582:Middlewares/Third_Party/FreeRTOS/Source/CMSIS_RTOS/cmsis_os.c **** * @param  millisec  timeout value or 0 in case of no time-out.
 583:Middlewares/Third_Party/FreeRTOS/Source/CMSIS_RTOS/cmsis_os.c **** * @retval  event flag information or error code.
 584:Middlewares/Third_Party/FreeRTOS/Source/CMSIS_RTOS/cmsis_os.c **** * @note   MUST REMAIN UNCHANGED: \b osSignalWait shall be consistent in every CMSIS-RTOS.
 585:Middlewares/Third_Party/FreeRTOS/Source/CMSIS_RTOS/cmsis_os.c **** */
 586:Middlewares/Third_Party/FreeRTOS/Source/CMSIS_RTOS/cmsis_os.c **** osEvent osSignalWait (int32_t signals, uint32_t millisec)
 587:Middlewares/Third_Party/FreeRTOS/Source/CMSIS_RTOS/cmsis_os.c **** {
 786              		.loc 1 587 1 is_stmt 1 view -0
 787              		.cfi_startproc
 788              		@ args = 0, pretend = 0, frame = 16
 789              		@ frame_needed = 0, uses_anonymous_args = 0
 790              		.loc 1 587 1 is_stmt 0 view .LVU153
 791 0000 70B5     		push	{r4, r5, r6, lr}
 792              	.LCFI16:
 793              		.cfi_def_cfa_offset 16
 794              		.cfi_offset 4, -16
 795              		.cfi_offset 5, -12
 796              		.cfi_offset 6, -8
 797              		.cfi_offset 14, -4
 798 0002 84B0     		sub	sp, sp, #16
 799              	.LCFI17:
 800              		.cfi_def_cfa_offset 32
 801 0004 0446     		mov	r4, r0
 802 0006 0E46     		mov	r6, r1
 588:Middlewares/Third_Party/FreeRTOS/Source/CMSIS_RTOS/cmsis_os.c ****   osEvent ret;
 803              		.loc 1 588 3 is_stmt 1 view .LVU154
 589:Middlewares/Third_Party/FreeRTOS/Source/CMSIS_RTOS/cmsis_os.c **** 
 590:Middlewares/Third_Party/FreeRTOS/Source/CMSIS_RTOS/cmsis_os.c **** #if( configUSE_TASK_NOTIFICATIONS == 1 )
 591:Middlewares/Third_Party/FreeRTOS/Source/CMSIS_RTOS/cmsis_os.c **** 	
 592:Middlewares/Third_Party/FreeRTOS/Source/CMSIS_RTOS/cmsis_os.c ****   TickType_t ticks;
ARM GAS  /var/folders/n1/76bg37b13ls08p1dhb9rhvd40000gn/T//cc6VEgqh.s 			page 27


 804              		.loc 1 592 3 view .LVU155
 593:Middlewares/Third_Party/FreeRTOS/Source/CMSIS_RTOS/cmsis_os.c **** 
 594:Middlewares/Third_Party/FreeRTOS/Source/CMSIS_RTOS/cmsis_os.c ****   ret.value.signals = 0;  
 805              		.loc 1 594 3 view .LVU156
 806              		.loc 1 594 21 is_stmt 0 view .LVU157
 807 0008 0023     		movs	r3, #0
 808 000a 0293     		str	r3, [sp, #8]
 595:Middlewares/Third_Party/FreeRTOS/Source/CMSIS_RTOS/cmsis_os.c ****   ticks = 0;
 809              		.loc 1 595 3 is_stmt 1 view .LVU158
 810              	.LVL52:
 596:Middlewares/Third_Party/FreeRTOS/Source/CMSIS_RTOS/cmsis_os.c ****   if (millisec == osWaitForever) {
 811              		.loc 1 596 3 view .LVU159
 812              		.loc 1 596 6 is_stmt 0 view .LVU160
 813 000c B2F1FF3F 		cmp	r2, #-1
 814 0010 03D0     		beq	.L60
 815 0012 1546     		mov	r5, r2
 597:Middlewares/Third_Party/FreeRTOS/Source/CMSIS_RTOS/cmsis_os.c ****     ticks = portMAX_DELAY;
 598:Middlewares/Third_Party/FreeRTOS/Source/CMSIS_RTOS/cmsis_os.c ****   }
 599:Middlewares/Third_Party/FreeRTOS/Source/CMSIS_RTOS/cmsis_os.c ****   else if (millisec != 0) {
 816              		.loc 1 599 8 is_stmt 1 view .LVU161
 817              		.loc 1 599 11 is_stmt 0 view .LVU162
 818 0014 1AB9     		cbnz	r2, .L54
 595:Middlewares/Third_Party/FreeRTOS/Source/CMSIS_RTOS/cmsis_os.c ****   if (millisec == osWaitForever) {
 819              		.loc 1 595 9 view .LVU163
 820 0016 1D46     		mov	r5, r3
 821 0018 01E0     		b	.L54
 822              	.L60:
 597:Middlewares/Third_Party/FreeRTOS/Source/CMSIS_RTOS/cmsis_os.c ****     ticks = portMAX_DELAY;
 823              		.loc 1 597 11 view .LVU164
 824 001a 4FF0FF35 		mov	r5, #-1
 825              	.L54:
 826              	.LVL53:
 600:Middlewares/Third_Party/FreeRTOS/Source/CMSIS_RTOS/cmsis_os.c ****     ticks = millisec / portTICK_PERIOD_MS;
 601:Middlewares/Third_Party/FreeRTOS/Source/CMSIS_RTOS/cmsis_os.c ****     if (ticks == 0) {
 602:Middlewares/Third_Party/FreeRTOS/Source/CMSIS_RTOS/cmsis_os.c ****       ticks = 1;
 603:Middlewares/Third_Party/FreeRTOS/Source/CMSIS_RTOS/cmsis_os.c ****     }
 604:Middlewares/Third_Party/FreeRTOS/Source/CMSIS_RTOS/cmsis_os.c ****   }  
 605:Middlewares/Third_Party/FreeRTOS/Source/CMSIS_RTOS/cmsis_os.c ****   
 606:Middlewares/Third_Party/FreeRTOS/Source/CMSIS_RTOS/cmsis_os.c ****   if (inHandlerMode())
 827              		.loc 1 606 3 is_stmt 1 view .LVU165
 828              		.loc 1 606 7 is_stmt 0 view .LVU166
 829 001e FFF7FEFF 		bl	inHandlerMode
 830              	.LVL54:
 831              		.loc 1 606 6 view .LVU167
 832 0022 48B1     		cbz	r0, .L55
 607:Middlewares/Third_Party/FreeRTOS/Source/CMSIS_RTOS/cmsis_os.c ****   {
 608:Middlewares/Third_Party/FreeRTOS/Source/CMSIS_RTOS/cmsis_os.c ****     ret.status = osErrorISR;  /*Not allowed in ISR*/
 833              		.loc 1 608 5 is_stmt 1 view .LVU168
 834              		.loc 1 608 16 is_stmt 0 view .LVU169
 835 0024 8223     		movs	r3, #130
 836 0026 0193     		str	r3, [sp, #4]
 837              	.L56:
 609:Middlewares/Third_Party/FreeRTOS/Source/CMSIS_RTOS/cmsis_os.c ****   }
 610:Middlewares/Third_Party/FreeRTOS/Source/CMSIS_RTOS/cmsis_os.c ****   else
 611:Middlewares/Third_Party/FreeRTOS/Source/CMSIS_RTOS/cmsis_os.c ****   {
 612:Middlewares/Third_Party/FreeRTOS/Source/CMSIS_RTOS/cmsis_os.c ****     if(xTaskNotifyWait( 0,(uint32_t) signals, (uint32_t *)&ret.value.signals, ticks) != pdTRUE)
 613:Middlewares/Third_Party/FreeRTOS/Source/CMSIS_RTOS/cmsis_os.c ****     {
ARM GAS  /var/folders/n1/76bg37b13ls08p1dhb9rhvd40000gn/T//cc6VEgqh.s 			page 28


 614:Middlewares/Third_Party/FreeRTOS/Source/CMSIS_RTOS/cmsis_os.c ****       if(ticks == 0)  ret.status = osOK;
 615:Middlewares/Third_Party/FreeRTOS/Source/CMSIS_RTOS/cmsis_os.c ****       else  ret.status = osEventTimeout;
 616:Middlewares/Third_Party/FreeRTOS/Source/CMSIS_RTOS/cmsis_os.c ****     }
 617:Middlewares/Third_Party/FreeRTOS/Source/CMSIS_RTOS/cmsis_os.c ****     else if(ret.value.signals < 0)
 618:Middlewares/Third_Party/FreeRTOS/Source/CMSIS_RTOS/cmsis_os.c ****     {
 619:Middlewares/Third_Party/FreeRTOS/Source/CMSIS_RTOS/cmsis_os.c ****       ret.status =  osErrorValue;     
 620:Middlewares/Third_Party/FreeRTOS/Source/CMSIS_RTOS/cmsis_os.c ****     }
 621:Middlewares/Third_Party/FreeRTOS/Source/CMSIS_RTOS/cmsis_os.c ****     else  ret.status =  osEventSignal;
 622:Middlewares/Third_Party/FreeRTOS/Source/CMSIS_RTOS/cmsis_os.c ****   }
 623:Middlewares/Third_Party/FreeRTOS/Source/CMSIS_RTOS/cmsis_os.c **** #else
 624:Middlewares/Third_Party/FreeRTOS/Source/CMSIS_RTOS/cmsis_os.c ****   (void) signals;
 625:Middlewares/Third_Party/FreeRTOS/Source/CMSIS_RTOS/cmsis_os.c ****   (void) millisec;
 626:Middlewares/Third_Party/FreeRTOS/Source/CMSIS_RTOS/cmsis_os.c **** 	
 627:Middlewares/Third_Party/FreeRTOS/Source/CMSIS_RTOS/cmsis_os.c ****   ret.status =  osErrorOS;	/* Task Notification not supported */
 628:Middlewares/Third_Party/FreeRTOS/Source/CMSIS_RTOS/cmsis_os.c **** #endif
 629:Middlewares/Third_Party/FreeRTOS/Source/CMSIS_RTOS/cmsis_os.c ****   
 630:Middlewares/Third_Party/FreeRTOS/Source/CMSIS_RTOS/cmsis_os.c ****   return ret;
 838              		.loc 1 630 3 is_stmt 1 view .LVU170
 839              		.loc 1 630 10 is_stmt 0 view .LVU171
 840 0028 04AB     		add	r3, sp, #16
 841 002a 13E90700 		ldmdb	r3, {r0, r1, r2}
 842 002e 84E80700 		stm	r4, {r0, r1, r2}
 631:Middlewares/Third_Party/FreeRTOS/Source/CMSIS_RTOS/cmsis_os.c **** }
 843              		.loc 1 631 1 view .LVU172
 844 0032 2046     		mov	r0, r4
 845 0034 04B0     		add	sp, sp, #16
 846              	.LCFI18:
 847              		.cfi_remember_state
 848              		.cfi_def_cfa_offset 16
 849              		@ sp needed
 850 0036 70BD     		pop	{r4, r5, r6, pc}
 851              	.LVL55:
 852              	.L55:
 853              	.LCFI19:
 854              		.cfi_restore_state
 612:Middlewares/Third_Party/FreeRTOS/Source/CMSIS_RTOS/cmsis_os.c ****     {
 855              		.loc 1 612 5 is_stmt 1 view .LVU173
 612:Middlewares/Third_Party/FreeRTOS/Source/CMSIS_RTOS/cmsis_os.c ****     {
 856              		.loc 1 612 8 is_stmt 0 view .LVU174
 857 0038 2B46     		mov	r3, r5
 858 003a 02AA     		add	r2, sp, #8
 859 003c 3146     		mov	r1, r6
 860 003e 0020     		movs	r0, #0
 861 0040 FFF7FEFF 		bl	xTaskNotifyWait
 862              	.LVL56:
 612:Middlewares/Third_Party/FreeRTOS/Source/CMSIS_RTOS/cmsis_os.c ****     {
 863              		.loc 1 612 7 view .LVU175
 864 0044 0128     		cmp	r0, #1
 865 0046 06D0     		beq	.L57
 614:Middlewares/Third_Party/FreeRTOS/Source/CMSIS_RTOS/cmsis_os.c ****       else  ret.status = osEventTimeout;
 866              		.loc 1 614 7 is_stmt 1 view .LVU176
 614:Middlewares/Third_Party/FreeRTOS/Source/CMSIS_RTOS/cmsis_os.c ****       else  ret.status = osEventTimeout;
 867              		.loc 1 614 9 is_stmt 0 view .LVU177
 868 0048 15B9     		cbnz	r5, .L58
 614:Middlewares/Third_Party/FreeRTOS/Source/CMSIS_RTOS/cmsis_os.c ****       else  ret.status = osEventTimeout;
 869              		.loc 1 614 23 is_stmt 1 discriminator 1 view .LVU178
 614:Middlewares/Third_Party/FreeRTOS/Source/CMSIS_RTOS/cmsis_os.c ****       else  ret.status = osEventTimeout;
ARM GAS  /var/folders/n1/76bg37b13ls08p1dhb9rhvd40000gn/T//cc6VEgqh.s 			page 29


 870              		.loc 1 614 34 is_stmt 0 discriminator 1 view .LVU179
 871 004a 0023     		movs	r3, #0
 872 004c 0193     		str	r3, [sp, #4]
 873 004e EBE7     		b	.L56
 874              	.L58:
 615:Middlewares/Third_Party/FreeRTOS/Source/CMSIS_RTOS/cmsis_os.c ****     }
 875              		.loc 1 615 13 is_stmt 1 view .LVU180
 615:Middlewares/Third_Party/FreeRTOS/Source/CMSIS_RTOS/cmsis_os.c ****     }
 876              		.loc 1 615 24 is_stmt 0 view .LVU181
 877 0050 4023     		movs	r3, #64
 878 0052 0193     		str	r3, [sp, #4]
 879 0054 E8E7     		b	.L56
 880              	.L57:
 617:Middlewares/Third_Party/FreeRTOS/Source/CMSIS_RTOS/cmsis_os.c ****     {
 881              		.loc 1 617 10 is_stmt 1 view .LVU182
 617:Middlewares/Third_Party/FreeRTOS/Source/CMSIS_RTOS/cmsis_os.c ****     {
 882              		.loc 1 617 22 is_stmt 0 view .LVU183
 883 0056 029B     		ldr	r3, [sp, #8]
 617:Middlewares/Third_Party/FreeRTOS/Source/CMSIS_RTOS/cmsis_os.c ****     {
 884              		.loc 1 617 12 view .LVU184
 885 0058 002B     		cmp	r3, #0
 886 005a 02DB     		blt	.L62
 621:Middlewares/Third_Party/FreeRTOS/Source/CMSIS_RTOS/cmsis_os.c ****   }
 887              		.loc 1 621 11 is_stmt 1 view .LVU185
 621:Middlewares/Third_Party/FreeRTOS/Source/CMSIS_RTOS/cmsis_os.c ****   }
 888              		.loc 1 621 22 is_stmt 0 view .LVU186
 889 005c 0823     		movs	r3, #8
 890 005e 0193     		str	r3, [sp, #4]
 891 0060 E2E7     		b	.L56
 892              	.L62:
 619:Middlewares/Third_Party/FreeRTOS/Source/CMSIS_RTOS/cmsis_os.c ****     }
 893              		.loc 1 619 7 is_stmt 1 view .LVU187
 619:Middlewares/Third_Party/FreeRTOS/Source/CMSIS_RTOS/cmsis_os.c ****     }
 894              		.loc 1 619 18 is_stmt 0 view .LVU188
 895 0062 8623     		movs	r3, #134
 896 0064 0193     		str	r3, [sp, #4]
 897 0066 DFE7     		b	.L56
 898              		.cfi_endproc
 899              	.LFE48:
 901              		.section	.text.osMutexCreate,"ax",%progbits
 902              		.align	1
 903              		.global	osMutexCreate
 904              		.syntax unified
 905              		.thumb
 906              		.thumb_func
 907              		.fpu fpv4-sp-d16
 909              	osMutexCreate:
 910              	.LVL57:
 911              	.LFB49:
 632:Middlewares/Third_Party/FreeRTOS/Source/CMSIS_RTOS/cmsis_os.c **** 
 633:Middlewares/Third_Party/FreeRTOS/Source/CMSIS_RTOS/cmsis_os.c **** /****************************  Mutex Management ********************************/
 634:Middlewares/Third_Party/FreeRTOS/Source/CMSIS_RTOS/cmsis_os.c **** /**
 635:Middlewares/Third_Party/FreeRTOS/Source/CMSIS_RTOS/cmsis_os.c **** * @brief  Create and Initialize a Mutex object
 636:Middlewares/Third_Party/FreeRTOS/Source/CMSIS_RTOS/cmsis_os.c **** * @param  mutex_def     mutex definition referenced with \ref osMutex.
 637:Middlewares/Third_Party/FreeRTOS/Source/CMSIS_RTOS/cmsis_os.c **** * @retval  mutex ID for reference by other functions or NULL in case of error.
 638:Middlewares/Third_Party/FreeRTOS/Source/CMSIS_RTOS/cmsis_os.c **** * @note   MUST REMAIN UNCHANGED: \b osMutexCreate shall be consistent in every CMSIS-RTOS.
 639:Middlewares/Third_Party/FreeRTOS/Source/CMSIS_RTOS/cmsis_os.c **** */
ARM GAS  /var/folders/n1/76bg37b13ls08p1dhb9rhvd40000gn/T//cc6VEgqh.s 			page 30


 640:Middlewares/Third_Party/FreeRTOS/Source/CMSIS_RTOS/cmsis_os.c **** osMutexId osMutexCreate (const osMutexDef_t *mutex_def)
 641:Middlewares/Third_Party/FreeRTOS/Source/CMSIS_RTOS/cmsis_os.c **** {
 912              		.loc 1 641 1 is_stmt 1 view -0
 913              		.cfi_startproc
 914              		@ args = 0, pretend = 0, frame = 0
 915              		@ frame_needed = 0, uses_anonymous_args = 0
 916              		.loc 1 641 1 is_stmt 0 view .LVU190
 917 0000 08B5     		push	{r3, lr}
 918              	.LCFI20:
 919              		.cfi_def_cfa_offset 8
 920              		.cfi_offset 3, -8
 921              		.cfi_offset 14, -4
 642:Middlewares/Third_Party/FreeRTOS/Source/CMSIS_RTOS/cmsis_os.c **** #if ( configUSE_MUTEXES == 1)
 643:Middlewares/Third_Party/FreeRTOS/Source/CMSIS_RTOS/cmsis_os.c **** 
 644:Middlewares/Third_Party/FreeRTOS/Source/CMSIS_RTOS/cmsis_os.c **** #if( configSUPPORT_STATIC_ALLOCATION == 1 ) && ( configSUPPORT_DYNAMIC_ALLOCATION == 1 )
 645:Middlewares/Third_Party/FreeRTOS/Source/CMSIS_RTOS/cmsis_os.c **** 
 646:Middlewares/Third_Party/FreeRTOS/Source/CMSIS_RTOS/cmsis_os.c ****   if (mutex_def->controlblock != NULL) {
 647:Middlewares/Third_Party/FreeRTOS/Source/CMSIS_RTOS/cmsis_os.c ****     return xSemaphoreCreateMutexStatic( mutex_def->controlblock );
 648:Middlewares/Third_Party/FreeRTOS/Source/CMSIS_RTOS/cmsis_os.c ****      }
 649:Middlewares/Third_Party/FreeRTOS/Source/CMSIS_RTOS/cmsis_os.c ****   else {
 650:Middlewares/Third_Party/FreeRTOS/Source/CMSIS_RTOS/cmsis_os.c ****     return xSemaphoreCreateMutex(); 
 651:Middlewares/Third_Party/FreeRTOS/Source/CMSIS_RTOS/cmsis_os.c ****   }
 652:Middlewares/Third_Party/FreeRTOS/Source/CMSIS_RTOS/cmsis_os.c **** #elif ( configSUPPORT_STATIC_ALLOCATION == 1 )
 653:Middlewares/Third_Party/FreeRTOS/Source/CMSIS_RTOS/cmsis_os.c ****   return xSemaphoreCreateMutexStatic( mutex_def->controlblock );
 654:Middlewares/Third_Party/FreeRTOS/Source/CMSIS_RTOS/cmsis_os.c **** #else  
 655:Middlewares/Third_Party/FreeRTOS/Source/CMSIS_RTOS/cmsis_os.c ****     return xSemaphoreCreateMutex(); 
 922              		.loc 1 655 5 is_stmt 1 view .LVU191
 923              		.loc 1 655 12 is_stmt 0 view .LVU192
 924 0002 0120     		movs	r0, #1
 925              	.LVL58:
 926              		.loc 1 655 12 view .LVU193
 927 0004 FFF7FEFF 		bl	xQueueCreateMutex
 928              	.LVL59:
 656:Middlewares/Third_Party/FreeRTOS/Source/CMSIS_RTOS/cmsis_os.c **** #endif
 657:Middlewares/Third_Party/FreeRTOS/Source/CMSIS_RTOS/cmsis_os.c **** #else
 658:Middlewares/Third_Party/FreeRTOS/Source/CMSIS_RTOS/cmsis_os.c ****   return NULL;
 659:Middlewares/Third_Party/FreeRTOS/Source/CMSIS_RTOS/cmsis_os.c **** #endif
 660:Middlewares/Third_Party/FreeRTOS/Source/CMSIS_RTOS/cmsis_os.c **** }
 929              		.loc 1 660 1 view .LVU194
 930 0008 08BD     		pop	{r3, pc}
 931              		.cfi_endproc
 932              	.LFE49:
 934              		.section	.text.osMutexWait,"ax",%progbits
 935              		.align	1
 936              		.global	osMutexWait
 937              		.syntax unified
 938              		.thumb
 939              		.thumb_func
 940              		.fpu fpv4-sp-d16
 942              	osMutexWait:
 943              	.LVL60:
 944              	.LFB50:
 661:Middlewares/Third_Party/FreeRTOS/Source/CMSIS_RTOS/cmsis_os.c **** 
 662:Middlewares/Third_Party/FreeRTOS/Source/CMSIS_RTOS/cmsis_os.c **** /**
 663:Middlewares/Third_Party/FreeRTOS/Source/CMSIS_RTOS/cmsis_os.c **** * @brief Wait until a Mutex becomes available
 664:Middlewares/Third_Party/FreeRTOS/Source/CMSIS_RTOS/cmsis_os.c **** * @param mutex_id      mutex ID obtained by \ref osMutexCreate.
 665:Middlewares/Third_Party/FreeRTOS/Source/CMSIS_RTOS/cmsis_os.c **** * @param millisec      timeout value or 0 in case of no time-out.
ARM GAS  /var/folders/n1/76bg37b13ls08p1dhb9rhvd40000gn/T//cc6VEgqh.s 			page 31


 666:Middlewares/Third_Party/FreeRTOS/Source/CMSIS_RTOS/cmsis_os.c **** * @retval  status code that indicates the execution status of the function.
 667:Middlewares/Third_Party/FreeRTOS/Source/CMSIS_RTOS/cmsis_os.c **** * @note   MUST REMAIN UNCHANGED: \b osMutexWait shall be consistent in every CMSIS-RTOS.
 668:Middlewares/Third_Party/FreeRTOS/Source/CMSIS_RTOS/cmsis_os.c **** */
 669:Middlewares/Third_Party/FreeRTOS/Source/CMSIS_RTOS/cmsis_os.c **** osStatus osMutexWait (osMutexId mutex_id, uint32_t millisec)
 670:Middlewares/Third_Party/FreeRTOS/Source/CMSIS_RTOS/cmsis_os.c **** {
 945              		.loc 1 670 1 is_stmt 1 view -0
 946              		.cfi_startproc
 947              		@ args = 0, pretend = 0, frame = 8
 948              		@ frame_needed = 0, uses_anonymous_args = 0
 949              		.loc 1 670 1 is_stmt 0 view .LVU196
 950 0000 30B5     		push	{r4, r5, lr}
 951              	.LCFI21:
 952              		.cfi_def_cfa_offset 12
 953              		.cfi_offset 4, -12
 954              		.cfi_offset 5, -8
 955              		.cfi_offset 14, -4
 956 0002 83B0     		sub	sp, sp, #12
 957              	.LCFI22:
 958              		.cfi_def_cfa_offset 24
 671:Middlewares/Third_Party/FreeRTOS/Source/CMSIS_RTOS/cmsis_os.c ****   TickType_t ticks;
 959              		.loc 1 671 3 is_stmt 1 view .LVU197
 672:Middlewares/Third_Party/FreeRTOS/Source/CMSIS_RTOS/cmsis_os.c ****   portBASE_TYPE taskWoken = pdFALSE;  
 960              		.loc 1 672 3 view .LVU198
 961              		.loc 1 672 17 is_stmt 0 view .LVU199
 962 0004 0023     		movs	r3, #0
 963 0006 0193     		str	r3, [sp, #4]
 673:Middlewares/Third_Party/FreeRTOS/Source/CMSIS_RTOS/cmsis_os.c ****   
 674:Middlewares/Third_Party/FreeRTOS/Source/CMSIS_RTOS/cmsis_os.c ****   
 675:Middlewares/Third_Party/FreeRTOS/Source/CMSIS_RTOS/cmsis_os.c ****   if (mutex_id == NULL) {
 964              		.loc 1 675 3 is_stmt 1 view .LVU200
 965              		.loc 1 675 6 is_stmt 0 view .LVU201
 966 0008 50B3     		cbz	r0, .L69
 967 000a 0C46     		mov	r4, r1
 968 000c 0546     		mov	r5, r0
 676:Middlewares/Third_Party/FreeRTOS/Source/CMSIS_RTOS/cmsis_os.c ****     return osErrorParameter;
 677:Middlewares/Third_Party/FreeRTOS/Source/CMSIS_RTOS/cmsis_os.c ****   }
 678:Middlewares/Third_Party/FreeRTOS/Source/CMSIS_RTOS/cmsis_os.c ****   
 679:Middlewares/Third_Party/FreeRTOS/Source/CMSIS_RTOS/cmsis_os.c ****   ticks = 0;
 969              		.loc 1 679 3 is_stmt 1 view .LVU202
 970              	.LVL61:
 680:Middlewares/Third_Party/FreeRTOS/Source/CMSIS_RTOS/cmsis_os.c ****   if (millisec == osWaitForever) {
 971              		.loc 1 680 3 view .LVU203
 972              		.loc 1 680 6 is_stmt 0 view .LVU204
 973 000e B1F1FF3F 		cmp	r1, #-1
 974 0012 02D0     		beq	.L70
 681:Middlewares/Third_Party/FreeRTOS/Source/CMSIS_RTOS/cmsis_os.c ****     ticks = portMAX_DELAY;
 682:Middlewares/Third_Party/FreeRTOS/Source/CMSIS_RTOS/cmsis_os.c ****   }
 683:Middlewares/Third_Party/FreeRTOS/Source/CMSIS_RTOS/cmsis_os.c ****   else if (millisec != 0) {
 975              		.loc 1 683 8 is_stmt 1 view .LVU205
 976              		.loc 1 683 11 is_stmt 0 view .LVU206
 977 0014 19B9     		cbnz	r1, .L67
 679:Middlewares/Third_Party/FreeRTOS/Source/CMSIS_RTOS/cmsis_os.c ****   if (millisec == osWaitForever) {
 978              		.loc 1 679 9 view .LVU207
 979 0016 1C46     		mov	r4, r3
 980 0018 01E0     		b	.L67
 981              	.L70:
 681:Middlewares/Third_Party/FreeRTOS/Source/CMSIS_RTOS/cmsis_os.c ****     ticks = portMAX_DELAY;
ARM GAS  /var/folders/n1/76bg37b13ls08p1dhb9rhvd40000gn/T//cc6VEgqh.s 			page 32


 982              		.loc 1 681 11 view .LVU208
 983 001a 4FF0FF34 		mov	r4, #-1
 984              	.L67:
 985              	.LVL62:
 684:Middlewares/Third_Party/FreeRTOS/Source/CMSIS_RTOS/cmsis_os.c ****     ticks = millisec / portTICK_PERIOD_MS;
 685:Middlewares/Third_Party/FreeRTOS/Source/CMSIS_RTOS/cmsis_os.c ****     if (ticks == 0) {
 686:Middlewares/Third_Party/FreeRTOS/Source/CMSIS_RTOS/cmsis_os.c ****       ticks = 1;
 687:Middlewares/Third_Party/FreeRTOS/Source/CMSIS_RTOS/cmsis_os.c ****     }
 688:Middlewares/Third_Party/FreeRTOS/Source/CMSIS_RTOS/cmsis_os.c ****   }
 689:Middlewares/Third_Party/FreeRTOS/Source/CMSIS_RTOS/cmsis_os.c ****   
 690:Middlewares/Third_Party/FreeRTOS/Source/CMSIS_RTOS/cmsis_os.c ****   if (inHandlerMode()) {
 986              		.loc 1 690 3 is_stmt 1 view .LVU209
 987              		.loc 1 690 7 is_stmt 0 view .LVU210
 988 001e FFF7FEFF 		bl	inHandlerMode
 989              	.LVL63:
 990              		.loc 1 690 6 view .LVU211
 991 0022 90B1     		cbz	r0, .L68
 691:Middlewares/Third_Party/FreeRTOS/Source/CMSIS_RTOS/cmsis_os.c ****     if (xSemaphoreTakeFromISR(mutex_id, &taskWoken) != pdTRUE) {
 992              		.loc 1 691 5 is_stmt 1 view .LVU212
 993              		.loc 1 691 9 is_stmt 0 view .LVU213
 994 0024 01AA     		add	r2, sp, #4
 995 0026 0021     		movs	r1, #0
 996 0028 2846     		mov	r0, r5
 997 002a FFF7FEFF 		bl	xQueueReceiveFromISR
 998              	.LVL64:
 999              		.loc 1 691 8 view .LVU214
 1000 002e 0128     		cmp	r0, #1
 1001 0030 18D1     		bne	.L71
 692:Middlewares/Third_Party/FreeRTOS/Source/CMSIS_RTOS/cmsis_os.c ****       return osErrorOS;
 693:Middlewares/Third_Party/FreeRTOS/Source/CMSIS_RTOS/cmsis_os.c ****     }
 694:Middlewares/Third_Party/FreeRTOS/Source/CMSIS_RTOS/cmsis_os.c **** 	portEND_SWITCHING_ISR(taskWoken);
 1002              		.loc 1 694 2 is_stmt 1 view .LVU215
 1003 0032 019B     		ldr	r3, [sp, #4]
 1004 0034 C3B1     		cbz	r3, .L72
 1005              		.loc 1 694 2 discriminator 1 view .LVU216
 1006 0036 0E4B     		ldr	r3, .L75
 1007 0038 4FF08052 		mov	r2, #268435456
 1008 003c 1A60     		str	r2, [r3]
 1009              		.loc 1 694 2 discriminator 1 view .LVU217
 1010              		.syntax unified
 1011              	@ 694 "Middlewares/Third_Party/FreeRTOS/Source/CMSIS_RTOS/cmsis_os.c" 1
 1012 003e BFF34F8F 		dsb
 1013              	@ 0 "" 2
 1014              		.loc 1 694 2 discriminator 1 view .LVU218
 1015              	@ 694 "Middlewares/Third_Party/FreeRTOS/Source/CMSIS_RTOS/cmsis_os.c" 1
 1016 0042 BFF36F8F 		isb
 1017              	@ 0 "" 2
 695:Middlewares/Third_Party/FreeRTOS/Source/CMSIS_RTOS/cmsis_os.c ****   } 
 696:Middlewares/Third_Party/FreeRTOS/Source/CMSIS_RTOS/cmsis_os.c ****   else if (xSemaphoreTake(mutex_id, ticks) != pdTRUE) {
 697:Middlewares/Third_Party/FreeRTOS/Source/CMSIS_RTOS/cmsis_os.c ****     return osErrorOS;
 698:Middlewares/Third_Party/FreeRTOS/Source/CMSIS_RTOS/cmsis_os.c ****   }
 699:Middlewares/Third_Party/FreeRTOS/Source/CMSIS_RTOS/cmsis_os.c ****   
 700:Middlewares/Third_Party/FreeRTOS/Source/CMSIS_RTOS/cmsis_os.c ****   return osOK;
 1018              		.loc 1 700 10 is_stmt 0 discriminator 1 view .LVU219
 1019              		.thumb
 1020              		.syntax unified
 1021 0046 0020     		movs	r0, #0
ARM GAS  /var/folders/n1/76bg37b13ls08p1dhb9rhvd40000gn/T//cc6VEgqh.s 			page 33


 1022 0048 08E0     		b	.L65
 1023              	.L68:
 696:Middlewares/Third_Party/FreeRTOS/Source/CMSIS_RTOS/cmsis_os.c ****     return osErrorOS;
 1024              		.loc 1 696 8 is_stmt 1 view .LVU220
 696:Middlewares/Third_Party/FreeRTOS/Source/CMSIS_RTOS/cmsis_os.c ****     return osErrorOS;
 1025              		.loc 1 696 12 is_stmt 0 view .LVU221
 1026 004a 0023     		movs	r3, #0
 1027 004c 2246     		mov	r2, r4
 1028 004e 1946     		mov	r1, r3
 1029 0050 2846     		mov	r0, r5
 1030 0052 FFF7FEFF 		bl	xQueueGenericReceive
 1031              	.LVL65:
 696:Middlewares/Third_Party/FreeRTOS/Source/CMSIS_RTOS/cmsis_os.c ****     return osErrorOS;
 1032              		.loc 1 696 11 view .LVU222
 1033 0056 0128     		cmp	r0, #1
 1034 0058 08D1     		bne	.L73
 1035              		.loc 1 700 10 view .LVU223
 1036 005a 0020     		movs	r0, #0
 1037              	.LVL66:
 1038              	.L65:
 701:Middlewares/Third_Party/FreeRTOS/Source/CMSIS_RTOS/cmsis_os.c **** }
 1039              		.loc 1 701 1 view .LVU224
 1040 005c 03B0     		add	sp, sp, #12
 1041              	.LCFI23:
 1042              		.cfi_remember_state
 1043              		.cfi_def_cfa_offset 12
 1044              		@ sp needed
 1045 005e 30BD     		pop	{r4, r5, pc}
 1046              	.LVL67:
 1047              	.L69:
 1048              	.LCFI24:
 1049              		.cfi_restore_state
 676:Middlewares/Third_Party/FreeRTOS/Source/CMSIS_RTOS/cmsis_os.c ****   }
 1050              		.loc 1 676 12 view .LVU225
 1051 0060 8020     		movs	r0, #128
 1052              	.LVL68:
 676:Middlewares/Third_Party/FreeRTOS/Source/CMSIS_RTOS/cmsis_os.c ****   }
 1053              		.loc 1 676 12 view .LVU226
 1054 0062 FBE7     		b	.L65
 1055              	.LVL69:
 1056              	.L71:
 692:Middlewares/Third_Party/FreeRTOS/Source/CMSIS_RTOS/cmsis_os.c ****     }
 1057              		.loc 1 692 14 view .LVU227
 1058 0064 FF20     		movs	r0, #255
 1059 0066 F9E7     		b	.L65
 1060              	.L72:
 700:Middlewares/Third_Party/FreeRTOS/Source/CMSIS_RTOS/cmsis_os.c **** }
 1061              		.loc 1 700 10 view .LVU228
 1062 0068 0020     		movs	r0, #0
 1063 006a F7E7     		b	.L65
 1064              	.L73:
 697:Middlewares/Third_Party/FreeRTOS/Source/CMSIS_RTOS/cmsis_os.c ****   }
 1065              		.loc 1 697 12 view .LVU229
 1066 006c FF20     		movs	r0, #255
 1067 006e F5E7     		b	.L65
 1068              	.L76:
 1069              		.align	2
ARM GAS  /var/folders/n1/76bg37b13ls08p1dhb9rhvd40000gn/T//cc6VEgqh.s 			page 34


 1070              	.L75:
 1071 0070 04ED00E0 		.word	-536810236
 1072              		.cfi_endproc
 1073              	.LFE50:
 1075              		.section	.text.osMutexRelease,"ax",%progbits
 1076              		.align	1
 1077              		.global	osMutexRelease
 1078              		.syntax unified
 1079              		.thumb
 1080              		.thumb_func
 1081              		.fpu fpv4-sp-d16
 1083              	osMutexRelease:
 1084              	.LVL70:
 1085              	.LFB51:
 702:Middlewares/Third_Party/FreeRTOS/Source/CMSIS_RTOS/cmsis_os.c **** 
 703:Middlewares/Third_Party/FreeRTOS/Source/CMSIS_RTOS/cmsis_os.c **** /**
 704:Middlewares/Third_Party/FreeRTOS/Source/CMSIS_RTOS/cmsis_os.c **** * @brief Release a Mutex that was obtained by \ref osMutexWait
 705:Middlewares/Third_Party/FreeRTOS/Source/CMSIS_RTOS/cmsis_os.c **** * @param mutex_id      mutex ID obtained by \ref osMutexCreate.
 706:Middlewares/Third_Party/FreeRTOS/Source/CMSIS_RTOS/cmsis_os.c **** * @retval  status code that indicates the execution status of the function.
 707:Middlewares/Third_Party/FreeRTOS/Source/CMSIS_RTOS/cmsis_os.c **** * @note   MUST REMAIN UNCHANGED: \b osMutexRelease shall be consistent in every CMSIS-RTOS.
 708:Middlewares/Third_Party/FreeRTOS/Source/CMSIS_RTOS/cmsis_os.c **** */
 709:Middlewares/Third_Party/FreeRTOS/Source/CMSIS_RTOS/cmsis_os.c **** osStatus osMutexRelease (osMutexId mutex_id)
 710:Middlewares/Third_Party/FreeRTOS/Source/CMSIS_RTOS/cmsis_os.c **** {
 1086              		.loc 1 710 1 is_stmt 1 view -0
 1087              		.cfi_startproc
 1088              		@ args = 0, pretend = 0, frame = 8
 1089              		@ frame_needed = 0, uses_anonymous_args = 0
 1090              		.loc 1 710 1 is_stmt 0 view .LVU231
 1091 0000 10B5     		push	{r4, lr}
 1092              	.LCFI25:
 1093              		.cfi_def_cfa_offset 8
 1094              		.cfi_offset 4, -8
 1095              		.cfi_offset 14, -4
 1096 0002 82B0     		sub	sp, sp, #8
 1097              	.LCFI26:
 1098              		.cfi_def_cfa_offset 16
 1099 0004 0446     		mov	r4, r0
 711:Middlewares/Third_Party/FreeRTOS/Source/CMSIS_RTOS/cmsis_os.c ****   osStatus result = osOK;
 1100              		.loc 1 711 3 is_stmt 1 view .LVU232
 1101              	.LVL71:
 712:Middlewares/Third_Party/FreeRTOS/Source/CMSIS_RTOS/cmsis_os.c ****   portBASE_TYPE taskWoken = pdFALSE;
 1102              		.loc 1 712 3 view .LVU233
 1103              		.loc 1 712 17 is_stmt 0 view .LVU234
 1104 0006 0023     		movs	r3, #0
 1105 0008 0193     		str	r3, [sp, #4]
 713:Middlewares/Third_Party/FreeRTOS/Source/CMSIS_RTOS/cmsis_os.c ****   
 714:Middlewares/Third_Party/FreeRTOS/Source/CMSIS_RTOS/cmsis_os.c ****   if (inHandlerMode()) {
 1106              		.loc 1 714 3 is_stmt 1 view .LVU235
 1107              		.loc 1 714 7 is_stmt 0 view .LVU236
 1108 000a FFF7FEFF 		bl	inHandlerMode
 1109              	.LVL72:
 1110              		.loc 1 714 6 view .LVU237
 1111 000e 88B1     		cbz	r0, .L78
 715:Middlewares/Third_Party/FreeRTOS/Source/CMSIS_RTOS/cmsis_os.c ****     if (xSemaphoreGiveFromISR(mutex_id, &taskWoken) != pdTRUE) {
 1112              		.loc 1 715 5 is_stmt 1 view .LVU238
 1113              		.loc 1 715 9 is_stmt 0 view .LVU239
 1114 0010 01A9     		add	r1, sp, #4
ARM GAS  /var/folders/n1/76bg37b13ls08p1dhb9rhvd40000gn/T//cc6VEgqh.s 			page 35


 1115 0012 2046     		mov	r0, r4
 1116 0014 FFF7FEFF 		bl	xQueueGiveFromISR
 1117              	.LVL73:
 1118              		.loc 1 715 8 view .LVU240
 1119 0018 0128     		cmp	r0, #1
 1120 001a 18D1     		bne	.L80
 716:Middlewares/Third_Party/FreeRTOS/Source/CMSIS_RTOS/cmsis_os.c ****       return osErrorOS;
 717:Middlewares/Third_Party/FreeRTOS/Source/CMSIS_RTOS/cmsis_os.c ****     }
 718:Middlewares/Third_Party/FreeRTOS/Source/CMSIS_RTOS/cmsis_os.c ****     portEND_SWITCHING_ISR(taskWoken);
 1121              		.loc 1 718 5 is_stmt 1 view .LVU241
 1122 001c 019B     		ldr	r3, [sp, #4]
 1123 001e C3B1     		cbz	r3, .L81
 1124              		.loc 1 718 5 discriminator 1 view .LVU242
 1125 0020 0D4B     		ldr	r3, .L85
 1126 0022 4FF08052 		mov	r2, #268435456
 1127 0026 1A60     		str	r2, [r3]
 1128              		.loc 1 718 5 discriminator 1 view .LVU243
 1129              		.syntax unified
 1130              	@ 718 "Middlewares/Third_Party/FreeRTOS/Source/CMSIS_RTOS/cmsis_os.c" 1
 1131 0028 BFF34F8F 		dsb
 1132              	@ 0 "" 2
 1133              		.loc 1 718 5 discriminator 1 view .LVU244
 1134              	@ 718 "Middlewares/Third_Party/FreeRTOS/Source/CMSIS_RTOS/cmsis_os.c" 1
 1135 002c BFF36F8F 		isb
 1136              	@ 0 "" 2
 711:Middlewares/Third_Party/FreeRTOS/Source/CMSIS_RTOS/cmsis_os.c ****   portBASE_TYPE taskWoken = pdFALSE;
 1137              		.loc 1 711 12 is_stmt 0 discriminator 1 view .LVU245
 1138              		.thumb
 1139              		.syntax unified
 1140 0030 0020     		movs	r0, #0
 1141 0032 08E0     		b	.L77
 1142              	.L78:
 719:Middlewares/Third_Party/FreeRTOS/Source/CMSIS_RTOS/cmsis_os.c ****   }
 720:Middlewares/Third_Party/FreeRTOS/Source/CMSIS_RTOS/cmsis_os.c ****   else if (xSemaphoreGive(mutex_id) != pdTRUE) 
 1143              		.loc 1 720 8 is_stmt 1 view .LVU246
 1144              		.loc 1 720 12 is_stmt 0 view .LVU247
 1145 0034 0023     		movs	r3, #0
 1146 0036 1A46     		mov	r2, r3
 1147 0038 1946     		mov	r1, r3
 1148 003a 2046     		mov	r0, r4
 1149 003c FFF7FEFF 		bl	xQueueGenericSend
 1150              	.LVL74:
 1151              		.loc 1 720 11 view .LVU248
 1152 0040 0128     		cmp	r0, #1
 1153 0042 02D0     		beq	.L84
 721:Middlewares/Third_Party/FreeRTOS/Source/CMSIS_RTOS/cmsis_os.c ****   {
 722:Middlewares/Third_Party/FreeRTOS/Source/CMSIS_RTOS/cmsis_os.c ****     result = osErrorOS;
 1154              		.loc 1 722 12 view .LVU249
 1155 0044 FF20     		movs	r0, #255
 1156              	.L77:
 723:Middlewares/Third_Party/FreeRTOS/Source/CMSIS_RTOS/cmsis_os.c ****   }
 724:Middlewares/Third_Party/FreeRTOS/Source/CMSIS_RTOS/cmsis_os.c ****   return result;
 725:Middlewares/Third_Party/FreeRTOS/Source/CMSIS_RTOS/cmsis_os.c **** }
 1157              		.loc 1 725 1 view .LVU250
 1158 0046 02B0     		add	sp, sp, #8
 1159              	.LCFI27:
 1160              		.cfi_remember_state
ARM GAS  /var/folders/n1/76bg37b13ls08p1dhb9rhvd40000gn/T//cc6VEgqh.s 			page 36


 1161              		.cfi_def_cfa_offset 8
 1162              		@ sp needed
 1163 0048 10BD     		pop	{r4, pc}
 1164              	.LVL75:
 1165              	.L84:
 1166              	.LCFI28:
 1167              		.cfi_restore_state
 711:Middlewares/Third_Party/FreeRTOS/Source/CMSIS_RTOS/cmsis_os.c ****   portBASE_TYPE taskWoken = pdFALSE;
 1168              		.loc 1 711 12 view .LVU251
 1169 004a 0020     		movs	r0, #0
 1170 004c FBE7     		b	.L77
 1171              	.L80:
 716:Middlewares/Third_Party/FreeRTOS/Source/CMSIS_RTOS/cmsis_os.c ****     }
 1172              		.loc 1 716 14 view .LVU252
 1173 004e FF20     		movs	r0, #255
 1174 0050 F9E7     		b	.L77
 1175              	.L81:
 711:Middlewares/Third_Party/FreeRTOS/Source/CMSIS_RTOS/cmsis_os.c ****   portBASE_TYPE taskWoken = pdFALSE;
 1176              		.loc 1 711 12 view .LVU253
 1177 0052 0020     		movs	r0, #0
 1178 0054 F7E7     		b	.L77
 1179              	.L86:
 1180 0056 00BF     		.align	2
 1181              	.L85:
 1182 0058 04ED00E0 		.word	-536810236
 1183              		.cfi_endproc
 1184              	.LFE51:
 1186              		.section	.text.osMutexDelete,"ax",%progbits
 1187              		.align	1
 1188              		.global	osMutexDelete
 1189              		.syntax unified
 1190              		.thumb
 1191              		.thumb_func
 1192              		.fpu fpv4-sp-d16
 1194              	osMutexDelete:
 1195              	.LVL76:
 1196              	.LFB52:
 726:Middlewares/Third_Party/FreeRTOS/Source/CMSIS_RTOS/cmsis_os.c **** 
 727:Middlewares/Third_Party/FreeRTOS/Source/CMSIS_RTOS/cmsis_os.c **** /**
 728:Middlewares/Third_Party/FreeRTOS/Source/CMSIS_RTOS/cmsis_os.c **** * @brief Delete a Mutex
 729:Middlewares/Third_Party/FreeRTOS/Source/CMSIS_RTOS/cmsis_os.c **** * @param mutex_id  mutex ID obtained by \ref osMutexCreate.
 730:Middlewares/Third_Party/FreeRTOS/Source/CMSIS_RTOS/cmsis_os.c **** * @retval  status code that indicates the execution status of the function.
 731:Middlewares/Third_Party/FreeRTOS/Source/CMSIS_RTOS/cmsis_os.c **** * @note   MUST REMAIN UNCHANGED: \b osMutexDelete shall be consistent in every CMSIS-RTOS.
 732:Middlewares/Third_Party/FreeRTOS/Source/CMSIS_RTOS/cmsis_os.c **** */
 733:Middlewares/Third_Party/FreeRTOS/Source/CMSIS_RTOS/cmsis_os.c **** osStatus osMutexDelete (osMutexId mutex_id)
 734:Middlewares/Third_Party/FreeRTOS/Source/CMSIS_RTOS/cmsis_os.c **** {
 1197              		.loc 1 734 1 is_stmt 1 view -0
 1198              		.cfi_startproc
 1199              		@ args = 0, pretend = 0, frame = 0
 1200              		@ frame_needed = 0, uses_anonymous_args = 0
 1201              		.loc 1 734 1 is_stmt 0 view .LVU255
 1202 0000 10B5     		push	{r4, lr}
 1203              	.LCFI29:
 1204              		.cfi_def_cfa_offset 8
 1205              		.cfi_offset 4, -8
 1206              		.cfi_offset 14, -4
 1207 0002 0446     		mov	r4, r0
ARM GAS  /var/folders/n1/76bg37b13ls08p1dhb9rhvd40000gn/T//cc6VEgqh.s 			page 37


 735:Middlewares/Third_Party/FreeRTOS/Source/CMSIS_RTOS/cmsis_os.c ****   if (inHandlerMode()) {
 1208              		.loc 1 735 3 is_stmt 1 view .LVU256
 1209              		.loc 1 735 7 is_stmt 0 view .LVU257
 1210 0004 FFF7FEFF 		bl	inHandlerMode
 1211              	.LVL77:
 1212              		.loc 1 735 6 view .LVU258
 1213 0008 20B9     		cbnz	r0, .L89
 736:Middlewares/Third_Party/FreeRTOS/Source/CMSIS_RTOS/cmsis_os.c ****     return osErrorISR;
 737:Middlewares/Third_Party/FreeRTOS/Source/CMSIS_RTOS/cmsis_os.c ****   }
 738:Middlewares/Third_Party/FreeRTOS/Source/CMSIS_RTOS/cmsis_os.c **** 
 739:Middlewares/Third_Party/FreeRTOS/Source/CMSIS_RTOS/cmsis_os.c ****   vQueueDelete(mutex_id);
 1214              		.loc 1 739 3 is_stmt 1 view .LVU259
 1215 000a 2046     		mov	r0, r4
 1216 000c FFF7FEFF 		bl	vQueueDelete
 1217              	.LVL78:
 740:Middlewares/Third_Party/FreeRTOS/Source/CMSIS_RTOS/cmsis_os.c **** 
 741:Middlewares/Third_Party/FreeRTOS/Source/CMSIS_RTOS/cmsis_os.c ****   return osOK;
 1218              		.loc 1 741 3 view .LVU260
 1219              		.loc 1 741 10 is_stmt 0 view .LVU261
 1220 0010 0020     		movs	r0, #0
 1221              	.L87:
 742:Middlewares/Third_Party/FreeRTOS/Source/CMSIS_RTOS/cmsis_os.c **** }
 1222              		.loc 1 742 1 view .LVU262
 1223 0012 10BD     		pop	{r4, pc}
 1224              	.LVL79:
 1225              	.L89:
 736:Middlewares/Third_Party/FreeRTOS/Source/CMSIS_RTOS/cmsis_os.c ****     return osErrorISR;
 1226              		.loc 1 736 12 view .LVU263
 1227 0014 8220     		movs	r0, #130
 1228 0016 FCE7     		b	.L87
 1229              		.cfi_endproc
 1230              	.LFE52:
 1232              		.section	.text.osSemaphoreCreate,"ax",%progbits
 1233              		.align	1
 1234              		.global	osSemaphoreCreate
 1235              		.syntax unified
 1236              		.thumb
 1237              		.thumb_func
 1238              		.fpu fpv4-sp-d16
 1240              	osSemaphoreCreate:
 1241              	.LVL80:
 1242              	.LFB53:
 743:Middlewares/Third_Party/FreeRTOS/Source/CMSIS_RTOS/cmsis_os.c **** 
 744:Middlewares/Third_Party/FreeRTOS/Source/CMSIS_RTOS/cmsis_os.c **** /********************  Semaphore Management Functions **************************/
 745:Middlewares/Third_Party/FreeRTOS/Source/CMSIS_RTOS/cmsis_os.c **** 
 746:Middlewares/Third_Party/FreeRTOS/Source/CMSIS_RTOS/cmsis_os.c **** #if (defined (osFeature_Semaphore)  &&  (osFeature_Semaphore != 0))
 747:Middlewares/Third_Party/FreeRTOS/Source/CMSIS_RTOS/cmsis_os.c **** 
 748:Middlewares/Third_Party/FreeRTOS/Source/CMSIS_RTOS/cmsis_os.c **** /**
 749:Middlewares/Third_Party/FreeRTOS/Source/CMSIS_RTOS/cmsis_os.c **** * @brief Create and Initialize a Semaphore object used for managing resources
 750:Middlewares/Third_Party/FreeRTOS/Source/CMSIS_RTOS/cmsis_os.c **** * @param semaphore_def semaphore definition referenced with \ref osSemaphore.
 751:Middlewares/Third_Party/FreeRTOS/Source/CMSIS_RTOS/cmsis_os.c **** * @param count         number of available resources.
 752:Middlewares/Third_Party/FreeRTOS/Source/CMSIS_RTOS/cmsis_os.c **** * @retval  semaphore ID for reference by other functions or NULL in case of error.
 753:Middlewares/Third_Party/FreeRTOS/Source/CMSIS_RTOS/cmsis_os.c **** * @note   MUST REMAIN UNCHANGED: \b osSemaphoreCreate shall be consistent in every CMSIS-RTOS.
 754:Middlewares/Third_Party/FreeRTOS/Source/CMSIS_RTOS/cmsis_os.c **** */
 755:Middlewares/Third_Party/FreeRTOS/Source/CMSIS_RTOS/cmsis_os.c **** osSemaphoreId osSemaphoreCreate (const osSemaphoreDef_t *semaphore_def, int32_t count)
 756:Middlewares/Third_Party/FreeRTOS/Source/CMSIS_RTOS/cmsis_os.c **** { 
 1243              		.loc 1 756 1 is_stmt 1 view -0
ARM GAS  /var/folders/n1/76bg37b13ls08p1dhb9rhvd40000gn/T//cc6VEgqh.s 			page 38


 1244              		.cfi_startproc
 1245              		@ args = 0, pretend = 0, frame = 0
 1246              		@ frame_needed = 0, uses_anonymous_args = 0
 1247              		.loc 1 756 1 is_stmt 0 view .LVU265
 1248 0000 10B5     		push	{r4, lr}
 1249              	.LCFI30:
 1250              		.cfi_def_cfa_offset 8
 1251              		.cfi_offset 4, -8
 1252              		.cfi_offset 14, -4
 757:Middlewares/Third_Party/FreeRTOS/Source/CMSIS_RTOS/cmsis_os.c **** #if( configSUPPORT_STATIC_ALLOCATION == 1 ) && ( configSUPPORT_DYNAMIC_ALLOCATION == 1 )
 758:Middlewares/Third_Party/FreeRTOS/Source/CMSIS_RTOS/cmsis_os.c **** 
 759:Middlewares/Third_Party/FreeRTOS/Source/CMSIS_RTOS/cmsis_os.c ****   osSemaphoreId sema;
 760:Middlewares/Third_Party/FreeRTOS/Source/CMSIS_RTOS/cmsis_os.c ****   
 761:Middlewares/Third_Party/FreeRTOS/Source/CMSIS_RTOS/cmsis_os.c ****   if (semaphore_def->controlblock != NULL){
 762:Middlewares/Third_Party/FreeRTOS/Source/CMSIS_RTOS/cmsis_os.c ****     if (count == 1) {
 763:Middlewares/Third_Party/FreeRTOS/Source/CMSIS_RTOS/cmsis_os.c ****       return xSemaphoreCreateBinaryStatic( semaphore_def->controlblock );
 764:Middlewares/Third_Party/FreeRTOS/Source/CMSIS_RTOS/cmsis_os.c ****     }
 765:Middlewares/Third_Party/FreeRTOS/Source/CMSIS_RTOS/cmsis_os.c ****     else {
 766:Middlewares/Third_Party/FreeRTOS/Source/CMSIS_RTOS/cmsis_os.c **** #if (configUSE_COUNTING_SEMAPHORES == 1 )
 767:Middlewares/Third_Party/FreeRTOS/Source/CMSIS_RTOS/cmsis_os.c ****       return xSemaphoreCreateCountingStatic( count, count, semaphore_def->controlblock );
 768:Middlewares/Third_Party/FreeRTOS/Source/CMSIS_RTOS/cmsis_os.c **** #else
 769:Middlewares/Third_Party/FreeRTOS/Source/CMSIS_RTOS/cmsis_os.c ****       return NULL;
 770:Middlewares/Third_Party/FreeRTOS/Source/CMSIS_RTOS/cmsis_os.c **** #endif
 771:Middlewares/Third_Party/FreeRTOS/Source/CMSIS_RTOS/cmsis_os.c ****     }
 772:Middlewares/Third_Party/FreeRTOS/Source/CMSIS_RTOS/cmsis_os.c ****   }
 773:Middlewares/Third_Party/FreeRTOS/Source/CMSIS_RTOS/cmsis_os.c ****   else {
 774:Middlewares/Third_Party/FreeRTOS/Source/CMSIS_RTOS/cmsis_os.c ****     if (count == 1) {
 775:Middlewares/Third_Party/FreeRTOS/Source/CMSIS_RTOS/cmsis_os.c ****       vSemaphoreCreateBinary(sema);
 776:Middlewares/Third_Party/FreeRTOS/Source/CMSIS_RTOS/cmsis_os.c ****       return sema;
 777:Middlewares/Third_Party/FreeRTOS/Source/CMSIS_RTOS/cmsis_os.c ****     }
 778:Middlewares/Third_Party/FreeRTOS/Source/CMSIS_RTOS/cmsis_os.c ****     else {
 779:Middlewares/Third_Party/FreeRTOS/Source/CMSIS_RTOS/cmsis_os.c **** #if (configUSE_COUNTING_SEMAPHORES == 1 )	
 780:Middlewares/Third_Party/FreeRTOS/Source/CMSIS_RTOS/cmsis_os.c ****       return xSemaphoreCreateCounting(count, count);
 781:Middlewares/Third_Party/FreeRTOS/Source/CMSIS_RTOS/cmsis_os.c **** #else
 782:Middlewares/Third_Party/FreeRTOS/Source/CMSIS_RTOS/cmsis_os.c ****       return NULL;
 783:Middlewares/Third_Party/FreeRTOS/Source/CMSIS_RTOS/cmsis_os.c **** #endif    
 784:Middlewares/Third_Party/FreeRTOS/Source/CMSIS_RTOS/cmsis_os.c ****     }
 785:Middlewares/Third_Party/FreeRTOS/Source/CMSIS_RTOS/cmsis_os.c ****   }
 786:Middlewares/Third_Party/FreeRTOS/Source/CMSIS_RTOS/cmsis_os.c **** #elif ( configSUPPORT_STATIC_ALLOCATION == 1 ) // configSUPPORT_DYNAMIC_ALLOCATION == 0
 787:Middlewares/Third_Party/FreeRTOS/Source/CMSIS_RTOS/cmsis_os.c ****   if(count == 1) {
 788:Middlewares/Third_Party/FreeRTOS/Source/CMSIS_RTOS/cmsis_os.c ****     return xSemaphoreCreateBinaryStatic( semaphore_def->controlblock );
 789:Middlewares/Third_Party/FreeRTOS/Source/CMSIS_RTOS/cmsis_os.c ****   }
 790:Middlewares/Third_Party/FreeRTOS/Source/CMSIS_RTOS/cmsis_os.c ****   else
 791:Middlewares/Third_Party/FreeRTOS/Source/CMSIS_RTOS/cmsis_os.c ****   {
 792:Middlewares/Third_Party/FreeRTOS/Source/CMSIS_RTOS/cmsis_os.c **** #if (configUSE_COUNTING_SEMAPHORES == 1 )
 793:Middlewares/Third_Party/FreeRTOS/Source/CMSIS_RTOS/cmsis_os.c ****       return xSemaphoreCreateCountingStatic( count, count, semaphore_def->controlblock );
 794:Middlewares/Third_Party/FreeRTOS/Source/CMSIS_RTOS/cmsis_os.c **** #else
 795:Middlewares/Third_Party/FreeRTOS/Source/CMSIS_RTOS/cmsis_os.c ****       return NULL;
 796:Middlewares/Third_Party/FreeRTOS/Source/CMSIS_RTOS/cmsis_os.c **** #endif    
 797:Middlewares/Third_Party/FreeRTOS/Source/CMSIS_RTOS/cmsis_os.c ****   }
 798:Middlewares/Third_Party/FreeRTOS/Source/CMSIS_RTOS/cmsis_os.c **** #else  // configSUPPORT_STATIC_ALLOCATION == 0  && configSUPPORT_DYNAMIC_ALLOCATION == 1
 799:Middlewares/Third_Party/FreeRTOS/Source/CMSIS_RTOS/cmsis_os.c ****   osSemaphoreId sema;
 1253              		.loc 1 799 3 is_stmt 1 view .LVU266
 800:Middlewares/Third_Party/FreeRTOS/Source/CMSIS_RTOS/cmsis_os.c ****  
 801:Middlewares/Third_Party/FreeRTOS/Source/CMSIS_RTOS/cmsis_os.c ****   if (count == 1) {
 1254              		.loc 1 801 3 view .LVU267
 1255              		.loc 1 801 6 is_stmt 0 view .LVU268
ARM GAS  /var/folders/n1/76bg37b13ls08p1dhb9rhvd40000gn/T//cc6VEgqh.s 			page 39


 1256 0002 0129     		cmp	r1, #1
 1257 0004 02D0     		beq	.L96
 802:Middlewares/Third_Party/FreeRTOS/Source/CMSIS_RTOS/cmsis_os.c ****     vSemaphoreCreateBinary(sema);
 803:Middlewares/Third_Party/FreeRTOS/Source/CMSIS_RTOS/cmsis_os.c ****     return sema;
 804:Middlewares/Third_Party/FreeRTOS/Source/CMSIS_RTOS/cmsis_os.c ****   }
 805:Middlewares/Third_Party/FreeRTOS/Source/CMSIS_RTOS/cmsis_os.c ****   else {
 806:Middlewares/Third_Party/FreeRTOS/Source/CMSIS_RTOS/cmsis_os.c **** #if (configUSE_COUNTING_SEMAPHORES == 1 )	
 807:Middlewares/Third_Party/FreeRTOS/Source/CMSIS_RTOS/cmsis_os.c ****     return xSemaphoreCreateCounting(count, count);
 808:Middlewares/Third_Party/FreeRTOS/Source/CMSIS_RTOS/cmsis_os.c **** #else
 809:Middlewares/Third_Party/FreeRTOS/Source/CMSIS_RTOS/cmsis_os.c ****     return NULL;
 1258              		.loc 1 809 12 view .LVU269
 1259 0006 0024     		movs	r4, #0
 1260              	.LVL81:
 1261              	.L91:
 810:Middlewares/Third_Party/FreeRTOS/Source/CMSIS_RTOS/cmsis_os.c **** #endif
 811:Middlewares/Third_Party/FreeRTOS/Source/CMSIS_RTOS/cmsis_os.c ****   }
 812:Middlewares/Third_Party/FreeRTOS/Source/CMSIS_RTOS/cmsis_os.c **** #endif
 813:Middlewares/Third_Party/FreeRTOS/Source/CMSIS_RTOS/cmsis_os.c **** }
 1262              		.loc 1 813 1 view .LVU270
 1263 0008 2046     		mov	r0, r4
 1264 000a 10BD     		pop	{r4, pc}
 1265              	.LVL82:
 1266              	.L96:
 802:Middlewares/Third_Party/FreeRTOS/Source/CMSIS_RTOS/cmsis_os.c ****     vSemaphoreCreateBinary(sema);
 1267              		.loc 1 802 5 is_stmt 1 view .LVU271
 1268 000c 0322     		movs	r2, #3
 1269 000e 0021     		movs	r1, #0
 1270              	.LVL83:
 802:Middlewares/Third_Party/FreeRTOS/Source/CMSIS_RTOS/cmsis_os.c ****     vSemaphoreCreateBinary(sema);
 1271              		.loc 1 802 5 is_stmt 0 view .LVU272
 1272 0010 0120     		movs	r0, #1
 1273              	.LVL84:
 802:Middlewares/Third_Party/FreeRTOS/Source/CMSIS_RTOS/cmsis_os.c ****     vSemaphoreCreateBinary(sema);
 1274              		.loc 1 802 5 view .LVU273
 1275 0012 FFF7FEFF 		bl	xQueueGenericCreate
 1276              	.LVL85:
 802:Middlewares/Third_Party/FreeRTOS/Source/CMSIS_RTOS/cmsis_os.c ****     vSemaphoreCreateBinary(sema);
 1277              		.loc 1 802 5 is_stmt 1 view .LVU274
 1278 0016 0446     		mov	r4, r0
 1279 0018 0028     		cmp	r0, #0
 1280 001a F5D0     		beq	.L91
 802:Middlewares/Third_Party/FreeRTOS/Source/CMSIS_RTOS/cmsis_os.c ****     vSemaphoreCreateBinary(sema);
 1281              		.loc 1 802 5 discriminator 1 view .LVU275
 1282 001c 0023     		movs	r3, #0
 1283 001e 1A46     		mov	r2, r3
 1284 0020 1946     		mov	r1, r3
 1285 0022 FFF7FEFF 		bl	xQueueGenericSend
 1286              	.LVL86:
 802:Middlewares/Third_Party/FreeRTOS/Source/CMSIS_RTOS/cmsis_os.c ****     vSemaphoreCreateBinary(sema);
 1287              		.loc 1 802 33 discriminator 1 view .LVU276
 803:Middlewares/Third_Party/FreeRTOS/Source/CMSIS_RTOS/cmsis_os.c ****   }
 1288              		.loc 1 803 5 discriminator 1 view .LVU277
 803:Middlewares/Third_Party/FreeRTOS/Source/CMSIS_RTOS/cmsis_os.c ****   }
 1289              		.loc 1 803 12 is_stmt 0 discriminator 1 view .LVU278
 1290 0026 EFE7     		b	.L91
 1291              		.cfi_endproc
 1292              	.LFE53:
ARM GAS  /var/folders/n1/76bg37b13ls08p1dhb9rhvd40000gn/T//cc6VEgqh.s 			page 40


 1294              		.section	.text.osSemaphoreWait,"ax",%progbits
 1295              		.align	1
 1296              		.global	osSemaphoreWait
 1297              		.syntax unified
 1298              		.thumb
 1299              		.thumb_func
 1300              		.fpu fpv4-sp-d16
 1302              	osSemaphoreWait:
 1303              	.LVL87:
 1304              	.LFB54:
 814:Middlewares/Third_Party/FreeRTOS/Source/CMSIS_RTOS/cmsis_os.c **** 
 815:Middlewares/Third_Party/FreeRTOS/Source/CMSIS_RTOS/cmsis_os.c **** /**
 816:Middlewares/Third_Party/FreeRTOS/Source/CMSIS_RTOS/cmsis_os.c **** * @brief Wait until a Semaphore token becomes available
 817:Middlewares/Third_Party/FreeRTOS/Source/CMSIS_RTOS/cmsis_os.c **** * @param  semaphore_id  semaphore object referenced with \ref osSemaphore.
 818:Middlewares/Third_Party/FreeRTOS/Source/CMSIS_RTOS/cmsis_os.c **** * @param  millisec      timeout value or 0 in case of no time-out.
 819:Middlewares/Third_Party/FreeRTOS/Source/CMSIS_RTOS/cmsis_os.c **** * @retval  number of available tokens, or -1 in case of incorrect parameters.
 820:Middlewares/Third_Party/FreeRTOS/Source/CMSIS_RTOS/cmsis_os.c **** * @note   MUST REMAIN UNCHANGED: \b osSemaphoreWait shall be consistent in every CMSIS-RTOS.
 821:Middlewares/Third_Party/FreeRTOS/Source/CMSIS_RTOS/cmsis_os.c **** */
 822:Middlewares/Third_Party/FreeRTOS/Source/CMSIS_RTOS/cmsis_os.c **** int32_t osSemaphoreWait (osSemaphoreId semaphore_id, uint32_t millisec)
 823:Middlewares/Third_Party/FreeRTOS/Source/CMSIS_RTOS/cmsis_os.c **** {
 1305              		.loc 1 823 1 is_stmt 1 view -0
 1306              		.cfi_startproc
 1307              		@ args = 0, pretend = 0, frame = 8
 1308              		@ frame_needed = 0, uses_anonymous_args = 0
 1309              		.loc 1 823 1 is_stmt 0 view .LVU280
 1310 0000 30B5     		push	{r4, r5, lr}
 1311              	.LCFI31:
 1312              		.cfi_def_cfa_offset 12
 1313              		.cfi_offset 4, -12
 1314              		.cfi_offset 5, -8
 1315              		.cfi_offset 14, -4
 1316 0002 83B0     		sub	sp, sp, #12
 1317              	.LCFI32:
 1318              		.cfi_def_cfa_offset 24
 824:Middlewares/Third_Party/FreeRTOS/Source/CMSIS_RTOS/cmsis_os.c ****   TickType_t ticks;
 1319              		.loc 1 824 3 is_stmt 1 view .LVU281
 825:Middlewares/Third_Party/FreeRTOS/Source/CMSIS_RTOS/cmsis_os.c ****   portBASE_TYPE taskWoken = pdFALSE;  
 1320              		.loc 1 825 3 view .LVU282
 1321              		.loc 1 825 17 is_stmt 0 view .LVU283
 1322 0004 0023     		movs	r3, #0
 1323 0006 0193     		str	r3, [sp, #4]
 826:Middlewares/Third_Party/FreeRTOS/Source/CMSIS_RTOS/cmsis_os.c ****   
 827:Middlewares/Third_Party/FreeRTOS/Source/CMSIS_RTOS/cmsis_os.c ****   
 828:Middlewares/Third_Party/FreeRTOS/Source/CMSIS_RTOS/cmsis_os.c ****   if (semaphore_id == NULL) {
 1324              		.loc 1 828 3 is_stmt 1 view .LVU284
 1325              		.loc 1 828 6 is_stmt 0 view .LVU285
 1326 0008 50B3     		cbz	r0, .L101
 1327 000a 0C46     		mov	r4, r1
 1328 000c 0546     		mov	r5, r0
 829:Middlewares/Third_Party/FreeRTOS/Source/CMSIS_RTOS/cmsis_os.c ****     return osErrorParameter;
 830:Middlewares/Third_Party/FreeRTOS/Source/CMSIS_RTOS/cmsis_os.c ****   }
 831:Middlewares/Third_Party/FreeRTOS/Source/CMSIS_RTOS/cmsis_os.c ****   
 832:Middlewares/Third_Party/FreeRTOS/Source/CMSIS_RTOS/cmsis_os.c ****   ticks = 0;
 1329              		.loc 1 832 3 is_stmt 1 view .LVU286
 1330              	.LVL88:
 833:Middlewares/Third_Party/FreeRTOS/Source/CMSIS_RTOS/cmsis_os.c ****   if (millisec == osWaitForever) {
 1331              		.loc 1 833 3 view .LVU287
ARM GAS  /var/folders/n1/76bg37b13ls08p1dhb9rhvd40000gn/T//cc6VEgqh.s 			page 41


 1332              		.loc 1 833 6 is_stmt 0 view .LVU288
 1333 000e B1F1FF3F 		cmp	r1, #-1
 1334 0012 02D0     		beq	.L102
 834:Middlewares/Third_Party/FreeRTOS/Source/CMSIS_RTOS/cmsis_os.c ****     ticks = portMAX_DELAY;
 835:Middlewares/Third_Party/FreeRTOS/Source/CMSIS_RTOS/cmsis_os.c ****   }
 836:Middlewares/Third_Party/FreeRTOS/Source/CMSIS_RTOS/cmsis_os.c ****   else if (millisec != 0) {
 1335              		.loc 1 836 8 is_stmt 1 view .LVU289
 1336              		.loc 1 836 11 is_stmt 0 view .LVU290
 1337 0014 19B9     		cbnz	r1, .L99
 832:Middlewares/Third_Party/FreeRTOS/Source/CMSIS_RTOS/cmsis_os.c ****   if (millisec == osWaitForever) {
 1338              		.loc 1 832 9 view .LVU291
 1339 0016 1C46     		mov	r4, r3
 1340 0018 01E0     		b	.L99
 1341              	.L102:
 834:Middlewares/Third_Party/FreeRTOS/Source/CMSIS_RTOS/cmsis_os.c ****     ticks = portMAX_DELAY;
 1342              		.loc 1 834 11 view .LVU292
 1343 001a 4FF0FF34 		mov	r4, #-1
 1344              	.L99:
 1345              	.LVL89:
 837:Middlewares/Third_Party/FreeRTOS/Source/CMSIS_RTOS/cmsis_os.c ****     ticks = millisec / portTICK_PERIOD_MS;
 838:Middlewares/Third_Party/FreeRTOS/Source/CMSIS_RTOS/cmsis_os.c ****     if (ticks == 0) {
 839:Middlewares/Third_Party/FreeRTOS/Source/CMSIS_RTOS/cmsis_os.c ****       ticks = 1;
 840:Middlewares/Third_Party/FreeRTOS/Source/CMSIS_RTOS/cmsis_os.c ****     }
 841:Middlewares/Third_Party/FreeRTOS/Source/CMSIS_RTOS/cmsis_os.c ****   }
 842:Middlewares/Third_Party/FreeRTOS/Source/CMSIS_RTOS/cmsis_os.c ****   
 843:Middlewares/Third_Party/FreeRTOS/Source/CMSIS_RTOS/cmsis_os.c ****   if (inHandlerMode()) {
 1346              		.loc 1 843 3 is_stmt 1 view .LVU293
 1347              		.loc 1 843 7 is_stmt 0 view .LVU294
 1348 001e FFF7FEFF 		bl	inHandlerMode
 1349              	.LVL90:
 1350              		.loc 1 843 6 view .LVU295
 1351 0022 90B1     		cbz	r0, .L100
 844:Middlewares/Third_Party/FreeRTOS/Source/CMSIS_RTOS/cmsis_os.c ****     if (xSemaphoreTakeFromISR(semaphore_id, &taskWoken) != pdTRUE) {
 1352              		.loc 1 844 5 is_stmt 1 view .LVU296
 1353              		.loc 1 844 9 is_stmt 0 view .LVU297
 1354 0024 01AA     		add	r2, sp, #4
 1355 0026 0021     		movs	r1, #0
 1356 0028 2846     		mov	r0, r5
 1357 002a FFF7FEFF 		bl	xQueueReceiveFromISR
 1358              	.LVL91:
 1359              		.loc 1 844 8 view .LVU298
 1360 002e 0128     		cmp	r0, #1
 1361 0030 18D1     		bne	.L103
 845:Middlewares/Third_Party/FreeRTOS/Source/CMSIS_RTOS/cmsis_os.c ****       return osErrorOS;
 846:Middlewares/Third_Party/FreeRTOS/Source/CMSIS_RTOS/cmsis_os.c ****     }
 847:Middlewares/Third_Party/FreeRTOS/Source/CMSIS_RTOS/cmsis_os.c **** 	portEND_SWITCHING_ISR(taskWoken);
 1362              		.loc 1 847 2 is_stmt 1 view .LVU299
 1363 0032 019B     		ldr	r3, [sp, #4]
 1364 0034 C3B1     		cbz	r3, .L104
 1365              		.loc 1 847 2 discriminator 1 view .LVU300
 1366 0036 0E4B     		ldr	r3, .L107
 1367 0038 4FF08052 		mov	r2, #268435456
 1368 003c 1A60     		str	r2, [r3]
 1369              		.loc 1 847 2 discriminator 1 view .LVU301
 1370              		.syntax unified
 1371              	@ 847 "Middlewares/Third_Party/FreeRTOS/Source/CMSIS_RTOS/cmsis_os.c" 1
 1372 003e BFF34F8F 		dsb
ARM GAS  /var/folders/n1/76bg37b13ls08p1dhb9rhvd40000gn/T//cc6VEgqh.s 			page 42


 1373              	@ 0 "" 2
 1374              		.loc 1 847 2 discriminator 1 view .LVU302
 1375              	@ 847 "Middlewares/Third_Party/FreeRTOS/Source/CMSIS_RTOS/cmsis_os.c" 1
 1376 0042 BFF36F8F 		isb
 1377              	@ 0 "" 2
 848:Middlewares/Third_Party/FreeRTOS/Source/CMSIS_RTOS/cmsis_os.c ****   }  
 849:Middlewares/Third_Party/FreeRTOS/Source/CMSIS_RTOS/cmsis_os.c ****   else if (xSemaphoreTake(semaphore_id, ticks) != pdTRUE) {
 850:Middlewares/Third_Party/FreeRTOS/Source/CMSIS_RTOS/cmsis_os.c ****     return osErrorOS;
 851:Middlewares/Third_Party/FreeRTOS/Source/CMSIS_RTOS/cmsis_os.c ****   }
 852:Middlewares/Third_Party/FreeRTOS/Source/CMSIS_RTOS/cmsis_os.c ****   
 853:Middlewares/Third_Party/FreeRTOS/Source/CMSIS_RTOS/cmsis_os.c ****   return osOK;
 1378              		.loc 1 853 10 is_stmt 0 discriminator 1 view .LVU303
 1379              		.thumb
 1380              		.syntax unified
 1381 0046 0020     		movs	r0, #0
 1382 0048 08E0     		b	.L97
 1383              	.L100:
 849:Middlewares/Third_Party/FreeRTOS/Source/CMSIS_RTOS/cmsis_os.c ****     return osErrorOS;
 1384              		.loc 1 849 8 is_stmt 1 view .LVU304
 849:Middlewares/Third_Party/FreeRTOS/Source/CMSIS_RTOS/cmsis_os.c ****     return osErrorOS;
 1385              		.loc 1 849 12 is_stmt 0 view .LVU305
 1386 004a 0023     		movs	r3, #0
 1387 004c 2246     		mov	r2, r4
 1388 004e 1946     		mov	r1, r3
 1389 0050 2846     		mov	r0, r5
 1390 0052 FFF7FEFF 		bl	xQueueGenericReceive
 1391              	.LVL92:
 849:Middlewares/Third_Party/FreeRTOS/Source/CMSIS_RTOS/cmsis_os.c ****     return osErrorOS;
 1392              		.loc 1 849 11 view .LVU306
 1393 0056 0128     		cmp	r0, #1
 1394 0058 08D1     		bne	.L105
 1395              		.loc 1 853 10 view .LVU307
 1396 005a 0020     		movs	r0, #0
 1397              	.LVL93:
 1398              	.L97:
 854:Middlewares/Third_Party/FreeRTOS/Source/CMSIS_RTOS/cmsis_os.c **** }
 1399              		.loc 1 854 1 view .LVU308
 1400 005c 03B0     		add	sp, sp, #12
 1401              	.LCFI33:
 1402              		.cfi_remember_state
 1403              		.cfi_def_cfa_offset 12
 1404              		@ sp needed
 1405 005e 30BD     		pop	{r4, r5, pc}
 1406              	.LVL94:
 1407              	.L101:
 1408              	.LCFI34:
 1409              		.cfi_restore_state
 829:Middlewares/Third_Party/FreeRTOS/Source/CMSIS_RTOS/cmsis_os.c ****   }
 1410              		.loc 1 829 12 view .LVU309
 1411 0060 8020     		movs	r0, #128
 1412              	.LVL95:
 829:Middlewares/Third_Party/FreeRTOS/Source/CMSIS_RTOS/cmsis_os.c ****   }
 1413              		.loc 1 829 12 view .LVU310
 1414 0062 FBE7     		b	.L97
 1415              	.LVL96:
 1416              	.L103:
 845:Middlewares/Third_Party/FreeRTOS/Source/CMSIS_RTOS/cmsis_os.c ****     }
ARM GAS  /var/folders/n1/76bg37b13ls08p1dhb9rhvd40000gn/T//cc6VEgqh.s 			page 43


 1417              		.loc 1 845 14 view .LVU311
 1418 0064 FF20     		movs	r0, #255
 1419 0066 F9E7     		b	.L97
 1420              	.L104:
 853:Middlewares/Third_Party/FreeRTOS/Source/CMSIS_RTOS/cmsis_os.c **** }
 1421              		.loc 1 853 10 view .LVU312
 1422 0068 0020     		movs	r0, #0
 1423 006a F7E7     		b	.L97
 1424              	.L105:
 850:Middlewares/Third_Party/FreeRTOS/Source/CMSIS_RTOS/cmsis_os.c ****   }
 1425              		.loc 1 850 12 view .LVU313
 1426 006c FF20     		movs	r0, #255
 1427 006e F5E7     		b	.L97
 1428              	.L108:
 1429              		.align	2
 1430              	.L107:
 1431 0070 04ED00E0 		.word	-536810236
 1432              		.cfi_endproc
 1433              	.LFE54:
 1435              		.section	.text.osSemaphoreRelease,"ax",%progbits
 1436              		.align	1
 1437              		.global	osSemaphoreRelease
 1438              		.syntax unified
 1439              		.thumb
 1440              		.thumb_func
 1441              		.fpu fpv4-sp-d16
 1443              	osSemaphoreRelease:
 1444              	.LVL97:
 1445              	.LFB55:
 855:Middlewares/Third_Party/FreeRTOS/Source/CMSIS_RTOS/cmsis_os.c **** 
 856:Middlewares/Third_Party/FreeRTOS/Source/CMSIS_RTOS/cmsis_os.c **** /**
 857:Middlewares/Third_Party/FreeRTOS/Source/CMSIS_RTOS/cmsis_os.c **** * @brief Release a Semaphore token
 858:Middlewares/Third_Party/FreeRTOS/Source/CMSIS_RTOS/cmsis_os.c **** * @param  semaphore_id  semaphore object referenced with \ref osSemaphore.
 859:Middlewares/Third_Party/FreeRTOS/Source/CMSIS_RTOS/cmsis_os.c **** * @retval  status code that indicates the execution status of the function.
 860:Middlewares/Third_Party/FreeRTOS/Source/CMSIS_RTOS/cmsis_os.c **** * @note   MUST REMAIN UNCHANGED: \b osSemaphoreRelease shall be consistent in every CMSIS-RTOS.
 861:Middlewares/Third_Party/FreeRTOS/Source/CMSIS_RTOS/cmsis_os.c **** */
 862:Middlewares/Third_Party/FreeRTOS/Source/CMSIS_RTOS/cmsis_os.c **** osStatus osSemaphoreRelease (osSemaphoreId semaphore_id)
 863:Middlewares/Third_Party/FreeRTOS/Source/CMSIS_RTOS/cmsis_os.c **** {
 1446              		.loc 1 863 1 is_stmt 1 view -0
 1447              		.cfi_startproc
 1448              		@ args = 0, pretend = 0, frame = 8
 1449              		@ frame_needed = 0, uses_anonymous_args = 0
 1450              		.loc 1 863 1 is_stmt 0 view .LVU315
 1451 0000 10B5     		push	{r4, lr}
 1452              	.LCFI35:
 1453              		.cfi_def_cfa_offset 8
 1454              		.cfi_offset 4, -8
 1455              		.cfi_offset 14, -4
 1456 0002 82B0     		sub	sp, sp, #8
 1457              	.LCFI36:
 1458              		.cfi_def_cfa_offset 16
 1459 0004 0446     		mov	r4, r0
 864:Middlewares/Third_Party/FreeRTOS/Source/CMSIS_RTOS/cmsis_os.c ****   osStatus result = osOK;
 1460              		.loc 1 864 3 is_stmt 1 view .LVU316
 1461              	.LVL98:
 865:Middlewares/Third_Party/FreeRTOS/Source/CMSIS_RTOS/cmsis_os.c ****   portBASE_TYPE taskWoken = pdFALSE;
 1462              		.loc 1 865 3 view .LVU317
ARM GAS  /var/folders/n1/76bg37b13ls08p1dhb9rhvd40000gn/T//cc6VEgqh.s 			page 44


 1463              		.loc 1 865 17 is_stmt 0 view .LVU318
 1464 0006 0023     		movs	r3, #0
 1465 0008 0193     		str	r3, [sp, #4]
 866:Middlewares/Third_Party/FreeRTOS/Source/CMSIS_RTOS/cmsis_os.c ****   
 867:Middlewares/Third_Party/FreeRTOS/Source/CMSIS_RTOS/cmsis_os.c ****   
 868:Middlewares/Third_Party/FreeRTOS/Source/CMSIS_RTOS/cmsis_os.c ****   if (inHandlerMode()) {
 1466              		.loc 1 868 3 is_stmt 1 view .LVU319
 1467              		.loc 1 868 7 is_stmt 0 view .LVU320
 1468 000a FFF7FEFF 		bl	inHandlerMode
 1469              	.LVL99:
 1470              		.loc 1 868 6 view .LVU321
 1471 000e 88B1     		cbz	r0, .L110
 869:Middlewares/Third_Party/FreeRTOS/Source/CMSIS_RTOS/cmsis_os.c ****     if (xSemaphoreGiveFromISR(semaphore_id, &taskWoken) != pdTRUE) {
 1472              		.loc 1 869 5 is_stmt 1 view .LVU322
 1473              		.loc 1 869 9 is_stmt 0 view .LVU323
 1474 0010 01A9     		add	r1, sp, #4
 1475 0012 2046     		mov	r0, r4
 1476 0014 FFF7FEFF 		bl	xQueueGiveFromISR
 1477              	.LVL100:
 1478              		.loc 1 869 8 view .LVU324
 1479 0018 0128     		cmp	r0, #1
 1480 001a 18D1     		bne	.L112
 870:Middlewares/Third_Party/FreeRTOS/Source/CMSIS_RTOS/cmsis_os.c ****       return osErrorOS;
 871:Middlewares/Third_Party/FreeRTOS/Source/CMSIS_RTOS/cmsis_os.c ****     }
 872:Middlewares/Third_Party/FreeRTOS/Source/CMSIS_RTOS/cmsis_os.c ****     portEND_SWITCHING_ISR(taskWoken);
 1481              		.loc 1 872 5 is_stmt 1 view .LVU325
 1482 001c 019B     		ldr	r3, [sp, #4]
 1483 001e C3B1     		cbz	r3, .L113
 1484              		.loc 1 872 5 discriminator 1 view .LVU326
 1485 0020 0D4B     		ldr	r3, .L117
 1486 0022 4FF08052 		mov	r2, #268435456
 1487 0026 1A60     		str	r2, [r3]
 1488              		.loc 1 872 5 discriminator 1 view .LVU327
 1489              		.syntax unified
 1490              	@ 872 "Middlewares/Third_Party/FreeRTOS/Source/CMSIS_RTOS/cmsis_os.c" 1
 1491 0028 BFF34F8F 		dsb
 1492              	@ 0 "" 2
 1493              		.loc 1 872 5 discriminator 1 view .LVU328
 1494              	@ 872 "Middlewares/Third_Party/FreeRTOS/Source/CMSIS_RTOS/cmsis_os.c" 1
 1495 002c BFF36F8F 		isb
 1496              	@ 0 "" 2
 864:Middlewares/Third_Party/FreeRTOS/Source/CMSIS_RTOS/cmsis_os.c ****   portBASE_TYPE taskWoken = pdFALSE;
 1497              		.loc 1 864 12 is_stmt 0 discriminator 1 view .LVU329
 1498              		.thumb
 1499              		.syntax unified
 1500 0030 0020     		movs	r0, #0
 1501 0032 08E0     		b	.L109
 1502              	.L110:
 873:Middlewares/Third_Party/FreeRTOS/Source/CMSIS_RTOS/cmsis_os.c ****   }
 874:Middlewares/Third_Party/FreeRTOS/Source/CMSIS_RTOS/cmsis_os.c ****   else {
 875:Middlewares/Third_Party/FreeRTOS/Source/CMSIS_RTOS/cmsis_os.c ****     if (xSemaphoreGive(semaphore_id) != pdTRUE) {
 1503              		.loc 1 875 5 is_stmt 1 view .LVU330
 1504              		.loc 1 875 9 is_stmt 0 view .LVU331
 1505 0034 0023     		movs	r3, #0
 1506 0036 1A46     		mov	r2, r3
 1507 0038 1946     		mov	r1, r3
 1508 003a 2046     		mov	r0, r4
ARM GAS  /var/folders/n1/76bg37b13ls08p1dhb9rhvd40000gn/T//cc6VEgqh.s 			page 45


 1509 003c FFF7FEFF 		bl	xQueueGenericSend
 1510              	.LVL101:
 1511              		.loc 1 875 8 view .LVU332
 1512 0040 0128     		cmp	r0, #1
 1513 0042 02D0     		beq	.L116
 876:Middlewares/Third_Party/FreeRTOS/Source/CMSIS_RTOS/cmsis_os.c ****       result = osErrorOS;
 1514              		.loc 1 876 14 view .LVU333
 1515 0044 FF20     		movs	r0, #255
 1516              	.L109:
 877:Middlewares/Third_Party/FreeRTOS/Source/CMSIS_RTOS/cmsis_os.c ****     }
 878:Middlewares/Third_Party/FreeRTOS/Source/CMSIS_RTOS/cmsis_os.c ****   }
 879:Middlewares/Third_Party/FreeRTOS/Source/CMSIS_RTOS/cmsis_os.c ****   
 880:Middlewares/Third_Party/FreeRTOS/Source/CMSIS_RTOS/cmsis_os.c ****   return result;
 881:Middlewares/Third_Party/FreeRTOS/Source/CMSIS_RTOS/cmsis_os.c **** }
 1517              		.loc 1 881 1 view .LVU334
 1518 0046 02B0     		add	sp, sp, #8
 1519              	.LCFI37:
 1520              		.cfi_remember_state
 1521              		.cfi_def_cfa_offset 8
 1522              		@ sp needed
 1523 0048 10BD     		pop	{r4, pc}
 1524              	.LVL102:
 1525              	.L116:
 1526              	.LCFI38:
 1527              		.cfi_restore_state
 864:Middlewares/Third_Party/FreeRTOS/Source/CMSIS_RTOS/cmsis_os.c ****   portBASE_TYPE taskWoken = pdFALSE;
 1528              		.loc 1 864 12 view .LVU335
 1529 004a 0020     		movs	r0, #0
 1530 004c FBE7     		b	.L109
 1531              	.L112:
 870:Middlewares/Third_Party/FreeRTOS/Source/CMSIS_RTOS/cmsis_os.c ****     }
 1532              		.loc 1 870 14 view .LVU336
 1533 004e FF20     		movs	r0, #255
 1534 0050 F9E7     		b	.L109
 1535              	.L113:
 864:Middlewares/Third_Party/FreeRTOS/Source/CMSIS_RTOS/cmsis_os.c ****   portBASE_TYPE taskWoken = pdFALSE;
 1536              		.loc 1 864 12 view .LVU337
 1537 0052 0020     		movs	r0, #0
 1538 0054 F7E7     		b	.L109
 1539              	.L118:
 1540 0056 00BF     		.align	2
 1541              	.L117:
 1542 0058 04ED00E0 		.word	-536810236
 1543              		.cfi_endproc
 1544              	.LFE55:
 1546              		.section	.text.osSemaphoreDelete,"ax",%progbits
 1547              		.align	1
 1548              		.global	osSemaphoreDelete
 1549              		.syntax unified
 1550              		.thumb
 1551              		.thumb_func
 1552              		.fpu fpv4-sp-d16
 1554              	osSemaphoreDelete:
 1555              	.LVL103:
 1556              	.LFB56:
 882:Middlewares/Third_Party/FreeRTOS/Source/CMSIS_RTOS/cmsis_os.c **** 
 883:Middlewares/Third_Party/FreeRTOS/Source/CMSIS_RTOS/cmsis_os.c **** /**
ARM GAS  /var/folders/n1/76bg37b13ls08p1dhb9rhvd40000gn/T//cc6VEgqh.s 			page 46


 884:Middlewares/Third_Party/FreeRTOS/Source/CMSIS_RTOS/cmsis_os.c **** * @brief Delete a Semaphore
 885:Middlewares/Third_Party/FreeRTOS/Source/CMSIS_RTOS/cmsis_os.c **** * @param  semaphore_id  semaphore object referenced with \ref osSemaphore.
 886:Middlewares/Third_Party/FreeRTOS/Source/CMSIS_RTOS/cmsis_os.c **** * @retval  status code that indicates the execution status of the function.
 887:Middlewares/Third_Party/FreeRTOS/Source/CMSIS_RTOS/cmsis_os.c **** * @note   MUST REMAIN UNCHANGED: \b osSemaphoreDelete shall be consistent in every CMSIS-RTOS.
 888:Middlewares/Third_Party/FreeRTOS/Source/CMSIS_RTOS/cmsis_os.c **** */
 889:Middlewares/Third_Party/FreeRTOS/Source/CMSIS_RTOS/cmsis_os.c **** osStatus osSemaphoreDelete (osSemaphoreId semaphore_id)
 890:Middlewares/Third_Party/FreeRTOS/Source/CMSIS_RTOS/cmsis_os.c **** {
 1557              		.loc 1 890 1 is_stmt 1 view -0
 1558              		.cfi_startproc
 1559              		@ args = 0, pretend = 0, frame = 0
 1560              		@ frame_needed = 0, uses_anonymous_args = 0
 1561              		.loc 1 890 1 is_stmt 0 view .LVU339
 1562 0000 10B5     		push	{r4, lr}
 1563              	.LCFI39:
 1564              		.cfi_def_cfa_offset 8
 1565              		.cfi_offset 4, -8
 1566              		.cfi_offset 14, -4
 1567 0002 0446     		mov	r4, r0
 891:Middlewares/Third_Party/FreeRTOS/Source/CMSIS_RTOS/cmsis_os.c ****   if (inHandlerMode()) {
 1568              		.loc 1 891 3 is_stmt 1 view .LVU340
 1569              		.loc 1 891 7 is_stmt 0 view .LVU341
 1570 0004 FFF7FEFF 		bl	inHandlerMode
 1571              	.LVL104:
 1572              		.loc 1 891 6 view .LVU342
 1573 0008 20B9     		cbnz	r0, .L121
 892:Middlewares/Third_Party/FreeRTOS/Source/CMSIS_RTOS/cmsis_os.c ****     return osErrorISR;
 893:Middlewares/Third_Party/FreeRTOS/Source/CMSIS_RTOS/cmsis_os.c ****   }
 894:Middlewares/Third_Party/FreeRTOS/Source/CMSIS_RTOS/cmsis_os.c **** 
 895:Middlewares/Third_Party/FreeRTOS/Source/CMSIS_RTOS/cmsis_os.c ****   vSemaphoreDelete(semaphore_id);
 1574              		.loc 1 895 3 is_stmt 1 view .LVU343
 1575 000a 2046     		mov	r0, r4
 1576 000c FFF7FEFF 		bl	vQueueDelete
 1577              	.LVL105:
 896:Middlewares/Third_Party/FreeRTOS/Source/CMSIS_RTOS/cmsis_os.c **** 
 897:Middlewares/Third_Party/FreeRTOS/Source/CMSIS_RTOS/cmsis_os.c ****   return osOK; 
 1578              		.loc 1 897 3 view .LVU344
 1579              		.loc 1 897 10 is_stmt 0 view .LVU345
 1580 0010 0020     		movs	r0, #0
 1581              	.L119:
 898:Middlewares/Third_Party/FreeRTOS/Source/CMSIS_RTOS/cmsis_os.c **** }
 1582              		.loc 1 898 1 view .LVU346
 1583 0012 10BD     		pop	{r4, pc}
 1584              	.LVL106:
 1585              	.L121:
 892:Middlewares/Third_Party/FreeRTOS/Source/CMSIS_RTOS/cmsis_os.c ****     return osErrorISR;
 1586              		.loc 1 892 12 view .LVU347
 1587 0014 8220     		movs	r0, #130
 1588 0016 FCE7     		b	.L119
 1589              		.cfi_endproc
 1590              	.LFE56:
 1592              		.section	.text.osPoolCreate,"ax",%progbits
 1593              		.align	1
 1594              		.global	osPoolCreate
 1595              		.syntax unified
 1596              		.thumb
 1597              		.thumb_func
 1598              		.fpu fpv4-sp-d16
ARM GAS  /var/folders/n1/76bg37b13ls08p1dhb9rhvd40000gn/T//cc6VEgqh.s 			page 47


 1600              	osPoolCreate:
 1601              	.LVL107:
 1602              	.LFB57:
 899:Middlewares/Third_Party/FreeRTOS/Source/CMSIS_RTOS/cmsis_os.c **** 
 900:Middlewares/Third_Party/FreeRTOS/Source/CMSIS_RTOS/cmsis_os.c **** #endif    /* Use Semaphores */
 901:Middlewares/Third_Party/FreeRTOS/Source/CMSIS_RTOS/cmsis_os.c **** 
 902:Middlewares/Third_Party/FreeRTOS/Source/CMSIS_RTOS/cmsis_os.c **** /*******************   Memory Pool Management Functions  ***********************/
 903:Middlewares/Third_Party/FreeRTOS/Source/CMSIS_RTOS/cmsis_os.c **** 
 904:Middlewares/Third_Party/FreeRTOS/Source/CMSIS_RTOS/cmsis_os.c **** #if (defined (osFeature_Pool)  &&  (osFeature_Pool != 0)) 
 905:Middlewares/Third_Party/FreeRTOS/Source/CMSIS_RTOS/cmsis_os.c **** 
 906:Middlewares/Third_Party/FreeRTOS/Source/CMSIS_RTOS/cmsis_os.c **** //TODO
 907:Middlewares/Third_Party/FreeRTOS/Source/CMSIS_RTOS/cmsis_os.c **** //This is a primitive and inefficient wrapper around the existing FreeRTOS memory management.
 908:Middlewares/Third_Party/FreeRTOS/Source/CMSIS_RTOS/cmsis_os.c **** //A better implementation will have to modify heap_x.c!
 909:Middlewares/Third_Party/FreeRTOS/Source/CMSIS_RTOS/cmsis_os.c **** 
 910:Middlewares/Third_Party/FreeRTOS/Source/CMSIS_RTOS/cmsis_os.c **** 
 911:Middlewares/Third_Party/FreeRTOS/Source/CMSIS_RTOS/cmsis_os.c **** typedef struct os_pool_cb {
 912:Middlewares/Third_Party/FreeRTOS/Source/CMSIS_RTOS/cmsis_os.c ****   void *pool;
 913:Middlewares/Third_Party/FreeRTOS/Source/CMSIS_RTOS/cmsis_os.c ****   uint8_t *markers;
 914:Middlewares/Third_Party/FreeRTOS/Source/CMSIS_RTOS/cmsis_os.c ****   uint32_t pool_sz;
 915:Middlewares/Third_Party/FreeRTOS/Source/CMSIS_RTOS/cmsis_os.c ****   uint32_t item_sz;
 916:Middlewares/Third_Party/FreeRTOS/Source/CMSIS_RTOS/cmsis_os.c ****   uint32_t currentIndex;
 917:Middlewares/Third_Party/FreeRTOS/Source/CMSIS_RTOS/cmsis_os.c **** } os_pool_cb_t;
 918:Middlewares/Third_Party/FreeRTOS/Source/CMSIS_RTOS/cmsis_os.c **** 
 919:Middlewares/Third_Party/FreeRTOS/Source/CMSIS_RTOS/cmsis_os.c **** 
 920:Middlewares/Third_Party/FreeRTOS/Source/CMSIS_RTOS/cmsis_os.c **** /**
 921:Middlewares/Third_Party/FreeRTOS/Source/CMSIS_RTOS/cmsis_os.c **** * @brief Create and Initialize a memory pool
 922:Middlewares/Third_Party/FreeRTOS/Source/CMSIS_RTOS/cmsis_os.c **** * @param  pool_def      memory pool definition referenced with \ref osPool.
 923:Middlewares/Third_Party/FreeRTOS/Source/CMSIS_RTOS/cmsis_os.c **** * @retval  memory pool ID for reference by other functions or NULL in case of error.
 924:Middlewares/Third_Party/FreeRTOS/Source/CMSIS_RTOS/cmsis_os.c **** * @note   MUST REMAIN UNCHANGED: \b osPoolCreate shall be consistent in every CMSIS-RTOS.
 925:Middlewares/Third_Party/FreeRTOS/Source/CMSIS_RTOS/cmsis_os.c **** */
 926:Middlewares/Third_Party/FreeRTOS/Source/CMSIS_RTOS/cmsis_os.c **** osPoolId osPoolCreate (const osPoolDef_t *pool_def)
 927:Middlewares/Third_Party/FreeRTOS/Source/CMSIS_RTOS/cmsis_os.c **** {
 1603              		.loc 1 927 1 is_stmt 1 view -0
 1604              		.cfi_startproc
 1605              		@ args = 0, pretend = 0, frame = 0
 1606              		@ frame_needed = 0, uses_anonymous_args = 0
 1607              		.loc 1 927 1 is_stmt 0 view .LVU349
 1608 0000 70B5     		push	{r4, r5, r6, lr}
 1609              	.LCFI40:
 1610              		.cfi_def_cfa_offset 16
 1611              		.cfi_offset 4, -16
 1612              		.cfi_offset 5, -12
 1613              		.cfi_offset 6, -8
 1614              		.cfi_offset 14, -4
 1615 0002 0546     		mov	r5, r0
 928:Middlewares/Third_Party/FreeRTOS/Source/CMSIS_RTOS/cmsis_os.c **** #if (configSUPPORT_DYNAMIC_ALLOCATION == 1)
 929:Middlewares/Third_Party/FreeRTOS/Source/CMSIS_RTOS/cmsis_os.c ****   osPoolId thePool;
 1616              		.loc 1 929 3 is_stmt 1 view .LVU350
 930:Middlewares/Third_Party/FreeRTOS/Source/CMSIS_RTOS/cmsis_os.c ****   int itemSize = 4 * ((pool_def->item_sz + 3) / 4);
 1617              		.loc 1 930 3 view .LVU351
 1618              		.loc 1 930 32 is_stmt 0 view .LVU352
 1619 0004 4368     		ldr	r3, [r0, #4]
 1620              		.loc 1 930 42 view .LVU353
 1621 0006 0333     		adds	r3, r3, #3
 1622              		.loc 1 930 7 view .LVU354
 1623 0008 23F00306 		bic	r6, r3, #3
 1624              	.LVL108:
ARM GAS  /var/folders/n1/76bg37b13ls08p1dhb9rhvd40000gn/T//cc6VEgqh.s 			page 48


 931:Middlewares/Third_Party/FreeRTOS/Source/CMSIS_RTOS/cmsis_os.c ****   uint32_t i;
 1625              		.loc 1 931 3 is_stmt 1 view .LVU355
 932:Middlewares/Third_Party/FreeRTOS/Source/CMSIS_RTOS/cmsis_os.c ****   
 933:Middlewares/Third_Party/FreeRTOS/Source/CMSIS_RTOS/cmsis_os.c ****   /* First have to allocate memory for the pool control block. */
 934:Middlewares/Third_Party/FreeRTOS/Source/CMSIS_RTOS/cmsis_os.c ****  thePool = pvPortMalloc(sizeof(os_pool_cb_t));
 1626              		.loc 1 934 2 view .LVU356
 1627              		.loc 1 934 12 is_stmt 0 view .LVU357
 1628 000c 1420     		movs	r0, #20
 1629              	.LVL109:
 1630              		.loc 1 934 12 view .LVU358
 1631 000e FFF7FEFF 		bl	pvPortMalloc
 1632              	.LVL110:
 935:Middlewares/Third_Party/FreeRTOS/Source/CMSIS_RTOS/cmsis_os.c **** 
 936:Middlewares/Third_Party/FreeRTOS/Source/CMSIS_RTOS/cmsis_os.c ****   
 937:Middlewares/Third_Party/FreeRTOS/Source/CMSIS_RTOS/cmsis_os.c ****   if (thePool) {
 1633              		.loc 1 937 3 is_stmt 1 view .LVU359
 1634              		.loc 1 937 6 is_stmt 0 view .LVU360
 1635 0012 0446     		mov	r4, r0
 1636 0014 28B3     		cbz	r0, .L123
 938:Middlewares/Third_Party/FreeRTOS/Source/CMSIS_RTOS/cmsis_os.c ****     thePool->pool_sz = pool_def->pool_sz;
 1637              		.loc 1 938 5 is_stmt 1 view .LVU361
 1638              		.loc 1 938 32 is_stmt 0 view .LVU362
 1639 0016 2B68     		ldr	r3, [r5]
 1640              		.loc 1 938 22 view .LVU363
 1641 0018 8360     		str	r3, [r0, #8]
 939:Middlewares/Third_Party/FreeRTOS/Source/CMSIS_RTOS/cmsis_os.c ****     thePool->item_sz = itemSize;
 1642              		.loc 1 939 5 is_stmt 1 view .LVU364
 1643              		.loc 1 939 22 is_stmt 0 view .LVU365
 1644 001a C660     		str	r6, [r0, #12]
 940:Middlewares/Third_Party/FreeRTOS/Source/CMSIS_RTOS/cmsis_os.c ****     thePool->currentIndex = 0;
 1645              		.loc 1 940 5 is_stmt 1 view .LVU366
 1646              		.loc 1 940 27 is_stmt 0 view .LVU367
 1647 001c 0023     		movs	r3, #0
 1648 001e 0361     		str	r3, [r0, #16]
 941:Middlewares/Third_Party/FreeRTOS/Source/CMSIS_RTOS/cmsis_os.c ****     
 942:Middlewares/Third_Party/FreeRTOS/Source/CMSIS_RTOS/cmsis_os.c ****     /* Memory for markers */
 943:Middlewares/Third_Party/FreeRTOS/Source/CMSIS_RTOS/cmsis_os.c ****     thePool->markers = pvPortMalloc(pool_def->pool_sz);
 1649              		.loc 1 943 5 is_stmt 1 view .LVU368
 1650              		.loc 1 943 24 is_stmt 0 view .LVU369
 1651 0020 2868     		ldr	r0, [r5]
 1652              	.LVL111:
 1653              		.loc 1 943 24 view .LVU370
 1654 0022 FFF7FEFF 		bl	pvPortMalloc
 1655              	.LVL112:
 1656              		.loc 1 943 22 view .LVU371
 1657 0026 6060     		str	r0, [r4, #4]
 944:Middlewares/Third_Party/FreeRTOS/Source/CMSIS_RTOS/cmsis_os.c ****    
 945:Middlewares/Third_Party/FreeRTOS/Source/CMSIS_RTOS/cmsis_os.c ****     if (thePool->markers) {
 1658              		.loc 1 945 5 is_stmt 1 view .LVU372
 1659              		.loc 1 945 8 is_stmt 0 view .LVU373
 1660 0028 B8B1     		cbz	r0, .L125
 946:Middlewares/Third_Party/FreeRTOS/Source/CMSIS_RTOS/cmsis_os.c ****       /* Now allocate the pool itself. */
 947:Middlewares/Third_Party/FreeRTOS/Source/CMSIS_RTOS/cmsis_os.c ****      thePool->pool = pvPortMalloc(pool_def->pool_sz * itemSize);
 1661              		.loc 1 947 6 is_stmt 1 view .LVU374
 1662              		.loc 1 947 43 is_stmt 0 view .LVU375
 1663 002a 2868     		ldr	r0, [r5]
 1664              		.loc 1 947 22 view .LVU376
ARM GAS  /var/folders/n1/76bg37b13ls08p1dhb9rhvd40000gn/T//cc6VEgqh.s 			page 49


 1665 002c 00FB06F0 		mul	r0, r0, r6
 1666 0030 FFF7FEFF 		bl	pvPortMalloc
 1667              	.LVL113:
 1668              		.loc 1 947 20 view .LVU377
 1669 0034 2060     		str	r0, [r4]
 948:Middlewares/Third_Party/FreeRTOS/Source/CMSIS_RTOS/cmsis_os.c ****       
 949:Middlewares/Third_Party/FreeRTOS/Source/CMSIS_RTOS/cmsis_os.c ****       if (thePool->pool) {
 1670              		.loc 1 949 7 is_stmt 1 view .LVU378
 1671              		.loc 1 949 10 is_stmt 0 view .LVU379
 1672 0036 40B1     		cbz	r0, .L132
 950:Middlewares/Third_Party/FreeRTOS/Source/CMSIS_RTOS/cmsis_os.c ****         for (i = 0; i < pool_def->pool_sz; i++) {
 1673              		.loc 1 950 16 view .LVU380
 1674 0038 0023     		movs	r3, #0
 1675              	.L126:
 1676              	.LVL114:
 1677              		.loc 1 950 33 discriminator 1 view .LVU381
 1678 003a 2A68     		ldr	r2, [r5]
 1679              		.loc 1 950 9 discriminator 1 view .LVU382
 1680 003c 9A42     		cmp	r2, r3
 1681 003e 10D9     		bls	.L123
 951:Middlewares/Third_Party/FreeRTOS/Source/CMSIS_RTOS/cmsis_os.c ****           thePool->markers[i] = 0;
 1682              		.loc 1 951 11 is_stmt 1 discriminator 3 view .LVU383
 1683              		.loc 1 951 18 is_stmt 0 discriminator 3 view .LVU384
 1684 0040 6268     		ldr	r2, [r4, #4]
 1685              		.loc 1 951 31 discriminator 3 view .LVU385
 1686 0042 0021     		movs	r1, #0
 1687 0044 D154     		strb	r1, [r2, r3]
 950:Middlewares/Third_Party/FreeRTOS/Source/CMSIS_RTOS/cmsis_os.c ****         for (i = 0; i < pool_def->pool_sz; i++) {
 1688              		.loc 1 950 45 discriminator 3 view .LVU386
 1689 0046 0133     		adds	r3, r3, #1
 1690              	.LVL115:
 950:Middlewares/Third_Party/FreeRTOS/Source/CMSIS_RTOS/cmsis_os.c ****         for (i = 0; i < pool_def->pool_sz; i++) {
 1691              		.loc 1 950 45 discriminator 3 view .LVU387
 1692 0048 F7E7     		b	.L126
 1693              	.LVL116:
 1694              	.L132:
 952:Middlewares/Third_Party/FreeRTOS/Source/CMSIS_RTOS/cmsis_os.c ****         }
 953:Middlewares/Third_Party/FreeRTOS/Source/CMSIS_RTOS/cmsis_os.c ****       }
 954:Middlewares/Third_Party/FreeRTOS/Source/CMSIS_RTOS/cmsis_os.c ****       else {
 955:Middlewares/Third_Party/FreeRTOS/Source/CMSIS_RTOS/cmsis_os.c ****         vPortFree(thePool->markers);
 1695              		.loc 1 955 9 is_stmt 1 view .LVU388
 1696 004a 6068     		ldr	r0, [r4, #4]
 1697 004c FFF7FEFF 		bl	vPortFree
 1698              	.LVL117:
 956:Middlewares/Third_Party/FreeRTOS/Source/CMSIS_RTOS/cmsis_os.c ****         vPortFree(thePool);
 1699              		.loc 1 956 9 view .LVU389
 1700 0050 2046     		mov	r0, r4
 1701 0052 FFF7FEFF 		bl	vPortFree
 1702              	.LVL118:
 957:Middlewares/Third_Party/FreeRTOS/Source/CMSIS_RTOS/cmsis_os.c ****         thePool = NULL;
 1703              		.loc 1 957 9 view .LVU390
 1704              		.loc 1 957 17 is_stmt 0 view .LVU391
 1705 0056 0024     		movs	r4, #0
 1706 0058 03E0     		b	.L123
 1707              	.LVL119:
 1708              	.L125:
 958:Middlewares/Third_Party/FreeRTOS/Source/CMSIS_RTOS/cmsis_os.c ****       }
ARM GAS  /var/folders/n1/76bg37b13ls08p1dhb9rhvd40000gn/T//cc6VEgqh.s 			page 50


 959:Middlewares/Third_Party/FreeRTOS/Source/CMSIS_RTOS/cmsis_os.c ****     }
 960:Middlewares/Third_Party/FreeRTOS/Source/CMSIS_RTOS/cmsis_os.c ****     else {
 961:Middlewares/Third_Party/FreeRTOS/Source/CMSIS_RTOS/cmsis_os.c ****       vPortFree(thePool);
 1709              		.loc 1 961 7 is_stmt 1 view .LVU392
 1710 005a 2046     		mov	r0, r4
 1711 005c FFF7FEFF 		bl	vPortFree
 1712              	.LVL120:
 962:Middlewares/Third_Party/FreeRTOS/Source/CMSIS_RTOS/cmsis_os.c ****       thePool = NULL;
 1713              		.loc 1 962 7 view .LVU393
 1714              		.loc 1 962 15 is_stmt 0 view .LVU394
 1715 0060 0024     		movs	r4, #0
 963:Middlewares/Third_Party/FreeRTOS/Source/CMSIS_RTOS/cmsis_os.c ****     }
 964:Middlewares/Third_Party/FreeRTOS/Source/CMSIS_RTOS/cmsis_os.c ****   }
 965:Middlewares/Third_Party/FreeRTOS/Source/CMSIS_RTOS/cmsis_os.c **** 
 966:Middlewares/Third_Party/FreeRTOS/Source/CMSIS_RTOS/cmsis_os.c ****   return thePool;
 1716              		.loc 1 966 3 is_stmt 1 view .LVU395
 1717              	.LVL121:
 1718              	.L123:
 967:Middlewares/Third_Party/FreeRTOS/Source/CMSIS_RTOS/cmsis_os.c ****  
 968:Middlewares/Third_Party/FreeRTOS/Source/CMSIS_RTOS/cmsis_os.c **** #else
 969:Middlewares/Third_Party/FreeRTOS/Source/CMSIS_RTOS/cmsis_os.c ****   return NULL;
 970:Middlewares/Third_Party/FreeRTOS/Source/CMSIS_RTOS/cmsis_os.c **** #endif
 971:Middlewares/Third_Party/FreeRTOS/Source/CMSIS_RTOS/cmsis_os.c **** }
 1719              		.loc 1 971 1 is_stmt 0 view .LVU396
 1720 0062 2046     		mov	r0, r4
 1721 0064 70BD     		pop	{r4, r5, r6, pc}
 1722              		.loc 1 971 1 view .LVU397
 1723              		.cfi_endproc
 1724              	.LFE57:
 1726              		.section	.text.osPoolAlloc,"ax",%progbits
 1727              		.align	1
 1728              		.global	osPoolAlloc
 1729              		.syntax unified
 1730              		.thumb
 1731              		.thumb_func
 1732              		.fpu fpv4-sp-d16
 1734              	osPoolAlloc:
 1735              	.LVL122:
 1736              	.LFB58:
 972:Middlewares/Third_Party/FreeRTOS/Source/CMSIS_RTOS/cmsis_os.c **** 
 973:Middlewares/Third_Party/FreeRTOS/Source/CMSIS_RTOS/cmsis_os.c **** /**
 974:Middlewares/Third_Party/FreeRTOS/Source/CMSIS_RTOS/cmsis_os.c **** * @brief Allocate a memory block from a memory pool
 975:Middlewares/Third_Party/FreeRTOS/Source/CMSIS_RTOS/cmsis_os.c **** * @param pool_id       memory pool ID obtain referenced with \ref osPoolCreate.
 976:Middlewares/Third_Party/FreeRTOS/Source/CMSIS_RTOS/cmsis_os.c **** * @retval  address of the allocated memory block or NULL in case of no memory available.
 977:Middlewares/Third_Party/FreeRTOS/Source/CMSIS_RTOS/cmsis_os.c **** * @note   MUST REMAIN UNCHANGED: \b osPoolAlloc shall be consistent in every CMSIS-RTOS.
 978:Middlewares/Third_Party/FreeRTOS/Source/CMSIS_RTOS/cmsis_os.c **** */
 979:Middlewares/Third_Party/FreeRTOS/Source/CMSIS_RTOS/cmsis_os.c **** void *osPoolAlloc (osPoolId pool_id)
 980:Middlewares/Third_Party/FreeRTOS/Source/CMSIS_RTOS/cmsis_os.c **** {
 1737              		.loc 1 980 1 is_stmt 1 view -0
 1738              		.cfi_startproc
 1739              		@ args = 0, pretend = 0, frame = 0
 1740              		@ frame_needed = 0, uses_anonymous_args = 0
 1741              		.loc 1 980 1 is_stmt 0 view .LVU399
 1742 0000 70B5     		push	{r4, r5, r6, lr}
 1743              	.LCFI41:
 1744              		.cfi_def_cfa_offset 16
 1745              		.cfi_offset 4, -16
ARM GAS  /var/folders/n1/76bg37b13ls08p1dhb9rhvd40000gn/T//cc6VEgqh.s 			page 51


 1746              		.cfi_offset 5, -12
 1747              		.cfi_offset 6, -8
 1748              		.cfi_offset 14, -4
 1749 0002 0446     		mov	r4, r0
 981:Middlewares/Third_Party/FreeRTOS/Source/CMSIS_RTOS/cmsis_os.c ****   int dummy = 0;
 1750              		.loc 1 981 3 is_stmt 1 view .LVU400
 1751              	.LVL123:
 982:Middlewares/Third_Party/FreeRTOS/Source/CMSIS_RTOS/cmsis_os.c ****   void *p = NULL;
 1752              		.loc 1 982 3 view .LVU401
 983:Middlewares/Third_Party/FreeRTOS/Source/CMSIS_RTOS/cmsis_os.c ****   uint32_t i;
 1753              		.loc 1 983 3 view .LVU402
 984:Middlewares/Third_Party/FreeRTOS/Source/CMSIS_RTOS/cmsis_os.c ****   uint32_t index;
 1754              		.loc 1 984 3 view .LVU403
 985:Middlewares/Third_Party/FreeRTOS/Source/CMSIS_RTOS/cmsis_os.c ****   
 986:Middlewares/Third_Party/FreeRTOS/Source/CMSIS_RTOS/cmsis_os.c ****   if (inHandlerMode()) {
 1755              		.loc 1 986 3 view .LVU404
 1756              		.loc 1 986 7 is_stmt 0 view .LVU405
 1757 0004 FFF7FEFF 		bl	inHandlerMode
 1758              	.LVL124:
 1759              		.loc 1 986 6 view .LVU406
 1760 0008 58B1     		cbz	r0, .L134
 987:Middlewares/Third_Party/FreeRTOS/Source/CMSIS_RTOS/cmsis_os.c ****     dummy = portSET_INTERRUPT_MASK_FROM_ISR();
 1761              		.loc 1 987 5 is_stmt 1 view .LVU407
 1762              	.LBB10:
 1763              	.LBI10:
 1764              		.file 3 "Middlewares/Third_Party/FreeRTOS/Source/portable/GCC/ARM_CM4F/portmacro.h"
   1:Middlewares/Third_Party/FreeRTOS/Source/portable/GCC/ARM_CM4F/portmacro.h **** /*
   2:Middlewares/Third_Party/FreeRTOS/Source/portable/GCC/ARM_CM4F/portmacro.h ****     FreeRTOS V9.0.0 - Copyright (C) 2016 Real Time Engineers Ltd.
   3:Middlewares/Third_Party/FreeRTOS/Source/portable/GCC/ARM_CM4F/portmacro.h ****     All rights reserved
   4:Middlewares/Third_Party/FreeRTOS/Source/portable/GCC/ARM_CM4F/portmacro.h **** 
   5:Middlewares/Third_Party/FreeRTOS/Source/portable/GCC/ARM_CM4F/portmacro.h ****     VISIT http://www.FreeRTOS.org TO ENSURE YOU ARE USING THE LATEST VERSION.
   6:Middlewares/Third_Party/FreeRTOS/Source/portable/GCC/ARM_CM4F/portmacro.h **** 
   7:Middlewares/Third_Party/FreeRTOS/Source/portable/GCC/ARM_CM4F/portmacro.h ****     This file is part of the FreeRTOS distribution.
   8:Middlewares/Third_Party/FreeRTOS/Source/portable/GCC/ARM_CM4F/portmacro.h **** 
   9:Middlewares/Third_Party/FreeRTOS/Source/portable/GCC/ARM_CM4F/portmacro.h ****     FreeRTOS is free software; you can redistribute it and/or modify it under
  10:Middlewares/Third_Party/FreeRTOS/Source/portable/GCC/ARM_CM4F/portmacro.h ****     the terms of the GNU General Public License (version 2) as published by the
  11:Middlewares/Third_Party/FreeRTOS/Source/portable/GCC/ARM_CM4F/portmacro.h ****     Free Software Foundation >>>> AND MODIFIED BY <<<< the FreeRTOS exception.
  12:Middlewares/Third_Party/FreeRTOS/Source/portable/GCC/ARM_CM4F/portmacro.h **** 
  13:Middlewares/Third_Party/FreeRTOS/Source/portable/GCC/ARM_CM4F/portmacro.h ****     ***************************************************************************
  14:Middlewares/Third_Party/FreeRTOS/Source/portable/GCC/ARM_CM4F/portmacro.h ****     >>!   NOTE: The modification to the GPL is included to allow you to     !<<
  15:Middlewares/Third_Party/FreeRTOS/Source/portable/GCC/ARM_CM4F/portmacro.h ****     >>!   distribute a combined work that includes FreeRTOS without being   !<<
  16:Middlewares/Third_Party/FreeRTOS/Source/portable/GCC/ARM_CM4F/portmacro.h ****     >>!   obliged to provide the source code for proprietary components     !<<
  17:Middlewares/Third_Party/FreeRTOS/Source/portable/GCC/ARM_CM4F/portmacro.h ****     >>!   outside of the FreeRTOS kernel.                                   !<<
  18:Middlewares/Third_Party/FreeRTOS/Source/portable/GCC/ARM_CM4F/portmacro.h ****     ***************************************************************************
  19:Middlewares/Third_Party/FreeRTOS/Source/portable/GCC/ARM_CM4F/portmacro.h **** 
  20:Middlewares/Third_Party/FreeRTOS/Source/portable/GCC/ARM_CM4F/portmacro.h ****     FreeRTOS is distributed in the hope that it will be useful, but WITHOUT ANY
  21:Middlewares/Third_Party/FreeRTOS/Source/portable/GCC/ARM_CM4F/portmacro.h ****     WARRANTY; without even the implied warranty of MERCHANTABILITY or FITNESS
  22:Middlewares/Third_Party/FreeRTOS/Source/portable/GCC/ARM_CM4F/portmacro.h ****     FOR A PARTICULAR PURPOSE.  Full license text is available on the following
  23:Middlewares/Third_Party/FreeRTOS/Source/portable/GCC/ARM_CM4F/portmacro.h ****     link: http://www.freertos.org/a00114.html
  24:Middlewares/Third_Party/FreeRTOS/Source/portable/GCC/ARM_CM4F/portmacro.h **** 
  25:Middlewares/Third_Party/FreeRTOS/Source/portable/GCC/ARM_CM4F/portmacro.h ****     ***************************************************************************
  26:Middlewares/Third_Party/FreeRTOS/Source/portable/GCC/ARM_CM4F/portmacro.h ****      *                                                                       *
  27:Middlewares/Third_Party/FreeRTOS/Source/portable/GCC/ARM_CM4F/portmacro.h ****      *    FreeRTOS provides completely free yet professionally developed,    *
  28:Middlewares/Third_Party/FreeRTOS/Source/portable/GCC/ARM_CM4F/portmacro.h ****      *    robust, strictly quality controlled, supported, and cross          *
  29:Middlewares/Third_Party/FreeRTOS/Source/portable/GCC/ARM_CM4F/portmacro.h ****      *    platform software that is more than just the market leader, it     *
  30:Middlewares/Third_Party/FreeRTOS/Source/portable/GCC/ARM_CM4F/portmacro.h ****      *    is the industry's de facto standard.                               *
  31:Middlewares/Third_Party/FreeRTOS/Source/portable/GCC/ARM_CM4F/portmacro.h ****      *                                                                       *
ARM GAS  /var/folders/n1/76bg37b13ls08p1dhb9rhvd40000gn/T//cc6VEgqh.s 			page 52


  32:Middlewares/Third_Party/FreeRTOS/Source/portable/GCC/ARM_CM4F/portmacro.h ****      *    Help yourself get started quickly while simultaneously helping     *
  33:Middlewares/Third_Party/FreeRTOS/Source/portable/GCC/ARM_CM4F/portmacro.h ****      *    to support the FreeRTOS project by purchasing a FreeRTOS           *
  34:Middlewares/Third_Party/FreeRTOS/Source/portable/GCC/ARM_CM4F/portmacro.h ****      *    tutorial book, reference manual, or both:                          *
  35:Middlewares/Third_Party/FreeRTOS/Source/portable/GCC/ARM_CM4F/portmacro.h ****      *    http://www.FreeRTOS.org/Documentation                              *
  36:Middlewares/Third_Party/FreeRTOS/Source/portable/GCC/ARM_CM4F/portmacro.h ****      *                                                                       *
  37:Middlewares/Third_Party/FreeRTOS/Source/portable/GCC/ARM_CM4F/portmacro.h ****     ***************************************************************************
  38:Middlewares/Third_Party/FreeRTOS/Source/portable/GCC/ARM_CM4F/portmacro.h **** 
  39:Middlewares/Third_Party/FreeRTOS/Source/portable/GCC/ARM_CM4F/portmacro.h ****     http://www.FreeRTOS.org/FAQHelp.html - Having a problem?  Start by reading
  40:Middlewares/Third_Party/FreeRTOS/Source/portable/GCC/ARM_CM4F/portmacro.h ****     the FAQ page "My application does not run, what could be wrong?".  Have you
  41:Middlewares/Third_Party/FreeRTOS/Source/portable/GCC/ARM_CM4F/portmacro.h ****     defined configASSERT()?
  42:Middlewares/Third_Party/FreeRTOS/Source/portable/GCC/ARM_CM4F/portmacro.h **** 
  43:Middlewares/Third_Party/FreeRTOS/Source/portable/GCC/ARM_CM4F/portmacro.h ****     http://www.FreeRTOS.org/support - In return for receiving this top quality
  44:Middlewares/Third_Party/FreeRTOS/Source/portable/GCC/ARM_CM4F/portmacro.h ****     embedded software for free we request you assist our global community by
  45:Middlewares/Third_Party/FreeRTOS/Source/portable/GCC/ARM_CM4F/portmacro.h ****     participating in the support forum.
  46:Middlewares/Third_Party/FreeRTOS/Source/portable/GCC/ARM_CM4F/portmacro.h **** 
  47:Middlewares/Third_Party/FreeRTOS/Source/portable/GCC/ARM_CM4F/portmacro.h ****     http://www.FreeRTOS.org/training - Investing in training allows your team to
  48:Middlewares/Third_Party/FreeRTOS/Source/portable/GCC/ARM_CM4F/portmacro.h ****     be as productive as possible as early as possible.  Now you can receive
  49:Middlewares/Third_Party/FreeRTOS/Source/portable/GCC/ARM_CM4F/portmacro.h ****     FreeRTOS training directly from Richard Barry, CEO of Real Time Engineers
  50:Middlewares/Third_Party/FreeRTOS/Source/portable/GCC/ARM_CM4F/portmacro.h ****     Ltd, and the world's leading authority on the world's leading RTOS.
  51:Middlewares/Third_Party/FreeRTOS/Source/portable/GCC/ARM_CM4F/portmacro.h **** 
  52:Middlewares/Third_Party/FreeRTOS/Source/portable/GCC/ARM_CM4F/portmacro.h ****     http://www.FreeRTOS.org/plus - A selection of FreeRTOS ecosystem products,
  53:Middlewares/Third_Party/FreeRTOS/Source/portable/GCC/ARM_CM4F/portmacro.h ****     including FreeRTOS+Trace - an indispensable productivity tool, a DOS
  54:Middlewares/Third_Party/FreeRTOS/Source/portable/GCC/ARM_CM4F/portmacro.h ****     compatible FAT file system, and our tiny thread aware UDP/IP stack.
  55:Middlewares/Third_Party/FreeRTOS/Source/portable/GCC/ARM_CM4F/portmacro.h **** 
  56:Middlewares/Third_Party/FreeRTOS/Source/portable/GCC/ARM_CM4F/portmacro.h ****     http://www.FreeRTOS.org/labs - Where new FreeRTOS products go to incubate.
  57:Middlewares/Third_Party/FreeRTOS/Source/portable/GCC/ARM_CM4F/portmacro.h ****     Come and try FreeRTOS+TCP, our new open source TCP/IP stack for FreeRTOS.
  58:Middlewares/Third_Party/FreeRTOS/Source/portable/GCC/ARM_CM4F/portmacro.h **** 
  59:Middlewares/Third_Party/FreeRTOS/Source/portable/GCC/ARM_CM4F/portmacro.h ****     http://www.OpenRTOS.com - Real Time Engineers ltd. license FreeRTOS to High
  60:Middlewares/Third_Party/FreeRTOS/Source/portable/GCC/ARM_CM4F/portmacro.h ****     Integrity Systems ltd. to sell under the OpenRTOS brand.  Low cost OpenRTOS
  61:Middlewares/Third_Party/FreeRTOS/Source/portable/GCC/ARM_CM4F/portmacro.h ****     licenses offer ticketed support, indemnification and commercial middleware.
  62:Middlewares/Third_Party/FreeRTOS/Source/portable/GCC/ARM_CM4F/portmacro.h **** 
  63:Middlewares/Third_Party/FreeRTOS/Source/portable/GCC/ARM_CM4F/portmacro.h ****     http://www.SafeRTOS.com - High Integrity Systems also provide a safety
  64:Middlewares/Third_Party/FreeRTOS/Source/portable/GCC/ARM_CM4F/portmacro.h ****     engineered and independently SIL3 certified version for use in safety and
  65:Middlewares/Third_Party/FreeRTOS/Source/portable/GCC/ARM_CM4F/portmacro.h ****     mission critical applications that require provable dependability.
  66:Middlewares/Third_Party/FreeRTOS/Source/portable/GCC/ARM_CM4F/portmacro.h **** 
  67:Middlewares/Third_Party/FreeRTOS/Source/portable/GCC/ARM_CM4F/portmacro.h ****     1 tab == 4 spaces!
  68:Middlewares/Third_Party/FreeRTOS/Source/portable/GCC/ARM_CM4F/portmacro.h **** */
  69:Middlewares/Third_Party/FreeRTOS/Source/portable/GCC/ARM_CM4F/portmacro.h **** 
  70:Middlewares/Third_Party/FreeRTOS/Source/portable/GCC/ARM_CM4F/portmacro.h **** 
  71:Middlewares/Third_Party/FreeRTOS/Source/portable/GCC/ARM_CM4F/portmacro.h **** #ifndef PORTMACRO_H
  72:Middlewares/Third_Party/FreeRTOS/Source/portable/GCC/ARM_CM4F/portmacro.h **** #define PORTMACRO_H
  73:Middlewares/Third_Party/FreeRTOS/Source/portable/GCC/ARM_CM4F/portmacro.h **** 
  74:Middlewares/Third_Party/FreeRTOS/Source/portable/GCC/ARM_CM4F/portmacro.h **** #ifdef __cplusplus
  75:Middlewares/Third_Party/FreeRTOS/Source/portable/GCC/ARM_CM4F/portmacro.h **** extern "C" {
  76:Middlewares/Third_Party/FreeRTOS/Source/portable/GCC/ARM_CM4F/portmacro.h **** #endif
  77:Middlewares/Third_Party/FreeRTOS/Source/portable/GCC/ARM_CM4F/portmacro.h **** 
  78:Middlewares/Third_Party/FreeRTOS/Source/portable/GCC/ARM_CM4F/portmacro.h **** /*-----------------------------------------------------------
  79:Middlewares/Third_Party/FreeRTOS/Source/portable/GCC/ARM_CM4F/portmacro.h ****  * Port specific definitions.
  80:Middlewares/Third_Party/FreeRTOS/Source/portable/GCC/ARM_CM4F/portmacro.h ****  *
  81:Middlewares/Third_Party/FreeRTOS/Source/portable/GCC/ARM_CM4F/portmacro.h ****  * The settings in this file configure FreeRTOS correctly for the
  82:Middlewares/Third_Party/FreeRTOS/Source/portable/GCC/ARM_CM4F/portmacro.h ****  * given hardware and compiler.
  83:Middlewares/Third_Party/FreeRTOS/Source/portable/GCC/ARM_CM4F/portmacro.h ****  *
  84:Middlewares/Third_Party/FreeRTOS/Source/portable/GCC/ARM_CM4F/portmacro.h ****  * These settings should not be altered.
  85:Middlewares/Third_Party/FreeRTOS/Source/portable/GCC/ARM_CM4F/portmacro.h ****  *-----------------------------------------------------------
  86:Middlewares/Third_Party/FreeRTOS/Source/portable/GCC/ARM_CM4F/portmacro.h ****  */
  87:Middlewares/Third_Party/FreeRTOS/Source/portable/GCC/ARM_CM4F/portmacro.h **** 
  88:Middlewares/Third_Party/FreeRTOS/Source/portable/GCC/ARM_CM4F/portmacro.h **** /* Type definitions. */
ARM GAS  /var/folders/n1/76bg37b13ls08p1dhb9rhvd40000gn/T//cc6VEgqh.s 			page 53


  89:Middlewares/Third_Party/FreeRTOS/Source/portable/GCC/ARM_CM4F/portmacro.h **** #define portCHAR		char
  90:Middlewares/Third_Party/FreeRTOS/Source/portable/GCC/ARM_CM4F/portmacro.h **** #define portFLOAT		float
  91:Middlewares/Third_Party/FreeRTOS/Source/portable/GCC/ARM_CM4F/portmacro.h **** #define portDOUBLE		double
  92:Middlewares/Third_Party/FreeRTOS/Source/portable/GCC/ARM_CM4F/portmacro.h **** #define portLONG		long
  93:Middlewares/Third_Party/FreeRTOS/Source/portable/GCC/ARM_CM4F/portmacro.h **** #define portSHORT		short
  94:Middlewares/Third_Party/FreeRTOS/Source/portable/GCC/ARM_CM4F/portmacro.h **** #define portSTACK_TYPE	uint32_t
  95:Middlewares/Third_Party/FreeRTOS/Source/portable/GCC/ARM_CM4F/portmacro.h **** #define portBASE_TYPE	long
  96:Middlewares/Third_Party/FreeRTOS/Source/portable/GCC/ARM_CM4F/portmacro.h **** 
  97:Middlewares/Third_Party/FreeRTOS/Source/portable/GCC/ARM_CM4F/portmacro.h **** typedef portSTACK_TYPE StackType_t;
  98:Middlewares/Third_Party/FreeRTOS/Source/portable/GCC/ARM_CM4F/portmacro.h **** typedef long BaseType_t;
  99:Middlewares/Third_Party/FreeRTOS/Source/portable/GCC/ARM_CM4F/portmacro.h **** typedef unsigned long UBaseType_t;
 100:Middlewares/Third_Party/FreeRTOS/Source/portable/GCC/ARM_CM4F/portmacro.h **** 
 101:Middlewares/Third_Party/FreeRTOS/Source/portable/GCC/ARM_CM4F/portmacro.h **** #if( configUSE_16_BIT_TICKS == 1 )
 102:Middlewares/Third_Party/FreeRTOS/Source/portable/GCC/ARM_CM4F/portmacro.h **** 	typedef uint16_t TickType_t;
 103:Middlewares/Third_Party/FreeRTOS/Source/portable/GCC/ARM_CM4F/portmacro.h **** 	#define portMAX_DELAY ( TickType_t ) 0xffff
 104:Middlewares/Third_Party/FreeRTOS/Source/portable/GCC/ARM_CM4F/portmacro.h **** #else
 105:Middlewares/Third_Party/FreeRTOS/Source/portable/GCC/ARM_CM4F/portmacro.h **** 	typedef uint32_t TickType_t;
 106:Middlewares/Third_Party/FreeRTOS/Source/portable/GCC/ARM_CM4F/portmacro.h **** 	#define portMAX_DELAY ( TickType_t ) 0xffffffffUL
 107:Middlewares/Third_Party/FreeRTOS/Source/portable/GCC/ARM_CM4F/portmacro.h **** 
 108:Middlewares/Third_Party/FreeRTOS/Source/portable/GCC/ARM_CM4F/portmacro.h **** 	/* 32-bit tick type on a 32-bit architecture, so reads of the tick count do
 109:Middlewares/Third_Party/FreeRTOS/Source/portable/GCC/ARM_CM4F/portmacro.h **** 	not need to be guarded with a critical section. */
 110:Middlewares/Third_Party/FreeRTOS/Source/portable/GCC/ARM_CM4F/portmacro.h **** 	#define portTICK_TYPE_IS_ATOMIC 1
 111:Middlewares/Third_Party/FreeRTOS/Source/portable/GCC/ARM_CM4F/portmacro.h **** #endif
 112:Middlewares/Third_Party/FreeRTOS/Source/portable/GCC/ARM_CM4F/portmacro.h **** /*-----------------------------------------------------------*/
 113:Middlewares/Third_Party/FreeRTOS/Source/portable/GCC/ARM_CM4F/portmacro.h **** 
 114:Middlewares/Third_Party/FreeRTOS/Source/portable/GCC/ARM_CM4F/portmacro.h **** /* Architecture specifics. */
 115:Middlewares/Third_Party/FreeRTOS/Source/portable/GCC/ARM_CM4F/portmacro.h **** #define portSTACK_GROWTH			( -1 )
 116:Middlewares/Third_Party/FreeRTOS/Source/portable/GCC/ARM_CM4F/portmacro.h **** #define portTICK_PERIOD_MS			( ( TickType_t ) 1000 / configTICK_RATE_HZ )
 117:Middlewares/Third_Party/FreeRTOS/Source/portable/GCC/ARM_CM4F/portmacro.h **** #define portBYTE_ALIGNMENT			8
 118:Middlewares/Third_Party/FreeRTOS/Source/portable/GCC/ARM_CM4F/portmacro.h **** /*-----------------------------------------------------------*/
 119:Middlewares/Third_Party/FreeRTOS/Source/portable/GCC/ARM_CM4F/portmacro.h **** 
 120:Middlewares/Third_Party/FreeRTOS/Source/portable/GCC/ARM_CM4F/portmacro.h **** /* Scheduler utilities. */
 121:Middlewares/Third_Party/FreeRTOS/Source/portable/GCC/ARM_CM4F/portmacro.h **** #define portYIELD() 															\
 122:Middlewares/Third_Party/FreeRTOS/Source/portable/GCC/ARM_CM4F/portmacro.h **** {																				\
 123:Middlewares/Third_Party/FreeRTOS/Source/portable/GCC/ARM_CM4F/portmacro.h **** 	/* Set a PendSV to request a context switch. */								\
 124:Middlewares/Third_Party/FreeRTOS/Source/portable/GCC/ARM_CM4F/portmacro.h **** 	portNVIC_INT_CTRL_REG = portNVIC_PENDSVSET_BIT;								\
 125:Middlewares/Third_Party/FreeRTOS/Source/portable/GCC/ARM_CM4F/portmacro.h **** 																				\
 126:Middlewares/Third_Party/FreeRTOS/Source/portable/GCC/ARM_CM4F/portmacro.h **** 	/* Barriers are normally not required but do ensure the code is completely	\
 127:Middlewares/Third_Party/FreeRTOS/Source/portable/GCC/ARM_CM4F/portmacro.h **** 	within the specified behaviour for the architecture. */						\
 128:Middlewares/Third_Party/FreeRTOS/Source/portable/GCC/ARM_CM4F/portmacro.h **** 	__asm volatile( "dsb" );													\
 129:Middlewares/Third_Party/FreeRTOS/Source/portable/GCC/ARM_CM4F/portmacro.h **** 	__asm volatile( "isb" );													\
 130:Middlewares/Third_Party/FreeRTOS/Source/portable/GCC/ARM_CM4F/portmacro.h **** }
 131:Middlewares/Third_Party/FreeRTOS/Source/portable/GCC/ARM_CM4F/portmacro.h **** 
 132:Middlewares/Third_Party/FreeRTOS/Source/portable/GCC/ARM_CM4F/portmacro.h **** #define portNVIC_INT_CTRL_REG		( * ( ( volatile uint32_t * ) 0xe000ed04 ) )
 133:Middlewares/Third_Party/FreeRTOS/Source/portable/GCC/ARM_CM4F/portmacro.h **** #define portNVIC_PENDSVSET_BIT		( 1UL << 28UL )
 134:Middlewares/Third_Party/FreeRTOS/Source/portable/GCC/ARM_CM4F/portmacro.h **** #define portEND_SWITCHING_ISR( xSwitchRequired ) if( xSwitchRequired != pdFALSE ) portYIELD()
 135:Middlewares/Third_Party/FreeRTOS/Source/portable/GCC/ARM_CM4F/portmacro.h **** #define portYIELD_FROM_ISR( x ) portEND_SWITCHING_ISR( x )
 136:Middlewares/Third_Party/FreeRTOS/Source/portable/GCC/ARM_CM4F/portmacro.h **** /*-----------------------------------------------------------*/
 137:Middlewares/Third_Party/FreeRTOS/Source/portable/GCC/ARM_CM4F/portmacro.h **** 
 138:Middlewares/Third_Party/FreeRTOS/Source/portable/GCC/ARM_CM4F/portmacro.h **** /* Critical section management. */
 139:Middlewares/Third_Party/FreeRTOS/Source/portable/GCC/ARM_CM4F/portmacro.h **** extern void vPortEnterCritical( void );
 140:Middlewares/Third_Party/FreeRTOS/Source/portable/GCC/ARM_CM4F/portmacro.h **** extern void vPortExitCritical( void );
 141:Middlewares/Third_Party/FreeRTOS/Source/portable/GCC/ARM_CM4F/portmacro.h **** #define portSET_INTERRUPT_MASK_FROM_ISR()		ulPortRaiseBASEPRI()
 142:Middlewares/Third_Party/FreeRTOS/Source/portable/GCC/ARM_CM4F/portmacro.h **** #define portCLEAR_INTERRUPT_MASK_FROM_ISR(x)	vPortSetBASEPRI(x)
 143:Middlewares/Third_Party/FreeRTOS/Source/portable/GCC/ARM_CM4F/portmacro.h **** #define portDISABLE_INTERRUPTS()				vPortRaiseBASEPRI()
 144:Middlewares/Third_Party/FreeRTOS/Source/portable/GCC/ARM_CM4F/portmacro.h **** #define portENABLE_INTERRUPTS()					vPortSetBASEPRI(0)
 145:Middlewares/Third_Party/FreeRTOS/Source/portable/GCC/ARM_CM4F/portmacro.h **** #define portENTER_CRITICAL()					vPortEnterCritical()
ARM GAS  /var/folders/n1/76bg37b13ls08p1dhb9rhvd40000gn/T//cc6VEgqh.s 			page 54


 146:Middlewares/Third_Party/FreeRTOS/Source/portable/GCC/ARM_CM4F/portmacro.h **** #define portEXIT_CRITICAL()						vPortExitCritical()
 147:Middlewares/Third_Party/FreeRTOS/Source/portable/GCC/ARM_CM4F/portmacro.h **** 
 148:Middlewares/Third_Party/FreeRTOS/Source/portable/GCC/ARM_CM4F/portmacro.h **** /*-----------------------------------------------------------*/
 149:Middlewares/Third_Party/FreeRTOS/Source/portable/GCC/ARM_CM4F/portmacro.h **** 
 150:Middlewares/Third_Party/FreeRTOS/Source/portable/GCC/ARM_CM4F/portmacro.h **** /* Task function macros as described on the FreeRTOS.org WEB site.  These are
 151:Middlewares/Third_Party/FreeRTOS/Source/portable/GCC/ARM_CM4F/portmacro.h **** not necessary for to use this port.  They are defined so the common demo files
 152:Middlewares/Third_Party/FreeRTOS/Source/portable/GCC/ARM_CM4F/portmacro.h **** (which build with all the ports) will build. */
 153:Middlewares/Third_Party/FreeRTOS/Source/portable/GCC/ARM_CM4F/portmacro.h **** #define portTASK_FUNCTION_PROTO( vFunction, pvParameters ) void vFunction( void *pvParameters )
 154:Middlewares/Third_Party/FreeRTOS/Source/portable/GCC/ARM_CM4F/portmacro.h **** #define portTASK_FUNCTION( vFunction, pvParameters ) void vFunction( void *pvParameters )
 155:Middlewares/Third_Party/FreeRTOS/Source/portable/GCC/ARM_CM4F/portmacro.h **** /*-----------------------------------------------------------*/
 156:Middlewares/Third_Party/FreeRTOS/Source/portable/GCC/ARM_CM4F/portmacro.h **** 
 157:Middlewares/Third_Party/FreeRTOS/Source/portable/GCC/ARM_CM4F/portmacro.h **** /* Tickless idle/low power functionality. */
 158:Middlewares/Third_Party/FreeRTOS/Source/portable/GCC/ARM_CM4F/portmacro.h **** #ifndef portSUPPRESS_TICKS_AND_SLEEP
 159:Middlewares/Third_Party/FreeRTOS/Source/portable/GCC/ARM_CM4F/portmacro.h **** 	extern void vPortSuppressTicksAndSleep( TickType_t xExpectedIdleTime );
 160:Middlewares/Third_Party/FreeRTOS/Source/portable/GCC/ARM_CM4F/portmacro.h **** 	#define portSUPPRESS_TICKS_AND_SLEEP( xExpectedIdleTime ) vPortSuppressTicksAndSleep( xExpectedIdl
 161:Middlewares/Third_Party/FreeRTOS/Source/portable/GCC/ARM_CM4F/portmacro.h **** #endif
 162:Middlewares/Third_Party/FreeRTOS/Source/portable/GCC/ARM_CM4F/portmacro.h **** /*-----------------------------------------------------------*/
 163:Middlewares/Third_Party/FreeRTOS/Source/portable/GCC/ARM_CM4F/portmacro.h **** 
 164:Middlewares/Third_Party/FreeRTOS/Source/portable/GCC/ARM_CM4F/portmacro.h **** /* Architecture specific optimisations. */
 165:Middlewares/Third_Party/FreeRTOS/Source/portable/GCC/ARM_CM4F/portmacro.h **** #ifndef configUSE_PORT_OPTIMISED_TASK_SELECTION
 166:Middlewares/Third_Party/FreeRTOS/Source/portable/GCC/ARM_CM4F/portmacro.h **** 	#define configUSE_PORT_OPTIMISED_TASK_SELECTION 1
 167:Middlewares/Third_Party/FreeRTOS/Source/portable/GCC/ARM_CM4F/portmacro.h **** #endif
 168:Middlewares/Third_Party/FreeRTOS/Source/portable/GCC/ARM_CM4F/portmacro.h **** 
 169:Middlewares/Third_Party/FreeRTOS/Source/portable/GCC/ARM_CM4F/portmacro.h **** #if configUSE_PORT_OPTIMISED_TASK_SELECTION == 1
 170:Middlewares/Third_Party/FreeRTOS/Source/portable/GCC/ARM_CM4F/portmacro.h **** 
 171:Middlewares/Third_Party/FreeRTOS/Source/portable/GCC/ARM_CM4F/portmacro.h **** 	/* Generic helper function. */
 172:Middlewares/Third_Party/FreeRTOS/Source/portable/GCC/ARM_CM4F/portmacro.h **** 	__attribute__( ( always_inline ) ) static inline uint8_t ucPortCountLeadingZeros( uint32_t ulBitma
 173:Middlewares/Third_Party/FreeRTOS/Source/portable/GCC/ARM_CM4F/portmacro.h **** 	{
 174:Middlewares/Third_Party/FreeRTOS/Source/portable/GCC/ARM_CM4F/portmacro.h **** 	uint8_t ucReturn;
 175:Middlewares/Third_Party/FreeRTOS/Source/portable/GCC/ARM_CM4F/portmacro.h **** 
 176:Middlewares/Third_Party/FreeRTOS/Source/portable/GCC/ARM_CM4F/portmacro.h **** 		__asm volatile ( "clz %0, %1" : "=r" ( ucReturn ) : "r" ( ulBitmap ) );
 177:Middlewares/Third_Party/FreeRTOS/Source/portable/GCC/ARM_CM4F/portmacro.h **** 		return ucReturn;
 178:Middlewares/Third_Party/FreeRTOS/Source/portable/GCC/ARM_CM4F/portmacro.h **** 	}
 179:Middlewares/Third_Party/FreeRTOS/Source/portable/GCC/ARM_CM4F/portmacro.h **** 
 180:Middlewares/Third_Party/FreeRTOS/Source/portable/GCC/ARM_CM4F/portmacro.h **** 	/* Check the configuration. */
 181:Middlewares/Third_Party/FreeRTOS/Source/portable/GCC/ARM_CM4F/portmacro.h **** 	#if( configMAX_PRIORITIES > 32 )
 182:Middlewares/Third_Party/FreeRTOS/Source/portable/GCC/ARM_CM4F/portmacro.h **** 		#error configUSE_PORT_OPTIMISED_TASK_SELECTION can only be set to 1 when configMAX_PRIORITIES is 
 183:Middlewares/Third_Party/FreeRTOS/Source/portable/GCC/ARM_CM4F/portmacro.h **** 	#endif
 184:Middlewares/Third_Party/FreeRTOS/Source/portable/GCC/ARM_CM4F/portmacro.h **** 
 185:Middlewares/Third_Party/FreeRTOS/Source/portable/GCC/ARM_CM4F/portmacro.h **** 	/* Store/clear the ready priorities in a bit map. */
 186:Middlewares/Third_Party/FreeRTOS/Source/portable/GCC/ARM_CM4F/portmacro.h **** 	#define portRECORD_READY_PRIORITY( uxPriority, uxReadyPriorities ) ( uxReadyPriorities ) |= ( 1UL 
 187:Middlewares/Third_Party/FreeRTOS/Source/portable/GCC/ARM_CM4F/portmacro.h **** 	#define portRESET_READY_PRIORITY( uxPriority, uxReadyPriorities ) ( uxReadyPriorities ) &= ~( 1UL 
 188:Middlewares/Third_Party/FreeRTOS/Source/portable/GCC/ARM_CM4F/portmacro.h **** 
 189:Middlewares/Third_Party/FreeRTOS/Source/portable/GCC/ARM_CM4F/portmacro.h **** 	/*-----------------------------------------------------------*/
 190:Middlewares/Third_Party/FreeRTOS/Source/portable/GCC/ARM_CM4F/portmacro.h **** 
 191:Middlewares/Third_Party/FreeRTOS/Source/portable/GCC/ARM_CM4F/portmacro.h **** 	#define portGET_HIGHEST_PRIORITY( uxTopPriority, uxReadyPriorities ) uxTopPriority = ( 31UL - ( ui
 192:Middlewares/Third_Party/FreeRTOS/Source/portable/GCC/ARM_CM4F/portmacro.h **** 
 193:Middlewares/Third_Party/FreeRTOS/Source/portable/GCC/ARM_CM4F/portmacro.h **** #endif /* configUSE_PORT_OPTIMISED_TASK_SELECTION */
 194:Middlewares/Third_Party/FreeRTOS/Source/portable/GCC/ARM_CM4F/portmacro.h **** 
 195:Middlewares/Third_Party/FreeRTOS/Source/portable/GCC/ARM_CM4F/portmacro.h **** /*-----------------------------------------------------------*/
 196:Middlewares/Third_Party/FreeRTOS/Source/portable/GCC/ARM_CM4F/portmacro.h **** 
 197:Middlewares/Third_Party/FreeRTOS/Source/portable/GCC/ARM_CM4F/portmacro.h **** #ifdef configASSERT
 198:Middlewares/Third_Party/FreeRTOS/Source/portable/GCC/ARM_CM4F/portmacro.h **** 	void vPortValidateInterruptPriority( void );
 199:Middlewares/Third_Party/FreeRTOS/Source/portable/GCC/ARM_CM4F/portmacro.h **** 	#define portASSERT_IF_INTERRUPT_PRIORITY_INVALID() 	vPortValidateInterruptPriority()
 200:Middlewares/Third_Party/FreeRTOS/Source/portable/GCC/ARM_CM4F/portmacro.h **** #endif
 201:Middlewares/Third_Party/FreeRTOS/Source/portable/GCC/ARM_CM4F/portmacro.h **** 
 202:Middlewares/Third_Party/FreeRTOS/Source/portable/GCC/ARM_CM4F/portmacro.h **** /* portNOP() is not required by this port. */
ARM GAS  /var/folders/n1/76bg37b13ls08p1dhb9rhvd40000gn/T//cc6VEgqh.s 			page 55


 203:Middlewares/Third_Party/FreeRTOS/Source/portable/GCC/ARM_CM4F/portmacro.h **** #define portNOP()
 204:Middlewares/Third_Party/FreeRTOS/Source/portable/GCC/ARM_CM4F/portmacro.h **** 
 205:Middlewares/Third_Party/FreeRTOS/Source/portable/GCC/ARM_CM4F/portmacro.h **** #define portINLINE	__inline
 206:Middlewares/Third_Party/FreeRTOS/Source/portable/GCC/ARM_CM4F/portmacro.h **** 
 207:Middlewares/Third_Party/FreeRTOS/Source/portable/GCC/ARM_CM4F/portmacro.h **** #ifndef portFORCE_INLINE
 208:Middlewares/Third_Party/FreeRTOS/Source/portable/GCC/ARM_CM4F/portmacro.h **** 	#define portFORCE_INLINE inline __attribute__(( always_inline))
 209:Middlewares/Third_Party/FreeRTOS/Source/portable/GCC/ARM_CM4F/portmacro.h **** #endif
 210:Middlewares/Third_Party/FreeRTOS/Source/portable/GCC/ARM_CM4F/portmacro.h **** 
 211:Middlewares/Third_Party/FreeRTOS/Source/portable/GCC/ARM_CM4F/portmacro.h **** portFORCE_INLINE static BaseType_t xPortIsInsideInterrupt( void )
 212:Middlewares/Third_Party/FreeRTOS/Source/portable/GCC/ARM_CM4F/portmacro.h **** {
 213:Middlewares/Third_Party/FreeRTOS/Source/portable/GCC/ARM_CM4F/portmacro.h **** uint32_t ulCurrentInterrupt;
 214:Middlewares/Third_Party/FreeRTOS/Source/portable/GCC/ARM_CM4F/portmacro.h **** BaseType_t xReturn;
 215:Middlewares/Third_Party/FreeRTOS/Source/portable/GCC/ARM_CM4F/portmacro.h **** 
 216:Middlewares/Third_Party/FreeRTOS/Source/portable/GCC/ARM_CM4F/portmacro.h **** 	/* Obtain the number of the currently executing interrupt. */
 217:Middlewares/Third_Party/FreeRTOS/Source/portable/GCC/ARM_CM4F/portmacro.h **** 	__asm volatile( "mrs %0, ipsr" : "=r"( ulCurrentInterrupt ) );
 218:Middlewares/Third_Party/FreeRTOS/Source/portable/GCC/ARM_CM4F/portmacro.h **** 
 219:Middlewares/Third_Party/FreeRTOS/Source/portable/GCC/ARM_CM4F/portmacro.h **** 	if( ulCurrentInterrupt == 0 )
 220:Middlewares/Third_Party/FreeRTOS/Source/portable/GCC/ARM_CM4F/portmacro.h **** 	{
 221:Middlewares/Third_Party/FreeRTOS/Source/portable/GCC/ARM_CM4F/portmacro.h **** 		xReturn = pdFALSE;
 222:Middlewares/Third_Party/FreeRTOS/Source/portable/GCC/ARM_CM4F/portmacro.h **** 	}
 223:Middlewares/Third_Party/FreeRTOS/Source/portable/GCC/ARM_CM4F/portmacro.h **** 	else
 224:Middlewares/Third_Party/FreeRTOS/Source/portable/GCC/ARM_CM4F/portmacro.h **** 	{
 225:Middlewares/Third_Party/FreeRTOS/Source/portable/GCC/ARM_CM4F/portmacro.h **** 		xReturn = pdTRUE;
 226:Middlewares/Third_Party/FreeRTOS/Source/portable/GCC/ARM_CM4F/portmacro.h **** 	}
 227:Middlewares/Third_Party/FreeRTOS/Source/portable/GCC/ARM_CM4F/portmacro.h **** 
 228:Middlewares/Third_Party/FreeRTOS/Source/portable/GCC/ARM_CM4F/portmacro.h **** 	return xReturn;
 229:Middlewares/Third_Party/FreeRTOS/Source/portable/GCC/ARM_CM4F/portmacro.h **** }
 230:Middlewares/Third_Party/FreeRTOS/Source/portable/GCC/ARM_CM4F/portmacro.h **** 
 231:Middlewares/Third_Party/FreeRTOS/Source/portable/GCC/ARM_CM4F/portmacro.h **** /*-----------------------------------------------------------*/
 232:Middlewares/Third_Party/FreeRTOS/Source/portable/GCC/ARM_CM4F/portmacro.h **** 
 233:Middlewares/Third_Party/FreeRTOS/Source/portable/GCC/ARM_CM4F/portmacro.h **** portFORCE_INLINE static void vPortRaiseBASEPRI( void )
 234:Middlewares/Third_Party/FreeRTOS/Source/portable/GCC/ARM_CM4F/portmacro.h **** {
 235:Middlewares/Third_Party/FreeRTOS/Source/portable/GCC/ARM_CM4F/portmacro.h **** uint32_t ulNewBASEPRI;
 236:Middlewares/Third_Party/FreeRTOS/Source/portable/GCC/ARM_CM4F/portmacro.h **** 
 237:Middlewares/Third_Party/FreeRTOS/Source/portable/GCC/ARM_CM4F/portmacro.h **** 	__asm volatile
 238:Middlewares/Third_Party/FreeRTOS/Source/portable/GCC/ARM_CM4F/portmacro.h **** 	(
 239:Middlewares/Third_Party/FreeRTOS/Source/portable/GCC/ARM_CM4F/portmacro.h **** 		"	mov %0, %1												\n"	\
 240:Middlewares/Third_Party/FreeRTOS/Source/portable/GCC/ARM_CM4F/portmacro.h **** 		"	msr basepri, %0											\n" \
 241:Middlewares/Third_Party/FreeRTOS/Source/portable/GCC/ARM_CM4F/portmacro.h **** 		"	isb														\n" \
 242:Middlewares/Third_Party/FreeRTOS/Source/portable/GCC/ARM_CM4F/portmacro.h **** 		"	dsb														\n" \
 243:Middlewares/Third_Party/FreeRTOS/Source/portable/GCC/ARM_CM4F/portmacro.h **** 		:"=r" (ulNewBASEPRI) : "i" ( configMAX_SYSCALL_INTERRUPT_PRIORITY )
 244:Middlewares/Third_Party/FreeRTOS/Source/portable/GCC/ARM_CM4F/portmacro.h **** 	);
 245:Middlewares/Third_Party/FreeRTOS/Source/portable/GCC/ARM_CM4F/portmacro.h **** }
 246:Middlewares/Third_Party/FreeRTOS/Source/portable/GCC/ARM_CM4F/portmacro.h **** 
 247:Middlewares/Third_Party/FreeRTOS/Source/portable/GCC/ARM_CM4F/portmacro.h **** /*-----------------------------------------------------------*/
 248:Middlewares/Third_Party/FreeRTOS/Source/portable/GCC/ARM_CM4F/portmacro.h **** 
 249:Middlewares/Third_Party/FreeRTOS/Source/portable/GCC/ARM_CM4F/portmacro.h **** portFORCE_INLINE static uint32_t ulPortRaiseBASEPRI( void )
 1765              		.loc 3 249 34 view .LVU408
 1766              	.LBB11:
 250:Middlewares/Third_Party/FreeRTOS/Source/portable/GCC/ARM_CM4F/portmacro.h **** {
 251:Middlewares/Third_Party/FreeRTOS/Source/portable/GCC/ARM_CM4F/portmacro.h **** uint32_t ulOriginalBASEPRI, ulNewBASEPRI;
 1767              		.loc 3 251 1 view .LVU409
 252:Middlewares/Third_Party/FreeRTOS/Source/portable/GCC/ARM_CM4F/portmacro.h **** 
 253:Middlewares/Third_Party/FreeRTOS/Source/portable/GCC/ARM_CM4F/portmacro.h **** 	__asm volatile
 1768              		.loc 3 253 2 view .LVU410
 1769              		.syntax unified
 1770              	@ 253 "Middlewares/Third_Party/FreeRTOS/Source/portable/GCC/ARM_CM4F/portmacro.h" 1
ARM GAS  /var/folders/n1/76bg37b13ls08p1dhb9rhvd40000gn/T//cc6VEgqh.s 			page 56


 1771 000a EFF31185 			mrs r5, basepri											
 1772 000e 4FF05003 		mov r3, #80												
 1773 0012 83F31188 		msr basepri, r3											
 1774 0016 BFF36F8F 		isb														
 1775 001a BFF34F8F 		dsb														
 1776              	
 1777              	@ 0 "" 2
 1778              	.LVL125:
 254:Middlewares/Third_Party/FreeRTOS/Source/portable/GCC/ARM_CM4F/portmacro.h **** 	(
 255:Middlewares/Third_Party/FreeRTOS/Source/portable/GCC/ARM_CM4F/portmacro.h **** 		"	mrs %0, basepri											\n" \
 256:Middlewares/Third_Party/FreeRTOS/Source/portable/GCC/ARM_CM4F/portmacro.h **** 		"	mov %1, %2												\n"	\
 257:Middlewares/Third_Party/FreeRTOS/Source/portable/GCC/ARM_CM4F/portmacro.h **** 		"	msr basepri, %1											\n" \
 258:Middlewares/Third_Party/FreeRTOS/Source/portable/GCC/ARM_CM4F/portmacro.h **** 		"	isb														\n" \
 259:Middlewares/Third_Party/FreeRTOS/Source/portable/GCC/ARM_CM4F/portmacro.h **** 		"	dsb														\n" \
 260:Middlewares/Third_Party/FreeRTOS/Source/portable/GCC/ARM_CM4F/portmacro.h **** 		:"=r" (ulOriginalBASEPRI), "=r" (ulNewBASEPRI) : "i" ( configMAX_SYSCALL_INTERRUPT_PRIORITY )
 261:Middlewares/Third_Party/FreeRTOS/Source/portable/GCC/ARM_CM4F/portmacro.h **** 	);
 262:Middlewares/Third_Party/FreeRTOS/Source/portable/GCC/ARM_CM4F/portmacro.h **** 
 263:Middlewares/Third_Party/FreeRTOS/Source/portable/GCC/ARM_CM4F/portmacro.h **** 	/* This return will not be reached but is necessary to prevent compiler
 264:Middlewares/Third_Party/FreeRTOS/Source/portable/GCC/ARM_CM4F/portmacro.h **** 	warnings. */
 265:Middlewares/Third_Party/FreeRTOS/Source/portable/GCC/ARM_CM4F/portmacro.h **** 	return ulOriginalBASEPRI;
 1779              		.loc 3 265 2 view .LVU411
 1780              		.thumb
 1781              		.syntax unified
 1782              	.L135:
 1783              		.loc 3 265 2 is_stmt 0 view .LVU412
 1784              	.LBE11:
 1785              	.LBE10:
 988:Middlewares/Third_Party/FreeRTOS/Source/CMSIS_RTOS/cmsis_os.c ****   }
 989:Middlewares/Third_Party/FreeRTOS/Source/CMSIS_RTOS/cmsis_os.c ****   else {
 990:Middlewares/Third_Party/FreeRTOS/Source/CMSIS_RTOS/cmsis_os.c ****     vPortEnterCritical();
 991:Middlewares/Third_Party/FreeRTOS/Source/CMSIS_RTOS/cmsis_os.c ****   }
 992:Middlewares/Third_Party/FreeRTOS/Source/CMSIS_RTOS/cmsis_os.c ****   
 993:Middlewares/Third_Party/FreeRTOS/Source/CMSIS_RTOS/cmsis_os.c ****   for (i = 0; i < pool_id->pool_sz; i++) {
 1786              		.loc 1 993 3 is_stmt 1 view .LVU413
 1787              		.loc 1 993 10 is_stmt 0 view .LVU414
 1788 001e 0022     		movs	r2, #0
 1789              		.loc 1 993 3 view .LVU415
 1790 0020 08E0     		b	.L136
 1791              	.LVL126:
 1792              	.L134:
 1793              		.loc 1 993 3 view .LVU416
 1794 0022 0546     		mov	r5, r0
 990:Middlewares/Third_Party/FreeRTOS/Source/CMSIS_RTOS/cmsis_os.c ****   }
 1795              		.loc 1 990 5 is_stmt 1 view .LVU417
 1796 0024 FFF7FEFF 		bl	vPortEnterCritical
 1797              	.LVL127:
 1798 0028 F9E7     		b	.L135
 1799              	.LVL128:
 1800              	.L137:
 994:Middlewares/Third_Party/FreeRTOS/Source/CMSIS_RTOS/cmsis_os.c ****     index = pool_id->currentIndex + i;
 995:Middlewares/Third_Party/FreeRTOS/Source/CMSIS_RTOS/cmsis_os.c ****     if (index >= pool_id->pool_sz) {
 996:Middlewares/Third_Party/FreeRTOS/Source/CMSIS_RTOS/cmsis_os.c ****       index = 0;
 997:Middlewares/Third_Party/FreeRTOS/Source/CMSIS_RTOS/cmsis_os.c ****     }
 998:Middlewares/Third_Party/FreeRTOS/Source/CMSIS_RTOS/cmsis_os.c ****     
 999:Middlewares/Third_Party/FreeRTOS/Source/CMSIS_RTOS/cmsis_os.c ****     if (pool_id->markers[index] == 0) {
 1801              		.loc 1 999 5 view .LVU418
 1802              		.loc 1 999 16 is_stmt 0 view .LVU419
ARM GAS  /var/folders/n1/76bg37b13ls08p1dhb9rhvd40000gn/T//cc6VEgqh.s 			page 57


 1803 002a 6168     		ldr	r1, [r4, #4]
 1804              		.loc 1 999 25 view .LVU420
 1805 002c C818     		adds	r0, r1, r3
 1806 002e C95C     		ldrb	r1, [r1, r3]	@ zero_extendqisi2
 1807              		.loc 1 999 8 view .LVU421
 1808 0030 49B1     		cbz	r1, .L145
 993:Middlewares/Third_Party/FreeRTOS/Source/CMSIS_RTOS/cmsis_os.c ****     index = pool_id->currentIndex + i;
 1809              		.loc 1 993 38 discriminator 2 view .LVU422
 1810 0032 0132     		adds	r2, r2, #1
 1811              	.LVL129:
 1812              	.L136:
 993:Middlewares/Third_Party/FreeRTOS/Source/CMSIS_RTOS/cmsis_os.c ****     index = pool_id->currentIndex + i;
 1813              		.loc 1 993 26 discriminator 1 view .LVU423
 1814 0034 A168     		ldr	r1, [r4, #8]
 993:Middlewares/Third_Party/FreeRTOS/Source/CMSIS_RTOS/cmsis_os.c ****     index = pool_id->currentIndex + i;
 1815              		.loc 1 993 3 discriminator 1 view .LVU424
 1816 0036 9142     		cmp	r1, r2
 1817 0038 0DD9     		bls	.L146
 994:Middlewares/Third_Party/FreeRTOS/Source/CMSIS_RTOS/cmsis_os.c ****     index = pool_id->currentIndex + i;
 1818              		.loc 1 994 5 is_stmt 1 view .LVU425
 994:Middlewares/Third_Party/FreeRTOS/Source/CMSIS_RTOS/cmsis_os.c ****     index = pool_id->currentIndex + i;
 1819              		.loc 1 994 20 is_stmt 0 view .LVU426
 1820 003a 2369     		ldr	r3, [r4, #16]
 994:Middlewares/Third_Party/FreeRTOS/Source/CMSIS_RTOS/cmsis_os.c ****     index = pool_id->currentIndex + i;
 1821              		.loc 1 994 11 view .LVU427
 1822 003c 1344     		add	r3, r3, r2
 1823              	.LVL130:
 995:Middlewares/Third_Party/FreeRTOS/Source/CMSIS_RTOS/cmsis_os.c ****       index = 0;
 1824              		.loc 1 995 5 is_stmt 1 view .LVU428
 995:Middlewares/Third_Party/FreeRTOS/Source/CMSIS_RTOS/cmsis_os.c ****       index = 0;
 1825              		.loc 1 995 8 is_stmt 0 view .LVU429
 1826 003e 9942     		cmp	r1, r3
 1827 0040 F3D8     		bhi	.L137
 996:Middlewares/Third_Party/FreeRTOS/Source/CMSIS_RTOS/cmsis_os.c ****     }
 1828              		.loc 1 996 13 view .LVU430
 1829 0042 0023     		movs	r3, #0
 1830              	.LVL131:
 996:Middlewares/Third_Party/FreeRTOS/Source/CMSIS_RTOS/cmsis_os.c ****     }
 1831              		.loc 1 996 13 view .LVU431
 1832 0044 F1E7     		b	.L137
 1833              	.LVL132:
 1834              	.L145:
1000:Middlewares/Third_Party/FreeRTOS/Source/CMSIS_RTOS/cmsis_os.c ****       pool_id->markers[index] = 1;
 1835              		.loc 1 1000 7 is_stmt 1 view .LVU432
 1836              		.loc 1 1000 31 is_stmt 0 view .LVU433
 1837 0046 0122     		movs	r2, #1
 1838              	.LVL133:
 1839              		.loc 1 1000 31 view .LVU434
 1840 0048 0270     		strb	r2, [r0]
1001:Middlewares/Third_Party/FreeRTOS/Source/CMSIS_RTOS/cmsis_os.c ****       p = (void *)((uint32_t)(pool_id->pool) + (index * pool_id->item_sz));
 1841              		.loc 1 1001 7 is_stmt 1 view .LVU435
 1842              		.loc 1 1001 38 is_stmt 0 view .LVU436
 1843 004a 2268     		ldr	r2, [r4]
 1844              		.loc 1 1001 64 view .LVU437
 1845 004c E668     		ldr	r6, [r4, #12]
 1846              		.loc 1 1001 46 view .LVU438
 1847 004e 03FB0626 		mla	r6, r3, r6, r2
ARM GAS  /var/folders/n1/76bg37b13ls08p1dhb9rhvd40000gn/T//cc6VEgqh.s 			page 58


 1848              	.LVL134:
1002:Middlewares/Third_Party/FreeRTOS/Source/CMSIS_RTOS/cmsis_os.c ****       pool_id->currentIndex = index;
 1849              		.loc 1 1002 7 is_stmt 1 view .LVU439
 1850              		.loc 1 1002 29 is_stmt 0 view .LVU440
 1851 0052 2361     		str	r3, [r4, #16]
1003:Middlewares/Third_Party/FreeRTOS/Source/CMSIS_RTOS/cmsis_os.c ****       break;
 1852              		.loc 1 1003 7 is_stmt 1 view .LVU441
 1853 0054 00E0     		b	.L139
 1854              	.LVL135:
 1855              	.L146:
 982:Middlewares/Third_Party/FreeRTOS/Source/CMSIS_RTOS/cmsis_os.c ****   uint32_t i;
 1856              		.loc 1 982 9 is_stmt 0 view .LVU442
 1857 0056 0026     		movs	r6, #0
 1858              	.LVL136:
 1859              	.L139:
1004:Middlewares/Third_Party/FreeRTOS/Source/CMSIS_RTOS/cmsis_os.c ****     }
1005:Middlewares/Third_Party/FreeRTOS/Source/CMSIS_RTOS/cmsis_os.c ****   }
1006:Middlewares/Third_Party/FreeRTOS/Source/CMSIS_RTOS/cmsis_os.c ****   
1007:Middlewares/Third_Party/FreeRTOS/Source/CMSIS_RTOS/cmsis_os.c ****   if (inHandlerMode()) {
 1860              		.loc 1 1007 3 is_stmt 1 view .LVU443
 1861              		.loc 1 1007 7 is_stmt 0 view .LVU444
 1862 0058 FFF7FEFF 		bl	inHandlerMode
 1863              	.LVL137:
 1864              		.loc 1 1007 6 view .LVU445
 1865 005c 18B1     		cbz	r0, .L141
1008:Middlewares/Third_Party/FreeRTOS/Source/CMSIS_RTOS/cmsis_os.c ****     portCLEAR_INTERRUPT_MASK_FROM_ISR(dummy);
 1866              		.loc 1 1008 5 is_stmt 1 view .LVU446
 1867              	.LVL138:
 1868              	.LBB12:
 1869              	.LBI12:
 266:Middlewares/Third_Party/FreeRTOS/Source/portable/GCC/ARM_CM4F/portmacro.h **** }
 267:Middlewares/Third_Party/FreeRTOS/Source/portable/GCC/ARM_CM4F/portmacro.h **** /*-----------------------------------------------------------*/
 268:Middlewares/Third_Party/FreeRTOS/Source/portable/GCC/ARM_CM4F/portmacro.h **** 
 269:Middlewares/Third_Party/FreeRTOS/Source/portable/GCC/ARM_CM4F/portmacro.h **** portFORCE_INLINE static void vPortSetBASEPRI( uint32_t ulNewMaskValue )
 1870              		.loc 3 269 30 view .LVU447
 1871              	.LBB13:
 270:Middlewares/Third_Party/FreeRTOS/Source/portable/GCC/ARM_CM4F/portmacro.h **** {
 271:Middlewares/Third_Party/FreeRTOS/Source/portable/GCC/ARM_CM4F/portmacro.h **** 	__asm volatile
 1872              		.loc 3 271 2 view .LVU448
 1873              		.syntax unified
 1874              	@ 271 "Middlewares/Third_Party/FreeRTOS/Source/portable/GCC/ARM_CM4F/portmacro.h" 1
 1875 005e 85F31188 			msr basepri, r5	
 1876              	@ 0 "" 2
 1877              	.LVL139:
 1878              		.thumb
 1879              		.syntax unified
 1880              	.L133:
 1881              		.loc 3 271 2 is_stmt 0 view .LVU449
 1882              	.LBE13:
 1883              	.LBE12:
1009:Middlewares/Third_Party/FreeRTOS/Source/CMSIS_RTOS/cmsis_os.c ****   }
1010:Middlewares/Third_Party/FreeRTOS/Source/CMSIS_RTOS/cmsis_os.c ****   else {
1011:Middlewares/Third_Party/FreeRTOS/Source/CMSIS_RTOS/cmsis_os.c ****     vPortExitCritical();
1012:Middlewares/Third_Party/FreeRTOS/Source/CMSIS_RTOS/cmsis_os.c ****   }
1013:Middlewares/Third_Party/FreeRTOS/Source/CMSIS_RTOS/cmsis_os.c ****   
1014:Middlewares/Third_Party/FreeRTOS/Source/CMSIS_RTOS/cmsis_os.c ****   return p;
1015:Middlewares/Third_Party/FreeRTOS/Source/CMSIS_RTOS/cmsis_os.c **** }
ARM GAS  /var/folders/n1/76bg37b13ls08p1dhb9rhvd40000gn/T//cc6VEgqh.s 			page 59


 1884              		.loc 1 1015 1 view .LVU450
 1885 0062 3046     		mov	r0, r6
 1886 0064 70BD     		pop	{r4, r5, r6, pc}
 1887              	.LVL140:
 1888              	.L141:
1011:Middlewares/Third_Party/FreeRTOS/Source/CMSIS_RTOS/cmsis_os.c ****   }
 1889              		.loc 1 1011 5 is_stmt 1 view .LVU451
 1890 0066 FFF7FEFF 		bl	vPortExitCritical
 1891              	.LVL141:
1014:Middlewares/Third_Party/FreeRTOS/Source/CMSIS_RTOS/cmsis_os.c **** }
 1892              		.loc 1 1014 3 view .LVU452
1014:Middlewares/Third_Party/FreeRTOS/Source/CMSIS_RTOS/cmsis_os.c **** }
 1893              		.loc 1 1014 10 is_stmt 0 view .LVU453
 1894 006a FAE7     		b	.L133
 1895              		.cfi_endproc
 1896              	.LFE58:
 1898              		.section	.text.osPoolCAlloc,"ax",%progbits
 1899              		.align	1
 1900              		.global	osPoolCAlloc
 1901              		.syntax unified
 1902              		.thumb
 1903              		.thumb_func
 1904              		.fpu fpv4-sp-d16
 1906              	osPoolCAlloc:
 1907              	.LVL142:
 1908              	.LFB59:
1016:Middlewares/Third_Party/FreeRTOS/Source/CMSIS_RTOS/cmsis_os.c **** 
1017:Middlewares/Third_Party/FreeRTOS/Source/CMSIS_RTOS/cmsis_os.c **** /**
1018:Middlewares/Third_Party/FreeRTOS/Source/CMSIS_RTOS/cmsis_os.c **** * @brief Allocate a memory block from a memory pool and set memory block to zero
1019:Middlewares/Third_Party/FreeRTOS/Source/CMSIS_RTOS/cmsis_os.c **** * @param  pool_id       memory pool ID obtain referenced with \ref osPoolCreate.
1020:Middlewares/Third_Party/FreeRTOS/Source/CMSIS_RTOS/cmsis_os.c **** * @retval  address of the allocated memory block or NULL in case of no memory available.
1021:Middlewares/Third_Party/FreeRTOS/Source/CMSIS_RTOS/cmsis_os.c **** * @note   MUST REMAIN UNCHANGED: \b osPoolCAlloc shall be consistent in every CMSIS-RTOS.
1022:Middlewares/Third_Party/FreeRTOS/Source/CMSIS_RTOS/cmsis_os.c **** */
1023:Middlewares/Third_Party/FreeRTOS/Source/CMSIS_RTOS/cmsis_os.c **** void *osPoolCAlloc (osPoolId pool_id)
1024:Middlewares/Third_Party/FreeRTOS/Source/CMSIS_RTOS/cmsis_os.c **** {
 1909              		.loc 1 1024 1 is_stmt 1 view -0
 1910              		.cfi_startproc
 1911              		@ args = 0, pretend = 0, frame = 0
 1912              		@ frame_needed = 0, uses_anonymous_args = 0
 1913              		.loc 1 1024 1 is_stmt 0 view .LVU455
 1914 0000 08B5     		push	{r3, lr}
 1915              	.LCFI42:
 1916              		.cfi_def_cfa_offset 8
 1917              		.cfi_offset 3, -8
 1918              		.cfi_offset 14, -4
1025:Middlewares/Third_Party/FreeRTOS/Source/CMSIS_RTOS/cmsis_os.c ****   void *p = osPoolAlloc(pool_id);
 1919              		.loc 1 1025 3 is_stmt 1 view .LVU456
 1920              		.loc 1 1025 13 is_stmt 0 view .LVU457
 1921 0002 FFF7FEFF 		bl	osPoolAlloc
 1922              	.LVL143:
1026:Middlewares/Third_Party/FreeRTOS/Source/CMSIS_RTOS/cmsis_os.c ****   
1027:Middlewares/Third_Party/FreeRTOS/Source/CMSIS_RTOS/cmsis_os.c ****   if (p != NULL)
 1923              		.loc 1 1027 3 is_stmt 1 view .LVU458
 1924              		.loc 1 1027 6 is_stmt 0 view .LVU459
 1925 0006 0346     		mov	r3, r0
 1926 0008 08B1     		cbz	r0, .L147
1028:Middlewares/Third_Party/FreeRTOS/Source/CMSIS_RTOS/cmsis_os.c ****   {
ARM GAS  /var/folders/n1/76bg37b13ls08p1dhb9rhvd40000gn/T//cc6VEgqh.s 			page 60


1029:Middlewares/Third_Party/FreeRTOS/Source/CMSIS_RTOS/cmsis_os.c ****     memset(p, 0, sizeof(pool_id->pool_sz));
 1927              		.loc 1 1029 5 is_stmt 1 view .LVU460
 1928 000a 0022     		movs	r2, #0
 1929 000c 0260     		str	r2, [r0]	@ unaligned
1030:Middlewares/Third_Party/FreeRTOS/Source/CMSIS_RTOS/cmsis_os.c ****   }
1031:Middlewares/Third_Party/FreeRTOS/Source/CMSIS_RTOS/cmsis_os.c ****   
1032:Middlewares/Third_Party/FreeRTOS/Source/CMSIS_RTOS/cmsis_os.c ****   return p;
 1930              		.loc 1 1032 3 view .LVU461
 1931              	.L147:
1033:Middlewares/Third_Party/FreeRTOS/Source/CMSIS_RTOS/cmsis_os.c **** }
 1932              		.loc 1 1033 1 is_stmt 0 view .LVU462
 1933 000e 1846     		mov	r0, r3
 1934              	.LVL144:
 1935              		.loc 1 1033 1 view .LVU463
 1936 0010 08BD     		pop	{r3, pc}
 1937              		.loc 1 1033 1 view .LVU464
 1938              		.cfi_endproc
 1939              	.LFE59:
 1941              		.section	.text.osPoolFree,"ax",%progbits
 1942              		.align	1
 1943              		.global	osPoolFree
 1944              		.syntax unified
 1945              		.thumb
 1946              		.thumb_func
 1947              		.fpu fpv4-sp-d16
 1949              	osPoolFree:
 1950              	.LVL145:
 1951              	.LFB60:
1034:Middlewares/Third_Party/FreeRTOS/Source/CMSIS_RTOS/cmsis_os.c **** 
1035:Middlewares/Third_Party/FreeRTOS/Source/CMSIS_RTOS/cmsis_os.c **** /**
1036:Middlewares/Third_Party/FreeRTOS/Source/CMSIS_RTOS/cmsis_os.c **** * @brief Return an allocated memory block back to a specific memory pool
1037:Middlewares/Third_Party/FreeRTOS/Source/CMSIS_RTOS/cmsis_os.c **** * @param  pool_id       memory pool ID obtain referenced with \ref osPoolCreate.
1038:Middlewares/Third_Party/FreeRTOS/Source/CMSIS_RTOS/cmsis_os.c **** * @param  block         address of the allocated memory block that is returned to the memory pool.
1039:Middlewares/Third_Party/FreeRTOS/Source/CMSIS_RTOS/cmsis_os.c **** * @retval  status code that indicates the execution status of the function.
1040:Middlewares/Third_Party/FreeRTOS/Source/CMSIS_RTOS/cmsis_os.c **** * @note   MUST REMAIN UNCHANGED: \b osPoolFree shall be consistent in every CMSIS-RTOS.
1041:Middlewares/Third_Party/FreeRTOS/Source/CMSIS_RTOS/cmsis_os.c **** */
1042:Middlewares/Third_Party/FreeRTOS/Source/CMSIS_RTOS/cmsis_os.c **** osStatus osPoolFree (osPoolId pool_id, void *block)
1043:Middlewares/Third_Party/FreeRTOS/Source/CMSIS_RTOS/cmsis_os.c **** {
 1952              		.loc 1 1043 1 is_stmt 1 view -0
 1953              		.cfi_startproc
 1954              		@ args = 0, pretend = 0, frame = 0
 1955              		@ frame_needed = 0, uses_anonymous_args = 0
 1956              		@ link register save eliminated.
1044:Middlewares/Third_Party/FreeRTOS/Source/CMSIS_RTOS/cmsis_os.c ****   uint32_t index;
 1957              		.loc 1 1044 3 view .LVU466
1045:Middlewares/Third_Party/FreeRTOS/Source/CMSIS_RTOS/cmsis_os.c ****   
1046:Middlewares/Third_Party/FreeRTOS/Source/CMSIS_RTOS/cmsis_os.c ****   if (pool_id == NULL) {
 1958              		.loc 1 1046 3 view .LVU467
 1959              		.loc 1 1046 6 is_stmt 0 view .LVU468
 1960 0000 0346     		mov	r3, r0
 1961 0002 98B1     		cbz	r0, .L152
1047:Middlewares/Third_Party/FreeRTOS/Source/CMSIS_RTOS/cmsis_os.c ****     return osErrorParameter;
1048:Middlewares/Third_Party/FreeRTOS/Source/CMSIS_RTOS/cmsis_os.c ****   }
1049:Middlewares/Third_Party/FreeRTOS/Source/CMSIS_RTOS/cmsis_os.c ****   
1050:Middlewares/Third_Party/FreeRTOS/Source/CMSIS_RTOS/cmsis_os.c ****   if (block == NULL) {
 1962              		.loc 1 1050 3 is_stmt 1 view .LVU469
 1963              		.loc 1 1050 6 is_stmt 0 view .LVU470
ARM GAS  /var/folders/n1/76bg37b13ls08p1dhb9rhvd40000gn/T//cc6VEgqh.s 			page 61


 1964 0004 A1B1     		cbz	r1, .L153
1051:Middlewares/Third_Party/FreeRTOS/Source/CMSIS_RTOS/cmsis_os.c ****     return osErrorParameter;
1052:Middlewares/Third_Party/FreeRTOS/Source/CMSIS_RTOS/cmsis_os.c ****   }
1053:Middlewares/Third_Party/FreeRTOS/Source/CMSIS_RTOS/cmsis_os.c ****   
1054:Middlewares/Third_Party/FreeRTOS/Source/CMSIS_RTOS/cmsis_os.c ****   if (block < pool_id->pool) {
 1965              		.loc 1 1054 3 is_stmt 1 view .LVU471
 1966              		.loc 1 1054 22 is_stmt 0 view .LVU472
 1967 0006 0268     		ldr	r2, [r0]
 1968              		.loc 1 1054 6 view .LVU473
 1969 0008 8A42     		cmp	r2, r1
 1970 000a 13D8     		bhi	.L154
1055:Middlewares/Third_Party/FreeRTOS/Source/CMSIS_RTOS/cmsis_os.c ****     return osErrorParameter;
1056:Middlewares/Third_Party/FreeRTOS/Source/CMSIS_RTOS/cmsis_os.c ****   }
1057:Middlewares/Third_Party/FreeRTOS/Source/CMSIS_RTOS/cmsis_os.c ****   
1058:Middlewares/Third_Party/FreeRTOS/Source/CMSIS_RTOS/cmsis_os.c ****   index = (uint32_t)block - (uint32_t)(pool_id->pool);
 1971              		.loc 1 1058 3 is_stmt 1 view .LVU474
 1972              		.loc 1 1058 9 is_stmt 0 view .LVU475
 1973 000c 891A     		subs	r1, r1, r2
 1974              	.LVL146:
1059:Middlewares/Third_Party/FreeRTOS/Source/CMSIS_RTOS/cmsis_os.c ****   if (index % pool_id->item_sz) {
 1975              		.loc 1 1059 3 is_stmt 1 view .LVU476
 1976              		.loc 1 1059 22 is_stmt 0 view .LVU477
 1977 000e C068     		ldr	r0, [r0, #12]
 1978              	.LVL147:
 1979              		.loc 1 1059 13 view .LVU478
 1980 0010 B1FBF0F2 		udiv	r2, r1, r0
 1981 0014 00FB1212 		mls	r2, r0, r2, r1
 1982              		.loc 1 1059 6 view .LVU479
 1983 0018 72B9     		cbnz	r2, .L155
1060:Middlewares/Third_Party/FreeRTOS/Source/CMSIS_RTOS/cmsis_os.c ****     return osErrorParameter;
1061:Middlewares/Third_Party/FreeRTOS/Source/CMSIS_RTOS/cmsis_os.c ****   }
1062:Middlewares/Third_Party/FreeRTOS/Source/CMSIS_RTOS/cmsis_os.c ****   index = index / pool_id->item_sz;
 1984              		.loc 1 1062 3 is_stmt 1 view .LVU480
 1985              		.loc 1 1062 9 is_stmt 0 view .LVU481
 1986 001a B1FBF0F1 		udiv	r1, r1, r0
 1987              	.LVL148:
1063:Middlewares/Third_Party/FreeRTOS/Source/CMSIS_RTOS/cmsis_os.c ****   if (index >= pool_id->pool_sz) {
 1988              		.loc 1 1063 3 is_stmt 1 view .LVU482
 1989              		.loc 1 1063 23 is_stmt 0 view .LVU483
 1990 001e 9A68     		ldr	r2, [r3, #8]
 1991              		.loc 1 1063 6 view .LVU484
 1992 0020 8A42     		cmp	r2, r1
 1993 0022 0BD9     		bls	.L156
1064:Middlewares/Third_Party/FreeRTOS/Source/CMSIS_RTOS/cmsis_os.c ****     return osErrorParameter;
1065:Middlewares/Third_Party/FreeRTOS/Source/CMSIS_RTOS/cmsis_os.c ****   }
1066:Middlewares/Third_Party/FreeRTOS/Source/CMSIS_RTOS/cmsis_os.c ****   
1067:Middlewares/Third_Party/FreeRTOS/Source/CMSIS_RTOS/cmsis_os.c ****   pool_id->markers[index] = 0;
 1994              		.loc 1 1067 3 is_stmt 1 view .LVU485
 1995              		.loc 1 1067 10 is_stmt 0 view .LVU486
 1996 0024 5B68     		ldr	r3, [r3, #4]
 1997              	.LVL149:
 1998              		.loc 1 1067 27 view .LVU487
 1999 0026 0020     		movs	r0, #0
 2000 0028 5854     		strb	r0, [r3, r1]
1068:Middlewares/Third_Party/FreeRTOS/Source/CMSIS_RTOS/cmsis_os.c ****   
1069:Middlewares/Third_Party/FreeRTOS/Source/CMSIS_RTOS/cmsis_os.c ****   return osOK;
 2001              		.loc 1 1069 3 is_stmt 1 view .LVU488
ARM GAS  /var/folders/n1/76bg37b13ls08p1dhb9rhvd40000gn/T//cc6VEgqh.s 			page 62


 2002              		.loc 1 1069 10 is_stmt 0 view .LVU489
 2003 002a 7047     		bx	lr
 2004              	.LVL150:
 2005              	.L152:
1047:Middlewares/Third_Party/FreeRTOS/Source/CMSIS_RTOS/cmsis_os.c ****   }
 2006              		.loc 1 1047 12 view .LVU490
 2007 002c 8020     		movs	r0, #128
 2008              	.LVL151:
1047:Middlewares/Third_Party/FreeRTOS/Source/CMSIS_RTOS/cmsis_os.c ****   }
 2009              		.loc 1 1047 12 view .LVU491
 2010 002e 7047     		bx	lr
 2011              	.LVL152:
 2012              	.L153:
1051:Middlewares/Third_Party/FreeRTOS/Source/CMSIS_RTOS/cmsis_os.c ****   }
 2013              		.loc 1 1051 12 view .LVU492
 2014 0030 8020     		movs	r0, #128
 2015              	.LVL153:
1051:Middlewares/Third_Party/FreeRTOS/Source/CMSIS_RTOS/cmsis_os.c ****   }
 2016              		.loc 1 1051 12 view .LVU493
 2017 0032 7047     		bx	lr
 2018              	.LVL154:
 2019              	.L154:
1055:Middlewares/Third_Party/FreeRTOS/Source/CMSIS_RTOS/cmsis_os.c ****   }
 2020              		.loc 1 1055 12 view .LVU494
 2021 0034 8020     		movs	r0, #128
 2022              	.LVL155:
1055:Middlewares/Third_Party/FreeRTOS/Source/CMSIS_RTOS/cmsis_os.c ****   }
 2023              		.loc 1 1055 12 view .LVU495
 2024 0036 7047     		bx	lr
 2025              	.LVL156:
 2026              	.L155:
1060:Middlewares/Third_Party/FreeRTOS/Source/CMSIS_RTOS/cmsis_os.c ****   }
 2027              		.loc 1 1060 12 view .LVU496
 2028 0038 8020     		movs	r0, #128
 2029 003a 7047     		bx	lr
 2030              	.L156:
1064:Middlewares/Third_Party/FreeRTOS/Source/CMSIS_RTOS/cmsis_os.c ****   }
 2031              		.loc 1 1064 12 view .LVU497
 2032 003c 8020     		movs	r0, #128
1070:Middlewares/Third_Party/FreeRTOS/Source/CMSIS_RTOS/cmsis_os.c **** }
 2033              		.loc 1 1070 1 view .LVU498
 2034 003e 7047     		bx	lr
 2035              		.cfi_endproc
 2036              	.LFE60:
 2038              		.section	.text.osMessageCreate,"ax",%progbits
 2039              		.align	1
 2040              		.global	osMessageCreate
 2041              		.syntax unified
 2042              		.thumb
 2043              		.thumb_func
 2044              		.fpu fpv4-sp-d16
 2046              	osMessageCreate:
 2047              	.LVL157:
 2048              	.LFB61:
1071:Middlewares/Third_Party/FreeRTOS/Source/CMSIS_RTOS/cmsis_os.c **** 
1072:Middlewares/Third_Party/FreeRTOS/Source/CMSIS_RTOS/cmsis_os.c **** 
1073:Middlewares/Third_Party/FreeRTOS/Source/CMSIS_RTOS/cmsis_os.c **** #endif   /* Use Memory Pool Management */
ARM GAS  /var/folders/n1/76bg37b13ls08p1dhb9rhvd40000gn/T//cc6VEgqh.s 			page 63


1074:Middlewares/Third_Party/FreeRTOS/Source/CMSIS_RTOS/cmsis_os.c **** 
1075:Middlewares/Third_Party/FreeRTOS/Source/CMSIS_RTOS/cmsis_os.c **** /*******************   Message Queue Management Functions  *********************/
1076:Middlewares/Third_Party/FreeRTOS/Source/CMSIS_RTOS/cmsis_os.c **** 
1077:Middlewares/Third_Party/FreeRTOS/Source/CMSIS_RTOS/cmsis_os.c **** #if (defined (osFeature_MessageQ)  &&  (osFeature_MessageQ != 0)) /* Use Message Queues */
1078:Middlewares/Third_Party/FreeRTOS/Source/CMSIS_RTOS/cmsis_os.c **** 
1079:Middlewares/Third_Party/FreeRTOS/Source/CMSIS_RTOS/cmsis_os.c **** /**
1080:Middlewares/Third_Party/FreeRTOS/Source/CMSIS_RTOS/cmsis_os.c **** * @brief Create and Initialize a Message Queue
1081:Middlewares/Third_Party/FreeRTOS/Source/CMSIS_RTOS/cmsis_os.c **** * @param queue_def     queue definition referenced with \ref osMessageQ.
1082:Middlewares/Third_Party/FreeRTOS/Source/CMSIS_RTOS/cmsis_os.c **** * @param  thread_id     thread ID (obtained by \ref osThreadCreate or \ref osThreadGetId) or NULL.
1083:Middlewares/Third_Party/FreeRTOS/Source/CMSIS_RTOS/cmsis_os.c **** * @retval  message queue ID for reference by other functions or NULL in case of error.
1084:Middlewares/Third_Party/FreeRTOS/Source/CMSIS_RTOS/cmsis_os.c **** * @note   MUST REMAIN UNCHANGED: \b osMessageCreate shall be consistent in every CMSIS-RTOS.
1085:Middlewares/Third_Party/FreeRTOS/Source/CMSIS_RTOS/cmsis_os.c **** */
1086:Middlewares/Third_Party/FreeRTOS/Source/CMSIS_RTOS/cmsis_os.c **** osMessageQId osMessageCreate (const osMessageQDef_t *queue_def, osThreadId thread_id)
1087:Middlewares/Third_Party/FreeRTOS/Source/CMSIS_RTOS/cmsis_os.c **** {
 2049              		.loc 1 1087 1 is_stmt 1 view -0
 2050              		.cfi_startproc
 2051              		@ args = 0, pretend = 0, frame = 0
 2052              		@ frame_needed = 0, uses_anonymous_args = 0
 2053              		.loc 1 1087 1 is_stmt 0 view .LVU500
 2054 0000 08B5     		push	{r3, lr}
 2055              	.LCFI43:
 2056              		.cfi_def_cfa_offset 8
 2057              		.cfi_offset 3, -8
 2058              		.cfi_offset 14, -4
1088:Middlewares/Third_Party/FreeRTOS/Source/CMSIS_RTOS/cmsis_os.c ****   (void) thread_id;
 2059              		.loc 1 1088 3 is_stmt 1 view .LVU501
1089:Middlewares/Third_Party/FreeRTOS/Source/CMSIS_RTOS/cmsis_os.c ****   
1090:Middlewares/Third_Party/FreeRTOS/Source/CMSIS_RTOS/cmsis_os.c **** #if( configSUPPORT_STATIC_ALLOCATION == 1 ) && ( configSUPPORT_DYNAMIC_ALLOCATION == 1 )
1091:Middlewares/Third_Party/FreeRTOS/Source/CMSIS_RTOS/cmsis_os.c **** 
1092:Middlewares/Third_Party/FreeRTOS/Source/CMSIS_RTOS/cmsis_os.c ****   if ((queue_def->buffer != NULL) && (queue_def->controlblock != NULL)) {
1093:Middlewares/Third_Party/FreeRTOS/Source/CMSIS_RTOS/cmsis_os.c ****     return xQueueCreateStatic(queue_def->queue_sz, queue_def->item_sz, queue_def->buffer, queue_def
1094:Middlewares/Third_Party/FreeRTOS/Source/CMSIS_RTOS/cmsis_os.c ****   }
1095:Middlewares/Third_Party/FreeRTOS/Source/CMSIS_RTOS/cmsis_os.c ****   else {
1096:Middlewares/Third_Party/FreeRTOS/Source/CMSIS_RTOS/cmsis_os.c ****     return xQueueCreate(queue_def->queue_sz, queue_def->item_sz);
1097:Middlewares/Third_Party/FreeRTOS/Source/CMSIS_RTOS/cmsis_os.c ****   }
1098:Middlewares/Third_Party/FreeRTOS/Source/CMSIS_RTOS/cmsis_os.c **** #elif ( configSUPPORT_STATIC_ALLOCATION == 1 )
1099:Middlewares/Third_Party/FreeRTOS/Source/CMSIS_RTOS/cmsis_os.c ****   return xQueueCreateStatic(queue_def->queue_sz, queue_def->item_sz, queue_def->buffer, queue_def->
1100:Middlewares/Third_Party/FreeRTOS/Source/CMSIS_RTOS/cmsis_os.c **** #else  
1101:Middlewares/Third_Party/FreeRTOS/Source/CMSIS_RTOS/cmsis_os.c ****   return xQueueCreate(queue_def->queue_sz, queue_def->item_sz);
 2060              		.loc 1 1101 3 view .LVU502
 2061              		.loc 1 1101 10 is_stmt 0 view .LVU503
 2062 0002 0022     		movs	r2, #0
 2063 0004 4168     		ldr	r1, [r0, #4]
 2064              	.LVL158:
 2065              		.loc 1 1101 10 view .LVU504
 2066 0006 0068     		ldr	r0, [r0]
 2067              	.LVL159:
 2068              		.loc 1 1101 10 view .LVU505
 2069 0008 FFF7FEFF 		bl	xQueueGenericCreate
 2070              	.LVL160:
1102:Middlewares/Third_Party/FreeRTOS/Source/CMSIS_RTOS/cmsis_os.c **** #endif
1103:Middlewares/Third_Party/FreeRTOS/Source/CMSIS_RTOS/cmsis_os.c **** }
 2071              		.loc 1 1103 1 view .LVU506
 2072 000c 08BD     		pop	{r3, pc}
 2073              		.cfi_endproc
 2074              	.LFE61:
 2076              		.section	.text.osMessagePut,"ax",%progbits
ARM GAS  /var/folders/n1/76bg37b13ls08p1dhb9rhvd40000gn/T//cc6VEgqh.s 			page 64


 2077              		.align	1
 2078              		.global	osMessagePut
 2079              		.syntax unified
 2080              		.thumb
 2081              		.thumb_func
 2082              		.fpu fpv4-sp-d16
 2084              	osMessagePut:
 2085              	.LVL161:
 2086              	.LFB62:
1104:Middlewares/Third_Party/FreeRTOS/Source/CMSIS_RTOS/cmsis_os.c **** 
1105:Middlewares/Third_Party/FreeRTOS/Source/CMSIS_RTOS/cmsis_os.c **** /**
1106:Middlewares/Third_Party/FreeRTOS/Source/CMSIS_RTOS/cmsis_os.c **** * @brief Put a Message to a Queue.
1107:Middlewares/Third_Party/FreeRTOS/Source/CMSIS_RTOS/cmsis_os.c **** * @param  queue_id  message queue ID obtained with \ref osMessageCreate.
1108:Middlewares/Third_Party/FreeRTOS/Source/CMSIS_RTOS/cmsis_os.c **** * @param  info      message information.
1109:Middlewares/Third_Party/FreeRTOS/Source/CMSIS_RTOS/cmsis_os.c **** * @param  millisec  timeout value or 0 in case of no time-out.
1110:Middlewares/Third_Party/FreeRTOS/Source/CMSIS_RTOS/cmsis_os.c **** * @retval status code that indicates the execution status of the function.
1111:Middlewares/Third_Party/FreeRTOS/Source/CMSIS_RTOS/cmsis_os.c **** * @note   MUST REMAIN UNCHANGED: \b osMessagePut shall be consistent in every CMSIS-RTOS.
1112:Middlewares/Third_Party/FreeRTOS/Source/CMSIS_RTOS/cmsis_os.c **** */
1113:Middlewares/Third_Party/FreeRTOS/Source/CMSIS_RTOS/cmsis_os.c **** osStatus osMessagePut (osMessageQId queue_id, uint32_t info, uint32_t millisec)
1114:Middlewares/Third_Party/FreeRTOS/Source/CMSIS_RTOS/cmsis_os.c **** {
 2087              		.loc 1 1114 1 is_stmt 1 view -0
 2088              		.cfi_startproc
 2089              		@ args = 0, pretend = 0, frame = 16
 2090              		@ frame_needed = 0, uses_anonymous_args = 0
 2091              		.loc 1 1114 1 is_stmt 0 view .LVU508
 2092 0000 30B5     		push	{r4, r5, lr}
 2093              	.LCFI44:
 2094              		.cfi_def_cfa_offset 12
 2095              		.cfi_offset 4, -12
 2096              		.cfi_offset 5, -8
 2097              		.cfi_offset 14, -4
 2098 0002 85B0     		sub	sp, sp, #20
 2099              	.LCFI45:
 2100              		.cfi_def_cfa_offset 32
 2101 0004 0446     		mov	r4, r0
 2102 0006 0191     		str	r1, [sp, #4]
1115:Middlewares/Third_Party/FreeRTOS/Source/CMSIS_RTOS/cmsis_os.c ****   portBASE_TYPE taskWoken = pdFALSE;
 2103              		.loc 1 1115 3 is_stmt 1 view .LVU509
 2104              		.loc 1 1115 17 is_stmt 0 view .LVU510
 2105 0008 0023     		movs	r3, #0
 2106 000a 0393     		str	r3, [sp, #12]
1116:Middlewares/Third_Party/FreeRTOS/Source/CMSIS_RTOS/cmsis_os.c ****   TickType_t ticks;
 2107              		.loc 1 1116 3 is_stmt 1 view .LVU511
1117:Middlewares/Third_Party/FreeRTOS/Source/CMSIS_RTOS/cmsis_os.c ****   
1118:Middlewares/Third_Party/FreeRTOS/Source/CMSIS_RTOS/cmsis_os.c ****   ticks = millisec / portTICK_PERIOD_MS;
 2108              		.loc 1 1118 3 view .LVU512
 2109              	.LVL162:
1119:Middlewares/Third_Party/FreeRTOS/Source/CMSIS_RTOS/cmsis_os.c ****   if (ticks == 0) {
 2110              		.loc 1 1119 3 view .LVU513
 2111              		.loc 1 1119 6 is_stmt 0 view .LVU514
 2112 000c 1546     		mov	r5, r2
 2113 000e 02B9     		cbnz	r2, .L160
1120:Middlewares/Third_Party/FreeRTOS/Source/CMSIS_RTOS/cmsis_os.c ****     ticks = 1;
 2114              		.loc 1 1120 11 view .LVU515
 2115 0010 0125     		movs	r5, #1
 2116              	.L160:
 2117              	.LVL163:
ARM GAS  /var/folders/n1/76bg37b13ls08p1dhb9rhvd40000gn/T//cc6VEgqh.s 			page 65


1121:Middlewares/Third_Party/FreeRTOS/Source/CMSIS_RTOS/cmsis_os.c ****   }
1122:Middlewares/Third_Party/FreeRTOS/Source/CMSIS_RTOS/cmsis_os.c ****   
1123:Middlewares/Third_Party/FreeRTOS/Source/CMSIS_RTOS/cmsis_os.c ****   if (inHandlerMode()) {
 2118              		.loc 1 1123 3 is_stmt 1 view .LVU516
 2119              		.loc 1 1123 7 is_stmt 0 view .LVU517
 2120 0012 FFF7FEFF 		bl	inHandlerMode
 2121              	.LVL164:
 2122              		.loc 1 1123 6 view .LVU518
 2123 0016 98B1     		cbz	r0, .L161
1124:Middlewares/Third_Party/FreeRTOS/Source/CMSIS_RTOS/cmsis_os.c ****     if (xQueueSendFromISR(queue_id, &info, &taskWoken) != pdTRUE) {
 2124              		.loc 1 1124 5 is_stmt 1 view .LVU519
 2125              		.loc 1 1124 9 is_stmt 0 view .LVU520
 2126 0018 0023     		movs	r3, #0
 2127 001a 03AA     		add	r2, sp, #12
 2128 001c 01A9     		add	r1, sp, #4
 2129 001e 2046     		mov	r0, r4
 2130 0020 FFF7FEFF 		bl	xQueueGenericSendFromISR
 2131              	.LVL165:
 2132              		.loc 1 1124 8 view .LVU521
 2133 0024 0128     		cmp	r0, #1
 2134 0026 16D1     		bne	.L164
1125:Middlewares/Third_Party/FreeRTOS/Source/CMSIS_RTOS/cmsis_os.c ****       return osErrorOS;
1126:Middlewares/Third_Party/FreeRTOS/Source/CMSIS_RTOS/cmsis_os.c ****     }
1127:Middlewares/Third_Party/FreeRTOS/Source/CMSIS_RTOS/cmsis_os.c ****     portEND_SWITCHING_ISR(taskWoken);
 2135              		.loc 1 1127 5 is_stmt 1 view .LVU522
 2136 0028 039B     		ldr	r3, [sp, #12]
 2137 002a B3B1     		cbz	r3, .L165
 2138              		.loc 1 1127 5 discriminator 1 view .LVU523
 2139 002c 0D4B     		ldr	r3, .L168
 2140 002e 4FF08052 		mov	r2, #268435456
 2141 0032 1A60     		str	r2, [r3]
 2142              		.loc 1 1127 5 discriminator 1 view .LVU524
 2143              		.syntax unified
 2144              	@ 1127 "Middlewares/Third_Party/FreeRTOS/Source/CMSIS_RTOS/cmsis_os.c" 1
 2145 0034 BFF34F8F 		dsb
 2146              	@ 0 "" 2
 2147              		.loc 1 1127 5 discriminator 1 view .LVU525
 2148              	@ 1127 "Middlewares/Third_Party/FreeRTOS/Source/CMSIS_RTOS/cmsis_os.c" 1
 2149 0038 BFF36F8F 		isb
 2150              	@ 0 "" 2
1128:Middlewares/Third_Party/FreeRTOS/Source/CMSIS_RTOS/cmsis_os.c ****   }
1129:Middlewares/Third_Party/FreeRTOS/Source/CMSIS_RTOS/cmsis_os.c ****   else {
1130:Middlewares/Third_Party/FreeRTOS/Source/CMSIS_RTOS/cmsis_os.c ****     if (xQueueSend(queue_id, &info, ticks) != pdTRUE) {
1131:Middlewares/Third_Party/FreeRTOS/Source/CMSIS_RTOS/cmsis_os.c ****       return osErrorOS;
1132:Middlewares/Third_Party/FreeRTOS/Source/CMSIS_RTOS/cmsis_os.c ****     }
1133:Middlewares/Third_Party/FreeRTOS/Source/CMSIS_RTOS/cmsis_os.c ****   }
1134:Middlewares/Third_Party/FreeRTOS/Source/CMSIS_RTOS/cmsis_os.c ****   
1135:Middlewares/Third_Party/FreeRTOS/Source/CMSIS_RTOS/cmsis_os.c ****   return osOK;
 2151              		.loc 1 1135 10 is_stmt 0 discriminator 1 view .LVU526
 2152              		.thumb
 2153              		.syntax unified
 2154 003c 0020     		movs	r0, #0
 2155 003e 08E0     		b	.L159
 2156              	.L161:
1130:Middlewares/Third_Party/FreeRTOS/Source/CMSIS_RTOS/cmsis_os.c ****       return osErrorOS;
 2157              		.loc 1 1130 5 is_stmt 1 view .LVU527
1130:Middlewares/Third_Party/FreeRTOS/Source/CMSIS_RTOS/cmsis_os.c ****       return osErrorOS;
ARM GAS  /var/folders/n1/76bg37b13ls08p1dhb9rhvd40000gn/T//cc6VEgqh.s 			page 66


 2158              		.loc 1 1130 9 is_stmt 0 view .LVU528
 2159 0040 0023     		movs	r3, #0
 2160 0042 2A46     		mov	r2, r5
 2161 0044 01A9     		add	r1, sp, #4
 2162 0046 2046     		mov	r0, r4
 2163 0048 FFF7FEFF 		bl	xQueueGenericSend
 2164              	.LVL166:
1130:Middlewares/Third_Party/FreeRTOS/Source/CMSIS_RTOS/cmsis_os.c ****       return osErrorOS;
 2165              		.loc 1 1130 8 view .LVU529
 2166 004c 0128     		cmp	r0, #1
 2167 004e 06D1     		bne	.L166
 2168              		.loc 1 1135 10 view .LVU530
 2169 0050 0020     		movs	r0, #0
 2170              	.L159:
1136:Middlewares/Third_Party/FreeRTOS/Source/CMSIS_RTOS/cmsis_os.c **** }
 2171              		.loc 1 1136 1 view .LVU531
 2172 0052 05B0     		add	sp, sp, #20
 2173              	.LCFI46:
 2174              		.cfi_remember_state
 2175              		.cfi_def_cfa_offset 12
 2176              		@ sp needed
 2177 0054 30BD     		pop	{r4, r5, pc}
 2178              	.LVL167:
 2179              	.L164:
 2180              	.LCFI47:
 2181              		.cfi_restore_state
1125:Middlewares/Third_Party/FreeRTOS/Source/CMSIS_RTOS/cmsis_os.c ****     }
 2182              		.loc 1 1125 14 view .LVU532
 2183 0056 FF20     		movs	r0, #255
 2184 0058 FBE7     		b	.L159
 2185              	.L165:
1135:Middlewares/Third_Party/FreeRTOS/Source/CMSIS_RTOS/cmsis_os.c **** }
 2186              		.loc 1 1135 10 view .LVU533
 2187 005a 0020     		movs	r0, #0
 2188 005c F9E7     		b	.L159
 2189              	.L166:
1131:Middlewares/Third_Party/FreeRTOS/Source/CMSIS_RTOS/cmsis_os.c ****     }
 2190              		.loc 1 1131 14 view .LVU534
 2191 005e FF20     		movs	r0, #255
 2192 0060 F7E7     		b	.L159
 2193              	.L169:
 2194 0062 00BF     		.align	2
 2195              	.L168:
 2196 0064 04ED00E0 		.word	-536810236
 2197              		.cfi_endproc
 2198              	.LFE62:
 2200              		.section	.text.osMessageGet,"ax",%progbits
 2201              		.align	1
 2202              		.global	osMessageGet
 2203              		.syntax unified
 2204              		.thumb
 2205              		.thumb_func
 2206              		.fpu fpv4-sp-d16
 2208              	osMessageGet:
 2209              	.LVL168:
 2210              	.LFB63:
1137:Middlewares/Third_Party/FreeRTOS/Source/CMSIS_RTOS/cmsis_os.c **** 
ARM GAS  /var/folders/n1/76bg37b13ls08p1dhb9rhvd40000gn/T//cc6VEgqh.s 			page 67


1138:Middlewares/Third_Party/FreeRTOS/Source/CMSIS_RTOS/cmsis_os.c **** /**
1139:Middlewares/Third_Party/FreeRTOS/Source/CMSIS_RTOS/cmsis_os.c **** * @brief Get a Message or Wait for a Message from a Queue.
1140:Middlewares/Third_Party/FreeRTOS/Source/CMSIS_RTOS/cmsis_os.c **** * @param  queue_id  message queue ID obtained with \ref osMessageCreate.
1141:Middlewares/Third_Party/FreeRTOS/Source/CMSIS_RTOS/cmsis_os.c **** * @param  millisec  timeout value or 0 in case of no time-out.
1142:Middlewares/Third_Party/FreeRTOS/Source/CMSIS_RTOS/cmsis_os.c **** * @retval event information that includes status code.
1143:Middlewares/Third_Party/FreeRTOS/Source/CMSIS_RTOS/cmsis_os.c **** * @note   MUST REMAIN UNCHANGED: \b osMessageGet shall be consistent in every CMSIS-RTOS.
1144:Middlewares/Third_Party/FreeRTOS/Source/CMSIS_RTOS/cmsis_os.c **** */
1145:Middlewares/Third_Party/FreeRTOS/Source/CMSIS_RTOS/cmsis_os.c **** osEvent osMessageGet (osMessageQId queue_id, uint32_t millisec)
1146:Middlewares/Third_Party/FreeRTOS/Source/CMSIS_RTOS/cmsis_os.c **** {
 2211              		.loc 1 1146 1 is_stmt 1 view -0
 2212              		.cfi_startproc
 2213              		@ args = 0, pretend = 0, frame = 16
 2214              		@ frame_needed = 0, uses_anonymous_args = 0
 2215              		.loc 1 1146 1 is_stmt 0 view .LVU536
 2216 0000 70B5     		push	{r4, r5, r6, lr}
 2217              	.LCFI48:
 2218              		.cfi_def_cfa_offset 16
 2219              		.cfi_offset 4, -16
 2220              		.cfi_offset 5, -12
 2221              		.cfi_offset 6, -8
 2222              		.cfi_offset 14, -4
 2223 0002 84B0     		sub	sp, sp, #16
 2224              	.LCFI49:
 2225              		.cfi_def_cfa_offset 32
 2226 0004 0446     		mov	r4, r0
1147:Middlewares/Third_Party/FreeRTOS/Source/CMSIS_RTOS/cmsis_os.c ****   portBASE_TYPE taskWoken;
 2227              		.loc 1 1147 3 is_stmt 1 view .LVU537
1148:Middlewares/Third_Party/FreeRTOS/Source/CMSIS_RTOS/cmsis_os.c ****   TickType_t ticks;
 2228              		.loc 1 1148 3 view .LVU538
1149:Middlewares/Third_Party/FreeRTOS/Source/CMSIS_RTOS/cmsis_os.c ****   osEvent event;
 2229              		.loc 1 1149 3 view .LVU539
1150:Middlewares/Third_Party/FreeRTOS/Source/CMSIS_RTOS/cmsis_os.c ****   
1151:Middlewares/Third_Party/FreeRTOS/Source/CMSIS_RTOS/cmsis_os.c ****   event.def.message_id = queue_id;
 2230              		.loc 1 1151 3 view .LVU540
 2231              		.loc 1 1151 24 is_stmt 0 view .LVU541
 2232 0006 0291     		str	r1, [sp, #8]
1152:Middlewares/Third_Party/FreeRTOS/Source/CMSIS_RTOS/cmsis_os.c ****   event.value.v = 0;
 2233              		.loc 1 1152 3 is_stmt 1 view .LVU542
 2234              		.loc 1 1152 17 is_stmt 0 view .LVU543
 2235 0008 0023     		movs	r3, #0
 2236 000a 0193     		str	r3, [sp, #4]
1153:Middlewares/Third_Party/FreeRTOS/Source/CMSIS_RTOS/cmsis_os.c ****   
1154:Middlewares/Third_Party/FreeRTOS/Source/CMSIS_RTOS/cmsis_os.c ****   if (queue_id == NULL) {
 2237              		.loc 1 1154 3 is_stmt 1 view .LVU544
 2238              		.loc 1 1154 6 is_stmt 0 view .LVU545
 2239 000c 49B1     		cbz	r1, .L183
 2240 000e 0D46     		mov	r5, r1
 2241 0010 1646     		mov	r6, r2
1155:Middlewares/Third_Party/FreeRTOS/Source/CMSIS_RTOS/cmsis_os.c ****     event.status = osErrorParameter;
1156:Middlewares/Third_Party/FreeRTOS/Source/CMSIS_RTOS/cmsis_os.c ****     return event;
1157:Middlewares/Third_Party/FreeRTOS/Source/CMSIS_RTOS/cmsis_os.c ****   }
1158:Middlewares/Third_Party/FreeRTOS/Source/CMSIS_RTOS/cmsis_os.c ****   
1159:Middlewares/Third_Party/FreeRTOS/Source/CMSIS_RTOS/cmsis_os.c ****   taskWoken = pdFALSE;
 2242              		.loc 1 1159 3 is_stmt 1 view .LVU546
 2243              		.loc 1 1159 13 is_stmt 0 view .LVU547
 2244 0012 0023     		movs	r3, #0
 2245 0014 0393     		str	r3, [sp, #12]
ARM GAS  /var/folders/n1/76bg37b13ls08p1dhb9rhvd40000gn/T//cc6VEgqh.s 			page 68


1160:Middlewares/Third_Party/FreeRTOS/Source/CMSIS_RTOS/cmsis_os.c ****   
1161:Middlewares/Third_Party/FreeRTOS/Source/CMSIS_RTOS/cmsis_os.c ****   ticks = 0;
 2246              		.loc 1 1161 3 is_stmt 1 view .LVU548
 2247              	.LVL169:
1162:Middlewares/Third_Party/FreeRTOS/Source/CMSIS_RTOS/cmsis_os.c ****   if (millisec == osWaitForever) {
 2248              		.loc 1 1162 3 view .LVU549
 2249              		.loc 1 1162 6 is_stmt 0 view .LVU550
 2250 0016 B2F1FF3F 		cmp	r2, #-1
 2251 001a 0AD0     		beq	.L180
1163:Middlewares/Third_Party/FreeRTOS/Source/CMSIS_RTOS/cmsis_os.c ****     ticks = portMAX_DELAY;
1164:Middlewares/Third_Party/FreeRTOS/Source/CMSIS_RTOS/cmsis_os.c ****   }
1165:Middlewares/Third_Party/FreeRTOS/Source/CMSIS_RTOS/cmsis_os.c ****   else if (millisec != 0) {
 2252              		.loc 1 1165 8 is_stmt 1 view .LVU551
 2253              		.loc 1 1165 11 is_stmt 0 view .LVU552
 2254 001c 5AB9     		cbnz	r2, .L173
1161:Middlewares/Third_Party/FreeRTOS/Source/CMSIS_RTOS/cmsis_os.c ****   if (millisec == osWaitForever) {
 2255              		.loc 1 1161 9 view .LVU553
 2256 001e 1E46     		mov	r6, r3
 2257 0020 09E0     		b	.L173
 2258              	.LVL170:
 2259              	.L183:
1155:Middlewares/Third_Party/FreeRTOS/Source/CMSIS_RTOS/cmsis_os.c ****     return event;
 2260              		.loc 1 1155 5 is_stmt 1 view .LVU554
1155:Middlewares/Third_Party/FreeRTOS/Source/CMSIS_RTOS/cmsis_os.c ****     return event;
 2261              		.loc 1 1155 18 is_stmt 0 view .LVU555
 2262 0022 8023     		movs	r3, #128
 2263 0024 0093     		str	r3, [sp]
1156:Middlewares/Third_Party/FreeRTOS/Source/CMSIS_RTOS/cmsis_os.c ****   }
 2264              		.loc 1 1156 5 is_stmt 1 view .LVU556
1156:Middlewares/Third_Party/FreeRTOS/Source/CMSIS_RTOS/cmsis_os.c ****   }
 2265              		.loc 1 1156 12 is_stmt 0 view .LVU557
 2266 0026 6B46     		mov	r3, sp
 2267 0028 93E80700 		ldm	r3, {r0, r1, r2}
 2268              	.LVL171:
1156:Middlewares/Third_Party/FreeRTOS/Source/CMSIS_RTOS/cmsis_os.c ****   }
 2269              		.loc 1 1156 12 view .LVU558
 2270 002c 84E80700 		stm	r4, {r0, r1, r2}
 2271 0030 2BE0     		b	.L170
 2272              	.LVL172:
 2273              	.L180:
1163:Middlewares/Third_Party/FreeRTOS/Source/CMSIS_RTOS/cmsis_os.c ****   }
 2274              		.loc 1 1163 11 view .LVU559
 2275 0032 4FF0FF36 		mov	r6, #-1
 2276              	.L173:
 2277              	.LVL173:
1166:Middlewares/Third_Party/FreeRTOS/Source/CMSIS_RTOS/cmsis_os.c ****     ticks = millisec / portTICK_PERIOD_MS;
1167:Middlewares/Third_Party/FreeRTOS/Source/CMSIS_RTOS/cmsis_os.c ****     if (ticks == 0) {
1168:Middlewares/Third_Party/FreeRTOS/Source/CMSIS_RTOS/cmsis_os.c ****       ticks = 1;
1169:Middlewares/Third_Party/FreeRTOS/Source/CMSIS_RTOS/cmsis_os.c ****     }
1170:Middlewares/Third_Party/FreeRTOS/Source/CMSIS_RTOS/cmsis_os.c ****   }
1171:Middlewares/Third_Party/FreeRTOS/Source/CMSIS_RTOS/cmsis_os.c ****   
1172:Middlewares/Third_Party/FreeRTOS/Source/CMSIS_RTOS/cmsis_os.c ****   if (inHandlerMode()) {
 2278              		.loc 1 1172 3 is_stmt 1 view .LVU560
 2279              		.loc 1 1172 7 is_stmt 0 view .LVU561
 2280 0036 FFF7FEFF 		bl	inHandlerMode
 2281              	.LVL174:
 2282              		.loc 1 1172 6 view .LVU562
ARM GAS  /var/folders/n1/76bg37b13ls08p1dhb9rhvd40000gn/T//cc6VEgqh.s 			page 69


 2283 003a B0B1     		cbz	r0, .L174
1173:Middlewares/Third_Party/FreeRTOS/Source/CMSIS_RTOS/cmsis_os.c ****     if (xQueueReceiveFromISR(queue_id, &event.value.v, &taskWoken) == pdTRUE) {
 2284              		.loc 1 1173 5 is_stmt 1 view .LVU563
 2285              		.loc 1 1173 9 is_stmt 0 view .LVU564
 2286 003c 03AA     		add	r2, sp, #12
 2287 003e 01A9     		add	r1, sp, #4
 2288 0040 2846     		mov	r0, r5
 2289 0042 FFF7FEFF 		bl	xQueueReceiveFromISR
 2290              	.LVL175:
 2291              		.loc 1 1173 8 view .LVU565
 2292 0046 0128     		cmp	r0, #1
 2293 0048 0CD0     		beq	.L184
1174:Middlewares/Third_Party/FreeRTOS/Source/CMSIS_RTOS/cmsis_os.c ****       /* We have mail */
1175:Middlewares/Third_Party/FreeRTOS/Source/CMSIS_RTOS/cmsis_os.c ****       event.status = osEventMessage;
1176:Middlewares/Third_Party/FreeRTOS/Source/CMSIS_RTOS/cmsis_os.c ****     }
1177:Middlewares/Third_Party/FreeRTOS/Source/CMSIS_RTOS/cmsis_os.c ****     else {
1178:Middlewares/Third_Party/FreeRTOS/Source/CMSIS_RTOS/cmsis_os.c ****       event.status = osOK;
 2294              		.loc 1 1178 7 is_stmt 1 view .LVU566
 2295              		.loc 1 1178 20 is_stmt 0 view .LVU567
 2296 004a 0023     		movs	r3, #0
 2297 004c 0093     		str	r3, [sp]
 2298              	.L176:
1179:Middlewares/Third_Party/FreeRTOS/Source/CMSIS_RTOS/cmsis_os.c ****     }
1180:Middlewares/Third_Party/FreeRTOS/Source/CMSIS_RTOS/cmsis_os.c ****     portEND_SWITCHING_ISR(taskWoken);
 2299              		.loc 1 1180 5 is_stmt 1 view .LVU568
 2300 004e 039B     		ldr	r3, [sp, #12]
 2301 0050 B3B1     		cbz	r3, .L177
 2302              		.loc 1 1180 5 discriminator 1 view .LVU569
 2303 0052 124B     		ldr	r3, .L186
 2304 0054 4FF08052 		mov	r2, #268435456
 2305 0058 1A60     		str	r2, [r3]
 2306              		.loc 1 1180 5 discriminator 1 view .LVU570
 2307              		.syntax unified
 2308              	@ 1180 "Middlewares/Third_Party/FreeRTOS/Source/CMSIS_RTOS/cmsis_os.c" 1
 2309 005a BFF34F8F 		dsb
 2310              	@ 0 "" 2
 2311              		.loc 1 1180 5 discriminator 1 view .LVU571
 2312              	@ 1180 "Middlewares/Third_Party/FreeRTOS/Source/CMSIS_RTOS/cmsis_os.c" 1
 2313 005e BFF36F8F 		isb
 2314              	@ 0 "" 2
 2315              		.thumb
 2316              		.syntax unified
 2317 0062 0DE0     		b	.L177
 2318              	.L184:
1175:Middlewares/Third_Party/FreeRTOS/Source/CMSIS_RTOS/cmsis_os.c ****     }
 2319              		.loc 1 1175 7 view .LVU572
1175:Middlewares/Third_Party/FreeRTOS/Source/CMSIS_RTOS/cmsis_os.c ****     }
 2320              		.loc 1 1175 20 is_stmt 0 view .LVU573
 2321 0064 1023     		movs	r3, #16
 2322 0066 0093     		str	r3, [sp]
 2323 0068 F1E7     		b	.L176
 2324              	.L174:
1181:Middlewares/Third_Party/FreeRTOS/Source/CMSIS_RTOS/cmsis_os.c ****   }
1182:Middlewares/Third_Party/FreeRTOS/Source/CMSIS_RTOS/cmsis_os.c ****   else {
1183:Middlewares/Third_Party/FreeRTOS/Source/CMSIS_RTOS/cmsis_os.c ****     if (xQueueReceive(queue_id, &event.value.v, ticks) == pdTRUE) {
 2325              		.loc 1 1183 5 is_stmt 1 view .LVU574
 2326              		.loc 1 1183 9 is_stmt 0 view .LVU575
ARM GAS  /var/folders/n1/76bg37b13ls08p1dhb9rhvd40000gn/T//cc6VEgqh.s 			page 70


 2327 006a 0023     		movs	r3, #0
 2328 006c 3246     		mov	r2, r6
 2329 006e 01A9     		add	r1, sp, #4
 2330 0070 2846     		mov	r0, r5
 2331 0072 FFF7FEFF 		bl	xQueueGenericReceive
 2332              	.LVL176:
 2333              		.loc 1 1183 8 view .LVU576
 2334 0076 0128     		cmp	r0, #1
 2335 0078 0AD0     		beq	.L185
1184:Middlewares/Third_Party/FreeRTOS/Source/CMSIS_RTOS/cmsis_os.c ****       /* We have mail */
1185:Middlewares/Third_Party/FreeRTOS/Source/CMSIS_RTOS/cmsis_os.c ****       event.status = osEventMessage;
1186:Middlewares/Third_Party/FreeRTOS/Source/CMSIS_RTOS/cmsis_os.c ****     }
1187:Middlewares/Third_Party/FreeRTOS/Source/CMSIS_RTOS/cmsis_os.c ****     else {
1188:Middlewares/Third_Party/FreeRTOS/Source/CMSIS_RTOS/cmsis_os.c ****       event.status = (ticks == 0) ? osOK : osEventTimeout;
 2336              		.loc 1 1188 7 is_stmt 1 view .LVU577
 2337              		.loc 1 1188 42 is_stmt 0 view .LVU578
 2338 007a 66B9     		cbnz	r6, .L181
 2339 007c 0023     		movs	r3, #0
 2340              	.L179:
 2341              		.loc 1 1188 20 discriminator 4 view .LVU579
 2342 007e 0093     		str	r3, [sp]
 2343              	.L177:
1189:Middlewares/Third_Party/FreeRTOS/Source/CMSIS_RTOS/cmsis_os.c ****     }
1190:Middlewares/Third_Party/FreeRTOS/Source/CMSIS_RTOS/cmsis_os.c ****   }
1191:Middlewares/Third_Party/FreeRTOS/Source/CMSIS_RTOS/cmsis_os.c ****   
1192:Middlewares/Third_Party/FreeRTOS/Source/CMSIS_RTOS/cmsis_os.c ****   return event;
 2344              		.loc 1 1192 3 is_stmt 1 view .LVU580
 2345              		.loc 1 1192 10 is_stmt 0 view .LVU581
 2346 0080 6B46     		mov	r3, sp
 2347 0082 93E80700 		ldm	r3, {r0, r1, r2}
 2348 0086 84E80700 		stm	r4, {r0, r1, r2}
 2349              	.LVL177:
 2350              	.L170:
1193:Middlewares/Third_Party/FreeRTOS/Source/CMSIS_RTOS/cmsis_os.c **** }
 2351              		.loc 1 1193 1 view .LVU582
 2352 008a 2046     		mov	r0, r4
 2353 008c 04B0     		add	sp, sp, #16
 2354              	.LCFI50:
 2355              		.cfi_remember_state
 2356              		.cfi_def_cfa_offset 16
 2357              		@ sp needed
 2358 008e 70BD     		pop	{r4, r5, r6, pc}
 2359              	.LVL178:
 2360              	.L185:
 2361              	.LCFI51:
 2362              		.cfi_restore_state
1185:Middlewares/Third_Party/FreeRTOS/Source/CMSIS_RTOS/cmsis_os.c ****     }
 2363              		.loc 1 1185 7 is_stmt 1 view .LVU583
1185:Middlewares/Third_Party/FreeRTOS/Source/CMSIS_RTOS/cmsis_os.c ****     }
 2364              		.loc 1 1185 20 is_stmt 0 view .LVU584
 2365 0090 1023     		movs	r3, #16
 2366 0092 0093     		str	r3, [sp]
 2367 0094 F4E7     		b	.L177
 2368              	.L181:
1188:Middlewares/Third_Party/FreeRTOS/Source/CMSIS_RTOS/cmsis_os.c ****     }
 2369              		.loc 1 1188 42 view .LVU585
 2370 0096 4023     		movs	r3, #64
ARM GAS  /var/folders/n1/76bg37b13ls08p1dhb9rhvd40000gn/T//cc6VEgqh.s 			page 71


 2371 0098 F1E7     		b	.L179
 2372              	.L187:
 2373 009a 00BF     		.align	2
 2374              	.L186:
 2375 009c 04ED00E0 		.word	-536810236
 2376              		.cfi_endproc
 2377              	.LFE63:
 2379              		.section	.text.osMailCreate,"ax",%progbits
 2380              		.align	1
 2381              		.global	osMailCreate
 2382              		.syntax unified
 2383              		.thumb
 2384              		.thumb_func
 2385              		.fpu fpv4-sp-d16
 2387              	osMailCreate:
 2388              	.LVL179:
 2389              	.LFB64:
1194:Middlewares/Third_Party/FreeRTOS/Source/CMSIS_RTOS/cmsis_os.c **** 
1195:Middlewares/Third_Party/FreeRTOS/Source/CMSIS_RTOS/cmsis_os.c **** #endif     /* Use Message Queues */
1196:Middlewares/Third_Party/FreeRTOS/Source/CMSIS_RTOS/cmsis_os.c **** 
1197:Middlewares/Third_Party/FreeRTOS/Source/CMSIS_RTOS/cmsis_os.c **** /********************   Mail Queue Management Functions  ***********************/
1198:Middlewares/Third_Party/FreeRTOS/Source/CMSIS_RTOS/cmsis_os.c **** #if (defined (osFeature_MailQ)  &&  (osFeature_MailQ != 0))  /* Use Mail Queues */
1199:Middlewares/Third_Party/FreeRTOS/Source/CMSIS_RTOS/cmsis_os.c **** 
1200:Middlewares/Third_Party/FreeRTOS/Source/CMSIS_RTOS/cmsis_os.c **** 
1201:Middlewares/Third_Party/FreeRTOS/Source/CMSIS_RTOS/cmsis_os.c **** typedef struct os_mailQ_cb {
1202:Middlewares/Third_Party/FreeRTOS/Source/CMSIS_RTOS/cmsis_os.c ****   const osMailQDef_t *queue_def;
1203:Middlewares/Third_Party/FreeRTOS/Source/CMSIS_RTOS/cmsis_os.c ****   QueueHandle_t handle;
1204:Middlewares/Third_Party/FreeRTOS/Source/CMSIS_RTOS/cmsis_os.c ****   osPoolId pool;
1205:Middlewares/Third_Party/FreeRTOS/Source/CMSIS_RTOS/cmsis_os.c **** } os_mailQ_cb_t;
1206:Middlewares/Third_Party/FreeRTOS/Source/CMSIS_RTOS/cmsis_os.c **** 
1207:Middlewares/Third_Party/FreeRTOS/Source/CMSIS_RTOS/cmsis_os.c **** /**
1208:Middlewares/Third_Party/FreeRTOS/Source/CMSIS_RTOS/cmsis_os.c **** * @brief Create and Initialize mail queue
1209:Middlewares/Third_Party/FreeRTOS/Source/CMSIS_RTOS/cmsis_os.c **** * @param  queue_def     reference to the mail queue definition obtain with \ref osMailQ
1210:Middlewares/Third_Party/FreeRTOS/Source/CMSIS_RTOS/cmsis_os.c **** * @param   thread_id     thread ID (obtained by \ref osThreadCreate or \ref osThreadGetId) or NULL.
1211:Middlewares/Third_Party/FreeRTOS/Source/CMSIS_RTOS/cmsis_os.c **** * @retval mail queue ID for reference by other functions or NULL in case of error.
1212:Middlewares/Third_Party/FreeRTOS/Source/CMSIS_RTOS/cmsis_os.c **** * @note   MUST REMAIN UNCHANGED: \b osMailCreate shall be consistent in every CMSIS-RTOS.
1213:Middlewares/Third_Party/FreeRTOS/Source/CMSIS_RTOS/cmsis_os.c **** */
1214:Middlewares/Third_Party/FreeRTOS/Source/CMSIS_RTOS/cmsis_os.c **** osMailQId osMailCreate (const osMailQDef_t *queue_def, osThreadId thread_id)
1215:Middlewares/Third_Party/FreeRTOS/Source/CMSIS_RTOS/cmsis_os.c **** {
 2390              		.loc 1 1215 1 is_stmt 1 view -0
 2391              		.cfi_startproc
 2392              		@ args = 0, pretend = 0, frame = 16
 2393              		@ frame_needed = 0, uses_anonymous_args = 0
 2394              		.loc 1 1215 1 is_stmt 0 view .LVU587
 2395 0000 30B5     		push	{r4, r5, lr}
 2396              	.LCFI52:
 2397              		.cfi_def_cfa_offset 12
 2398              		.cfi_offset 4, -12
 2399              		.cfi_offset 5, -8
 2400              		.cfi_offset 14, -4
 2401 0002 85B0     		sub	sp, sp, #20
 2402              	.LCFI53:
 2403              		.cfi_def_cfa_offset 32
 2404 0004 0446     		mov	r4, r0
1216:Middlewares/Third_Party/FreeRTOS/Source/CMSIS_RTOS/cmsis_os.c **** #if (configSUPPORT_DYNAMIC_ALLOCATION == 1)
1217:Middlewares/Third_Party/FreeRTOS/Source/CMSIS_RTOS/cmsis_os.c ****   (void) thread_id;
 2405              		.loc 1 1217 3 is_stmt 1 view .LVU588
ARM GAS  /var/folders/n1/76bg37b13ls08p1dhb9rhvd40000gn/T//cc6VEgqh.s 			page 72


1218:Middlewares/Third_Party/FreeRTOS/Source/CMSIS_RTOS/cmsis_os.c ****   
1219:Middlewares/Third_Party/FreeRTOS/Source/CMSIS_RTOS/cmsis_os.c ****   osPoolDef_t pool_def = {queue_def->queue_sz, queue_def->item_sz, NULL};
 2406              		.loc 1 1219 3 view .LVU589
 2407              		.loc 1 1219 36 is_stmt 0 view .LVU590
 2408 0006 0368     		ldr	r3, [r0]
 2409              		.loc 1 1219 15 view .LVU591
 2410 0008 0193     		str	r3, [sp, #4]
 2411              		.loc 1 1219 57 view .LVU592
 2412 000a 4368     		ldr	r3, [r0, #4]
 2413              		.loc 1 1219 15 view .LVU593
 2414 000c 0293     		str	r3, [sp, #8]
 2415 000e 0023     		movs	r3, #0
 2416 0010 0393     		str	r3, [sp, #12]
1220:Middlewares/Third_Party/FreeRTOS/Source/CMSIS_RTOS/cmsis_os.c ****   
1221:Middlewares/Third_Party/FreeRTOS/Source/CMSIS_RTOS/cmsis_os.c ****   /* Create a mail queue control block */
1222:Middlewares/Third_Party/FreeRTOS/Source/CMSIS_RTOS/cmsis_os.c **** 
1223:Middlewares/Third_Party/FreeRTOS/Source/CMSIS_RTOS/cmsis_os.c ****   *(queue_def->cb) = pvPortMalloc(sizeof(struct os_mailQ_cb));
 2417              		.loc 1 1223 3 is_stmt 1 view .LVU594
 2418              		.loc 1 1223 14 is_stmt 0 view .LVU595
 2419 0012 8568     		ldr	r5, [r0, #8]
 2420              		.loc 1 1223 22 view .LVU596
 2421 0014 0C20     		movs	r0, #12
 2422              	.LVL180:
 2423              		.loc 1 1223 22 view .LVU597
 2424 0016 FFF7FEFF 		bl	pvPortMalloc
 2425              	.LVL181:
 2426              		.loc 1 1223 20 view .LVU598
 2427 001a 2860     		str	r0, [r5]
1224:Middlewares/Third_Party/FreeRTOS/Source/CMSIS_RTOS/cmsis_os.c **** 
1225:Middlewares/Third_Party/FreeRTOS/Source/CMSIS_RTOS/cmsis_os.c ****   if (*(queue_def->cb) == NULL) {
 2428              		.loc 1 1225 3 is_stmt 1 view .LVU599
 2429              		.loc 1 1225 18 is_stmt 0 view .LVU600
 2430 001c A368     		ldr	r3, [r4, #8]
 2431              		.loc 1 1225 7 view .LVU601
 2432 001e 1B68     		ldr	r3, [r3]
 2433              		.loc 1 1225 6 view .LVU602
 2434 0020 FBB1     		cbz	r3, .L191
1226:Middlewares/Third_Party/FreeRTOS/Source/CMSIS_RTOS/cmsis_os.c ****     return NULL;
1227:Middlewares/Third_Party/FreeRTOS/Source/CMSIS_RTOS/cmsis_os.c ****   }
1228:Middlewares/Third_Party/FreeRTOS/Source/CMSIS_RTOS/cmsis_os.c ****   (*(queue_def->cb))->queue_def = queue_def;
 2435              		.loc 1 1228 3 is_stmt 1 view .LVU603
 2436              		.loc 1 1228 33 is_stmt 0 view .LVU604
 2437 0022 1C60     		str	r4, [r3]
1229:Middlewares/Third_Party/FreeRTOS/Source/CMSIS_RTOS/cmsis_os.c ****   
1230:Middlewares/Third_Party/FreeRTOS/Source/CMSIS_RTOS/cmsis_os.c ****   /* Create a queue in FreeRTOS */
1231:Middlewares/Third_Party/FreeRTOS/Source/CMSIS_RTOS/cmsis_os.c ****   (*(queue_def->cb))->handle = xQueueCreate(queue_def->queue_sz, sizeof(void *));
 2438              		.loc 1 1231 3 is_stmt 1 view .LVU605
 2439              		.loc 1 1231 15 is_stmt 0 view .LVU606
 2440 0024 A368     		ldr	r3, [r4, #8]
 2441              		.loc 1 1231 4 view .LVU607
 2442 0026 1D68     		ldr	r5, [r3]
 2443              		.loc 1 1231 32 view .LVU608
 2444 0028 0022     		movs	r2, #0
 2445 002a 0421     		movs	r1, #4
 2446 002c 2068     		ldr	r0, [r4]
 2447 002e FFF7FEFF 		bl	xQueueGenericCreate
 2448              	.LVL182:
ARM GAS  /var/folders/n1/76bg37b13ls08p1dhb9rhvd40000gn/T//cc6VEgqh.s 			page 73


 2449              		.loc 1 1231 30 view .LVU609
 2450 0032 6860     		str	r0, [r5, #4]
1232:Middlewares/Third_Party/FreeRTOS/Source/CMSIS_RTOS/cmsis_os.c **** 
1233:Middlewares/Third_Party/FreeRTOS/Source/CMSIS_RTOS/cmsis_os.c **** 
1234:Middlewares/Third_Party/FreeRTOS/Source/CMSIS_RTOS/cmsis_os.c ****   if ((*(queue_def->cb))->handle == NULL) {
 2451              		.loc 1 1234 3 is_stmt 1 view .LVU610
 2452              		.loc 1 1234 19 is_stmt 0 view .LVU611
 2453 0034 A368     		ldr	r3, [r4, #8]
 2454              		.loc 1 1234 8 view .LVU612
 2455 0036 1D68     		ldr	r5, [r3]
 2456              		.loc 1 1234 25 view .LVU613
 2457 0038 6B68     		ldr	r3, [r5, #4]
 2458              		.loc 1 1234 6 view .LVU614
 2459 003a 4BB1     		cbz	r3, .L193
1235:Middlewares/Third_Party/FreeRTOS/Source/CMSIS_RTOS/cmsis_os.c ****     vPortFree(*(queue_def->cb));
1236:Middlewares/Third_Party/FreeRTOS/Source/CMSIS_RTOS/cmsis_os.c ****     return NULL;
1237:Middlewares/Third_Party/FreeRTOS/Source/CMSIS_RTOS/cmsis_os.c ****   }
1238:Middlewares/Third_Party/FreeRTOS/Source/CMSIS_RTOS/cmsis_os.c ****   
1239:Middlewares/Third_Party/FreeRTOS/Source/CMSIS_RTOS/cmsis_os.c ****   /* Create a mail pool */
1240:Middlewares/Third_Party/FreeRTOS/Source/CMSIS_RTOS/cmsis_os.c ****   (*(queue_def->cb))->pool = osPoolCreate(&pool_def);
 2460              		.loc 1 1240 3 is_stmt 1 view .LVU615
 2461              		.loc 1 1240 30 is_stmt 0 view .LVU616
 2462 003c 01A8     		add	r0, sp, #4
 2463 003e FFF7FEFF 		bl	osPoolCreate
 2464              	.LVL183:
 2465              		.loc 1 1240 28 view .LVU617
 2466 0042 A860     		str	r0, [r5, #8]
1241:Middlewares/Third_Party/FreeRTOS/Source/CMSIS_RTOS/cmsis_os.c ****   if ((*(queue_def->cb))->pool == NULL) {
 2467              		.loc 1 1241 3 is_stmt 1 view .LVU618
 2468              		.loc 1 1241 19 is_stmt 0 view .LVU619
 2469 0044 A368     		ldr	r3, [r4, #8]
 2470              		.loc 1 1241 8 view .LVU620
 2471 0046 1868     		ldr	r0, [r3]
 2472              		.loc 1 1241 25 view .LVU621
 2473 0048 8368     		ldr	r3, [r0, #8]
 2474              		.loc 1 1241 6 view .LVU622
 2475 004a 33B1     		cbz	r3, .L194
 2476              	.L188:
1242:Middlewares/Third_Party/FreeRTOS/Source/CMSIS_RTOS/cmsis_os.c ****     //TODO: Delete queue. How to do it in FreeRTOS?
1243:Middlewares/Third_Party/FreeRTOS/Source/CMSIS_RTOS/cmsis_os.c ****     vPortFree(*(queue_def->cb));
1244:Middlewares/Third_Party/FreeRTOS/Source/CMSIS_RTOS/cmsis_os.c ****     return NULL;
1245:Middlewares/Third_Party/FreeRTOS/Source/CMSIS_RTOS/cmsis_os.c ****   }
1246:Middlewares/Third_Party/FreeRTOS/Source/CMSIS_RTOS/cmsis_os.c ****   
1247:Middlewares/Third_Party/FreeRTOS/Source/CMSIS_RTOS/cmsis_os.c ****   return *(queue_def->cb);
1248:Middlewares/Third_Party/FreeRTOS/Source/CMSIS_RTOS/cmsis_os.c **** #else
1249:Middlewares/Third_Party/FreeRTOS/Source/CMSIS_RTOS/cmsis_os.c ****   return NULL;
1250:Middlewares/Third_Party/FreeRTOS/Source/CMSIS_RTOS/cmsis_os.c **** #endif
1251:Middlewares/Third_Party/FreeRTOS/Source/CMSIS_RTOS/cmsis_os.c **** }
 2477              		.loc 1 1251 1 view .LVU623
 2478 004c 05B0     		add	sp, sp, #20
 2479              	.LCFI54:
 2480              		.cfi_remember_state
 2481              		.cfi_def_cfa_offset 12
 2482              		@ sp needed
 2483 004e 30BD     		pop	{r4, r5, pc}
 2484              	.LVL184:
 2485              	.L193:
ARM GAS  /var/folders/n1/76bg37b13ls08p1dhb9rhvd40000gn/T//cc6VEgqh.s 			page 74


 2486              	.LCFI55:
 2487              		.cfi_restore_state
1235:Middlewares/Third_Party/FreeRTOS/Source/CMSIS_RTOS/cmsis_os.c ****     return NULL;
 2488              		.loc 1 1235 5 is_stmt 1 view .LVU624
 2489 0050 2846     		mov	r0, r5
 2490 0052 FFF7FEFF 		bl	vPortFree
 2491              	.LVL185:
1236:Middlewares/Third_Party/FreeRTOS/Source/CMSIS_RTOS/cmsis_os.c ****   }
 2492              		.loc 1 1236 5 view .LVU625
1236:Middlewares/Third_Party/FreeRTOS/Source/CMSIS_RTOS/cmsis_os.c ****   }
 2493              		.loc 1 1236 12 is_stmt 0 view .LVU626
 2494 0056 0020     		movs	r0, #0
 2495 0058 F8E7     		b	.L188
 2496              	.L194:
1243:Middlewares/Third_Party/FreeRTOS/Source/CMSIS_RTOS/cmsis_os.c ****     return NULL;
 2497              		.loc 1 1243 5 is_stmt 1 view .LVU627
 2498 005a FFF7FEFF 		bl	vPortFree
 2499              	.LVL186:
1244:Middlewares/Third_Party/FreeRTOS/Source/CMSIS_RTOS/cmsis_os.c ****   }
 2500              		.loc 1 1244 5 view .LVU628
1244:Middlewares/Third_Party/FreeRTOS/Source/CMSIS_RTOS/cmsis_os.c ****   }
 2501              		.loc 1 1244 12 is_stmt 0 view .LVU629
 2502 005e 0020     		movs	r0, #0
 2503 0060 F4E7     		b	.L188
 2504              	.L191:
1226:Middlewares/Third_Party/FreeRTOS/Source/CMSIS_RTOS/cmsis_os.c ****   }
 2505              		.loc 1 1226 12 view .LVU630
 2506 0062 0020     		movs	r0, #0
 2507 0064 F2E7     		b	.L188
 2508              		.cfi_endproc
 2509              	.LFE64:
 2511              		.section	.text.osMailAlloc,"ax",%progbits
 2512              		.align	1
 2513              		.global	osMailAlloc
 2514              		.syntax unified
 2515              		.thumb
 2516              		.thumb_func
 2517              		.fpu fpv4-sp-d16
 2519              	osMailAlloc:
 2520              	.LVL187:
 2521              	.LFB65:
1252:Middlewares/Third_Party/FreeRTOS/Source/CMSIS_RTOS/cmsis_os.c **** 
1253:Middlewares/Third_Party/FreeRTOS/Source/CMSIS_RTOS/cmsis_os.c **** /**
1254:Middlewares/Third_Party/FreeRTOS/Source/CMSIS_RTOS/cmsis_os.c **** * @brief Allocate a memory block from a mail
1255:Middlewares/Third_Party/FreeRTOS/Source/CMSIS_RTOS/cmsis_os.c **** * @param  queue_id      mail queue ID obtained with \ref osMailCreate.
1256:Middlewares/Third_Party/FreeRTOS/Source/CMSIS_RTOS/cmsis_os.c **** * @param  millisec      timeout value or 0 in case of no time-out.
1257:Middlewares/Third_Party/FreeRTOS/Source/CMSIS_RTOS/cmsis_os.c **** * @retval pointer to memory block that can be filled with mail or NULL in case error.
1258:Middlewares/Third_Party/FreeRTOS/Source/CMSIS_RTOS/cmsis_os.c **** * @note   MUST REMAIN UNCHANGED: \b osMailAlloc shall be consistent in every CMSIS-RTOS.
1259:Middlewares/Third_Party/FreeRTOS/Source/CMSIS_RTOS/cmsis_os.c **** */
1260:Middlewares/Third_Party/FreeRTOS/Source/CMSIS_RTOS/cmsis_os.c **** void *osMailAlloc (osMailQId queue_id, uint32_t millisec)
1261:Middlewares/Third_Party/FreeRTOS/Source/CMSIS_RTOS/cmsis_os.c **** {
 2522              		.loc 1 1261 1 is_stmt 1 view -0
 2523              		.cfi_startproc
 2524              		@ args = 0, pretend = 0, frame = 0
 2525              		@ frame_needed = 0, uses_anonymous_args = 0
1262:Middlewares/Third_Party/FreeRTOS/Source/CMSIS_RTOS/cmsis_os.c ****   (void) millisec;
 2526              		.loc 1 1262 3 view .LVU632
ARM GAS  /var/folders/n1/76bg37b13ls08p1dhb9rhvd40000gn/T//cc6VEgqh.s 			page 75


1263:Middlewares/Third_Party/FreeRTOS/Source/CMSIS_RTOS/cmsis_os.c ****   void *p;
 2527              		.loc 1 1263 3 view .LVU633
1264:Middlewares/Third_Party/FreeRTOS/Source/CMSIS_RTOS/cmsis_os.c ****   
1265:Middlewares/Third_Party/FreeRTOS/Source/CMSIS_RTOS/cmsis_os.c ****   
1266:Middlewares/Third_Party/FreeRTOS/Source/CMSIS_RTOS/cmsis_os.c ****   if (queue_id == NULL) {
 2528              		.loc 1 1266 3 view .LVU634
 2529              		.loc 1 1266 6 is_stmt 0 view .LVU635
 2530 0000 20B1     		cbz	r0, .L197
1261:Middlewares/Third_Party/FreeRTOS/Source/CMSIS_RTOS/cmsis_os.c ****   (void) millisec;
 2531              		.loc 1 1261 1 view .LVU636
 2532 0002 08B5     		push	{r3, lr}
 2533              	.LCFI56:
 2534              		.cfi_def_cfa_offset 8
 2535              		.cfi_offset 3, -8
 2536              		.cfi_offset 14, -4
1267:Middlewares/Third_Party/FreeRTOS/Source/CMSIS_RTOS/cmsis_os.c ****     return NULL;
1268:Middlewares/Third_Party/FreeRTOS/Source/CMSIS_RTOS/cmsis_os.c ****   }
1269:Middlewares/Third_Party/FreeRTOS/Source/CMSIS_RTOS/cmsis_os.c ****   
1270:Middlewares/Third_Party/FreeRTOS/Source/CMSIS_RTOS/cmsis_os.c ****   p = osPoolAlloc(queue_id->pool);
 2537              		.loc 1 1270 3 is_stmt 1 view .LVU637
 2538              		.loc 1 1270 7 is_stmt 0 view .LVU638
 2539 0004 8068     		ldr	r0, [r0, #8]
 2540              	.LVL188:
 2541              		.loc 1 1270 7 view .LVU639
 2542 0006 FFF7FEFF 		bl	osPoolAlloc
 2543              	.LVL189:
1271:Middlewares/Third_Party/FreeRTOS/Source/CMSIS_RTOS/cmsis_os.c ****   
1272:Middlewares/Third_Party/FreeRTOS/Source/CMSIS_RTOS/cmsis_os.c ****   return p;
 2544              		.loc 1 1272 3 is_stmt 1 view .LVU640
1273:Middlewares/Third_Party/FreeRTOS/Source/CMSIS_RTOS/cmsis_os.c **** }
 2545              		.loc 1 1273 1 is_stmt 0 view .LVU641
 2546 000a 08BD     		pop	{r3, pc}
 2547              	.LVL190:
 2548              	.L197:
 2549              	.LCFI57:
 2550              		.cfi_def_cfa_offset 0
 2551              		.cfi_restore 3
 2552              		.cfi_restore 14
1267:Middlewares/Third_Party/FreeRTOS/Source/CMSIS_RTOS/cmsis_os.c ****     return NULL;
 2553              		.loc 1 1267 12 view .LVU642
 2554 000c 0020     		movs	r0, #0
 2555              	.LVL191:
 2556              		.loc 1 1273 1 view .LVU643
 2557 000e 7047     		bx	lr
 2558              		.cfi_endproc
 2559              	.LFE65:
 2561              		.section	.text.osMailCAlloc,"ax",%progbits
 2562              		.align	1
 2563              		.global	osMailCAlloc
 2564              		.syntax unified
 2565              		.thumb
 2566              		.thumb_func
 2567              		.fpu fpv4-sp-d16
 2569              	osMailCAlloc:
 2570              	.LVL192:
 2571              	.LFB66:
1274:Middlewares/Third_Party/FreeRTOS/Source/CMSIS_RTOS/cmsis_os.c **** 
ARM GAS  /var/folders/n1/76bg37b13ls08p1dhb9rhvd40000gn/T//cc6VEgqh.s 			page 76


1275:Middlewares/Third_Party/FreeRTOS/Source/CMSIS_RTOS/cmsis_os.c **** /**
1276:Middlewares/Third_Party/FreeRTOS/Source/CMSIS_RTOS/cmsis_os.c **** * @brief Allocate a memory block from a mail and set memory block to zero
1277:Middlewares/Third_Party/FreeRTOS/Source/CMSIS_RTOS/cmsis_os.c **** * @param  queue_id      mail queue ID obtained with \ref osMailCreate.
1278:Middlewares/Third_Party/FreeRTOS/Source/CMSIS_RTOS/cmsis_os.c **** * @param  millisec      timeout value or 0 in case of no time-out.
1279:Middlewares/Third_Party/FreeRTOS/Source/CMSIS_RTOS/cmsis_os.c **** * @retval pointer to memory block that can be filled with mail or NULL in case error.
1280:Middlewares/Third_Party/FreeRTOS/Source/CMSIS_RTOS/cmsis_os.c **** * @note   MUST REMAIN UNCHANGED: \b osMailCAlloc shall be consistent in every CMSIS-RTOS.
1281:Middlewares/Third_Party/FreeRTOS/Source/CMSIS_RTOS/cmsis_os.c **** */
1282:Middlewares/Third_Party/FreeRTOS/Source/CMSIS_RTOS/cmsis_os.c **** void *osMailCAlloc (osMailQId queue_id, uint32_t millisec)
1283:Middlewares/Third_Party/FreeRTOS/Source/CMSIS_RTOS/cmsis_os.c **** {
 2572              		.loc 1 1283 1 is_stmt 1 view -0
 2573              		.cfi_startproc
 2574              		@ args = 0, pretend = 0, frame = 0
 2575              		@ frame_needed = 0, uses_anonymous_args = 0
 2576              		.loc 1 1283 1 is_stmt 0 view .LVU645
 2577 0000 10B5     		push	{r4, lr}
 2578              	.LCFI58:
 2579              		.cfi_def_cfa_offset 8
 2580              		.cfi_offset 4, -8
 2581              		.cfi_offset 14, -4
 2582 0002 0446     		mov	r4, r0
1284:Middlewares/Third_Party/FreeRTOS/Source/CMSIS_RTOS/cmsis_os.c ****   uint32_t i;
 2583              		.loc 1 1284 3 is_stmt 1 view .LVU646
1285:Middlewares/Third_Party/FreeRTOS/Source/CMSIS_RTOS/cmsis_os.c ****   void *p = osMailAlloc(queue_id, millisec);
 2584              		.loc 1 1285 3 view .LVU647
 2585              		.loc 1 1285 13 is_stmt 0 view .LVU648
 2586 0004 FFF7FEFF 		bl	osMailAlloc
 2587              	.LVL193:
1286:Middlewares/Third_Party/FreeRTOS/Source/CMSIS_RTOS/cmsis_os.c ****   
1287:Middlewares/Third_Party/FreeRTOS/Source/CMSIS_RTOS/cmsis_os.c ****   if (p) {
 2588              		.loc 1 1287 3 is_stmt 1 view .LVU649
 2589              		.loc 1 1287 6 is_stmt 0 view .LVU650
 2590 0008 0146     		mov	r1, r0
 2591 000a 40B1     		cbz	r0, .L202
1288:Middlewares/Third_Party/FreeRTOS/Source/CMSIS_RTOS/cmsis_os.c ****     for (i = 0; i < queue_id->queue_def->item_sz; i++) {
 2592              		.loc 1 1288 12 view .LVU651
 2593 000c 0023     		movs	r3, #0
 2594              	.L203:
 2595              	.LVL194:
 2596              		.loc 1 1288 29 discriminator 1 view .LVU652
 2597 000e 2268     		ldr	r2, [r4]
 2598              		.loc 1 1288 40 discriminator 1 view .LVU653
 2599 0010 5268     		ldr	r2, [r2, #4]
 2600              		.loc 1 1288 5 discriminator 1 view .LVU654
 2601 0012 9A42     		cmp	r2, r3
 2602 0014 03D9     		bls	.L202
1289:Middlewares/Third_Party/FreeRTOS/Source/CMSIS_RTOS/cmsis_os.c ****       ((uint8_t *)p)[i] = 0;
 2603              		.loc 1 1289 7 is_stmt 1 discriminator 3 view .LVU655
 2604              		.loc 1 1289 25 is_stmt 0 discriminator 3 view .LVU656
 2605 0016 0022     		movs	r2, #0
 2606 0018 CA54     		strb	r2, [r1, r3]
1288:Middlewares/Third_Party/FreeRTOS/Source/CMSIS_RTOS/cmsis_os.c ****     for (i = 0; i < queue_id->queue_def->item_sz; i++) {
 2607              		.loc 1 1288 52 discriminator 3 view .LVU657
 2608 001a 0133     		adds	r3, r3, #1
 2609              	.LVL195:
1288:Middlewares/Third_Party/FreeRTOS/Source/CMSIS_RTOS/cmsis_os.c ****     for (i = 0; i < queue_id->queue_def->item_sz; i++) {
 2610              		.loc 1 1288 52 discriminator 3 view .LVU658
 2611 001c F7E7     		b	.L203
ARM GAS  /var/folders/n1/76bg37b13ls08p1dhb9rhvd40000gn/T//cc6VEgqh.s 			page 77


 2612              	.LVL196:
 2613              	.L202:
1290:Middlewares/Third_Party/FreeRTOS/Source/CMSIS_RTOS/cmsis_os.c ****     }
1291:Middlewares/Third_Party/FreeRTOS/Source/CMSIS_RTOS/cmsis_os.c ****   }
1292:Middlewares/Third_Party/FreeRTOS/Source/CMSIS_RTOS/cmsis_os.c ****   
1293:Middlewares/Third_Party/FreeRTOS/Source/CMSIS_RTOS/cmsis_os.c ****   return p;
1294:Middlewares/Third_Party/FreeRTOS/Source/CMSIS_RTOS/cmsis_os.c **** }
 2614              		.loc 1 1294 1 view .LVU659
 2615 001e 0846     		mov	r0, r1
 2616              	.LVL197:
 2617              		.loc 1 1294 1 view .LVU660
 2618 0020 10BD     		pop	{r4, pc}
 2619              		.loc 1 1294 1 view .LVU661
 2620              		.cfi_endproc
 2621              	.LFE66:
 2623              		.section	.text.osMailPut,"ax",%progbits
 2624              		.align	1
 2625              		.global	osMailPut
 2626              		.syntax unified
 2627              		.thumb
 2628              		.thumb_func
 2629              		.fpu fpv4-sp-d16
 2631              	osMailPut:
 2632              	.LVL198:
 2633              	.LFB67:
1295:Middlewares/Third_Party/FreeRTOS/Source/CMSIS_RTOS/cmsis_os.c **** 
1296:Middlewares/Third_Party/FreeRTOS/Source/CMSIS_RTOS/cmsis_os.c **** /**
1297:Middlewares/Third_Party/FreeRTOS/Source/CMSIS_RTOS/cmsis_os.c **** * @brief Put a mail to a queue
1298:Middlewares/Third_Party/FreeRTOS/Source/CMSIS_RTOS/cmsis_os.c **** * @param  queue_id      mail queue ID obtained with \ref osMailCreate.
1299:Middlewares/Third_Party/FreeRTOS/Source/CMSIS_RTOS/cmsis_os.c **** * @param  mail          memory block previously allocated with \ref osMailAlloc or \ref osMailCAllo
1300:Middlewares/Third_Party/FreeRTOS/Source/CMSIS_RTOS/cmsis_os.c **** * @retval status code that indicates the execution status of the function.
1301:Middlewares/Third_Party/FreeRTOS/Source/CMSIS_RTOS/cmsis_os.c **** * @note   MUST REMAIN UNCHANGED: \b osMailPut shall be consistent in every CMSIS-RTOS.
1302:Middlewares/Third_Party/FreeRTOS/Source/CMSIS_RTOS/cmsis_os.c **** */
1303:Middlewares/Third_Party/FreeRTOS/Source/CMSIS_RTOS/cmsis_os.c **** osStatus osMailPut (osMailQId queue_id, void *mail)
1304:Middlewares/Third_Party/FreeRTOS/Source/CMSIS_RTOS/cmsis_os.c **** {
 2634              		.loc 1 1304 1 is_stmt 1 view -0
 2635              		.cfi_startproc
 2636              		@ args = 0, pretend = 0, frame = 16
 2637              		@ frame_needed = 0, uses_anonymous_args = 0
 2638              		.loc 1 1304 1 is_stmt 0 view .LVU663
 2639 0000 10B5     		push	{r4, lr}
 2640              	.LCFI59:
 2641              		.cfi_def_cfa_offset 8
 2642              		.cfi_offset 4, -8
 2643              		.cfi_offset 14, -4
 2644 0002 84B0     		sub	sp, sp, #16
 2645              	.LCFI60:
 2646              		.cfi_def_cfa_offset 24
 2647 0004 0191     		str	r1, [sp, #4]
1305:Middlewares/Third_Party/FreeRTOS/Source/CMSIS_RTOS/cmsis_os.c ****   portBASE_TYPE taskWoken;
 2648              		.loc 1 1305 3 is_stmt 1 view .LVU664
1306:Middlewares/Third_Party/FreeRTOS/Source/CMSIS_RTOS/cmsis_os.c ****   
1307:Middlewares/Third_Party/FreeRTOS/Source/CMSIS_RTOS/cmsis_os.c ****   
1308:Middlewares/Third_Party/FreeRTOS/Source/CMSIS_RTOS/cmsis_os.c ****   if (queue_id == NULL) {
 2649              		.loc 1 1308 3 view .LVU665
 2650              		.loc 1 1308 6 is_stmt 0 view .LVU666
 2651 0006 20B3     		cbz	r0, .L211
ARM GAS  /var/folders/n1/76bg37b13ls08p1dhb9rhvd40000gn/T//cc6VEgqh.s 			page 78


 2652 0008 0446     		mov	r4, r0
1309:Middlewares/Third_Party/FreeRTOS/Source/CMSIS_RTOS/cmsis_os.c ****     return osErrorParameter;
1310:Middlewares/Third_Party/FreeRTOS/Source/CMSIS_RTOS/cmsis_os.c ****   }
1311:Middlewares/Third_Party/FreeRTOS/Source/CMSIS_RTOS/cmsis_os.c ****   
1312:Middlewares/Third_Party/FreeRTOS/Source/CMSIS_RTOS/cmsis_os.c ****   taskWoken = pdFALSE;
 2653              		.loc 1 1312 3 is_stmt 1 view .LVU667
 2654              		.loc 1 1312 13 is_stmt 0 view .LVU668
 2655 000a 0023     		movs	r3, #0
 2656 000c 0393     		str	r3, [sp, #12]
1313:Middlewares/Third_Party/FreeRTOS/Source/CMSIS_RTOS/cmsis_os.c ****   
1314:Middlewares/Third_Party/FreeRTOS/Source/CMSIS_RTOS/cmsis_os.c ****   if (inHandlerMode()) {
 2657              		.loc 1 1314 3 is_stmt 1 view .LVU669
 2658              		.loc 1 1314 7 is_stmt 0 view .LVU670
 2659 000e FFF7FEFF 		bl	inHandlerMode
 2660              	.LVL199:
 2661              		.loc 1 1314 6 view .LVU671
 2662 0012 98B1     		cbz	r0, .L210
1315:Middlewares/Third_Party/FreeRTOS/Source/CMSIS_RTOS/cmsis_os.c ****     if (xQueueSendFromISR(queue_id->handle, &mail, &taskWoken) != pdTRUE) {
 2663              		.loc 1 1315 5 is_stmt 1 view .LVU672
 2664              		.loc 1 1315 9 is_stmt 0 view .LVU673
 2665 0014 0023     		movs	r3, #0
 2666 0016 03AA     		add	r2, sp, #12
 2667 0018 01A9     		add	r1, sp, #4
 2668 001a 6068     		ldr	r0, [r4, #4]
 2669 001c FFF7FEFF 		bl	xQueueGenericSendFromISR
 2670              	.LVL200:
 2671              		.loc 1 1315 8 view .LVU674
 2672 0020 0128     		cmp	r0, #1
 2673 0022 18D1     		bne	.L212
1316:Middlewares/Third_Party/FreeRTOS/Source/CMSIS_RTOS/cmsis_os.c ****       return osErrorOS;
1317:Middlewares/Third_Party/FreeRTOS/Source/CMSIS_RTOS/cmsis_os.c ****     }
1318:Middlewares/Third_Party/FreeRTOS/Source/CMSIS_RTOS/cmsis_os.c ****     portEND_SWITCHING_ISR(taskWoken);
 2674              		.loc 1 1318 5 is_stmt 1 view .LVU675
 2675 0024 039B     		ldr	r3, [sp, #12]
 2676 0026 C3B1     		cbz	r3, .L213
 2677              		.loc 1 1318 5 discriminator 1 view .LVU676
 2678 0028 0E4B     		ldr	r3, .L216
 2679 002a 4FF08052 		mov	r2, #268435456
 2680 002e 1A60     		str	r2, [r3]
 2681              		.loc 1 1318 5 discriminator 1 view .LVU677
 2682              		.syntax unified
 2683              	@ 1318 "Middlewares/Third_Party/FreeRTOS/Source/CMSIS_RTOS/cmsis_os.c" 1
 2684 0030 BFF34F8F 		dsb
 2685              	@ 0 "" 2
 2686              		.loc 1 1318 5 discriminator 1 view .LVU678
 2687              	@ 1318 "Middlewares/Third_Party/FreeRTOS/Source/CMSIS_RTOS/cmsis_os.c" 1
 2688 0034 BFF36F8F 		isb
 2689              	@ 0 "" 2
1319:Middlewares/Third_Party/FreeRTOS/Source/CMSIS_RTOS/cmsis_os.c ****   }
1320:Middlewares/Third_Party/FreeRTOS/Source/CMSIS_RTOS/cmsis_os.c ****   else {
1321:Middlewares/Third_Party/FreeRTOS/Source/CMSIS_RTOS/cmsis_os.c ****     if (xQueueSend(queue_id->handle, &mail, 0) != pdTRUE) { 
1322:Middlewares/Third_Party/FreeRTOS/Source/CMSIS_RTOS/cmsis_os.c ****       return osErrorOS;
1323:Middlewares/Third_Party/FreeRTOS/Source/CMSIS_RTOS/cmsis_os.c ****     }
1324:Middlewares/Third_Party/FreeRTOS/Source/CMSIS_RTOS/cmsis_os.c ****   }
1325:Middlewares/Third_Party/FreeRTOS/Source/CMSIS_RTOS/cmsis_os.c ****   
1326:Middlewares/Third_Party/FreeRTOS/Source/CMSIS_RTOS/cmsis_os.c ****   return osOK;
 2690              		.loc 1 1326 10 is_stmt 0 discriminator 1 view .LVU679
ARM GAS  /var/folders/n1/76bg37b13ls08p1dhb9rhvd40000gn/T//cc6VEgqh.s 			page 79


 2691              		.thumb
 2692              		.syntax unified
 2693 0038 0020     		movs	r0, #0
 2694 003a 08E0     		b	.L208
 2695              	.L210:
1321:Middlewares/Third_Party/FreeRTOS/Source/CMSIS_RTOS/cmsis_os.c ****       return osErrorOS;
 2696              		.loc 1 1321 5 is_stmt 1 view .LVU680
1321:Middlewares/Third_Party/FreeRTOS/Source/CMSIS_RTOS/cmsis_os.c ****       return osErrorOS;
 2697              		.loc 1 1321 9 is_stmt 0 view .LVU681
 2698 003c 0023     		movs	r3, #0
 2699 003e 1A46     		mov	r2, r3
 2700 0040 01A9     		add	r1, sp, #4
 2701 0042 6068     		ldr	r0, [r4, #4]
 2702 0044 FFF7FEFF 		bl	xQueueGenericSend
 2703              	.LVL201:
1321:Middlewares/Third_Party/FreeRTOS/Source/CMSIS_RTOS/cmsis_os.c ****       return osErrorOS;
 2704              		.loc 1 1321 8 view .LVU682
 2705 0048 0128     		cmp	r0, #1
 2706 004a 08D1     		bne	.L214
 2707              		.loc 1 1326 10 view .LVU683
 2708 004c 0020     		movs	r0, #0
 2709              	.LVL202:
 2710              	.L208:
1327:Middlewares/Third_Party/FreeRTOS/Source/CMSIS_RTOS/cmsis_os.c **** }
 2711              		.loc 1 1327 1 view .LVU684
 2712 004e 04B0     		add	sp, sp, #16
 2713              	.LCFI61:
 2714              		.cfi_remember_state
 2715              		.cfi_def_cfa_offset 8
 2716              		@ sp needed
 2717 0050 10BD     		pop	{r4, pc}
 2718              	.LVL203:
 2719              	.L211:
 2720              	.LCFI62:
 2721              		.cfi_restore_state
1309:Middlewares/Third_Party/FreeRTOS/Source/CMSIS_RTOS/cmsis_os.c ****   }
 2722              		.loc 1 1309 12 view .LVU685
 2723 0052 8020     		movs	r0, #128
 2724              	.LVL204:
1309:Middlewares/Third_Party/FreeRTOS/Source/CMSIS_RTOS/cmsis_os.c ****   }
 2725              		.loc 1 1309 12 view .LVU686
 2726 0054 FBE7     		b	.L208
 2727              	.LVL205:
 2728              	.L212:
1316:Middlewares/Third_Party/FreeRTOS/Source/CMSIS_RTOS/cmsis_os.c ****     }
 2729              		.loc 1 1316 14 view .LVU687
 2730 0056 FF20     		movs	r0, #255
 2731 0058 F9E7     		b	.L208
 2732              	.L213:
1326:Middlewares/Third_Party/FreeRTOS/Source/CMSIS_RTOS/cmsis_os.c **** }
 2733              		.loc 1 1326 10 view .LVU688
 2734 005a 0020     		movs	r0, #0
 2735 005c F7E7     		b	.L208
 2736              	.L214:
1322:Middlewares/Third_Party/FreeRTOS/Source/CMSIS_RTOS/cmsis_os.c ****     }
 2737              		.loc 1 1322 14 view .LVU689
 2738 005e FF20     		movs	r0, #255
ARM GAS  /var/folders/n1/76bg37b13ls08p1dhb9rhvd40000gn/T//cc6VEgqh.s 			page 80


 2739 0060 F5E7     		b	.L208
 2740              	.L217:
 2741 0062 00BF     		.align	2
 2742              	.L216:
 2743 0064 04ED00E0 		.word	-536810236
 2744              		.cfi_endproc
 2745              	.LFE67:
 2747              		.section	.text.osMailGet,"ax",%progbits
 2748              		.align	1
 2749              		.global	osMailGet
 2750              		.syntax unified
 2751              		.thumb
 2752              		.thumb_func
 2753              		.fpu fpv4-sp-d16
 2755              	osMailGet:
 2756              	.LVL206:
 2757              	.LFB68:
1328:Middlewares/Third_Party/FreeRTOS/Source/CMSIS_RTOS/cmsis_os.c **** 
1329:Middlewares/Third_Party/FreeRTOS/Source/CMSIS_RTOS/cmsis_os.c **** /**
1330:Middlewares/Third_Party/FreeRTOS/Source/CMSIS_RTOS/cmsis_os.c **** * @brief Get a mail from a queue
1331:Middlewares/Third_Party/FreeRTOS/Source/CMSIS_RTOS/cmsis_os.c **** * @param  queue_id   mail queue ID obtained with \ref osMailCreate.
1332:Middlewares/Third_Party/FreeRTOS/Source/CMSIS_RTOS/cmsis_os.c **** * @param millisec    timeout value or 0 in case of no time-out
1333:Middlewares/Third_Party/FreeRTOS/Source/CMSIS_RTOS/cmsis_os.c **** * @retval event that contains mail information or error code.
1334:Middlewares/Third_Party/FreeRTOS/Source/CMSIS_RTOS/cmsis_os.c **** * @note   MUST REMAIN UNCHANGED: \b osMailGet shall be consistent in every CMSIS-RTOS.
1335:Middlewares/Third_Party/FreeRTOS/Source/CMSIS_RTOS/cmsis_os.c **** */
1336:Middlewares/Third_Party/FreeRTOS/Source/CMSIS_RTOS/cmsis_os.c **** osEvent osMailGet (osMailQId queue_id, uint32_t millisec)
1337:Middlewares/Third_Party/FreeRTOS/Source/CMSIS_RTOS/cmsis_os.c **** {
 2758              		.loc 1 1337 1 is_stmt 1 view -0
 2759              		.cfi_startproc
 2760              		@ args = 0, pretend = 0, frame = 16
 2761              		@ frame_needed = 0, uses_anonymous_args = 0
 2762              		.loc 1 1337 1 is_stmt 0 view .LVU691
 2763 0000 70B5     		push	{r4, r5, r6, lr}
 2764              	.LCFI63:
 2765              		.cfi_def_cfa_offset 16
 2766              		.cfi_offset 4, -16
 2767              		.cfi_offset 5, -12
 2768              		.cfi_offset 6, -8
 2769              		.cfi_offset 14, -4
 2770 0002 84B0     		sub	sp, sp, #16
 2771              	.LCFI64:
 2772              		.cfi_def_cfa_offset 32
 2773 0004 0446     		mov	r4, r0
1338:Middlewares/Third_Party/FreeRTOS/Source/CMSIS_RTOS/cmsis_os.c ****   portBASE_TYPE taskWoken;
 2774              		.loc 1 1338 3 is_stmt 1 view .LVU692
1339:Middlewares/Third_Party/FreeRTOS/Source/CMSIS_RTOS/cmsis_os.c ****   TickType_t ticks;
 2775              		.loc 1 1339 3 view .LVU693
1340:Middlewares/Third_Party/FreeRTOS/Source/CMSIS_RTOS/cmsis_os.c ****   osEvent event;
 2776              		.loc 1 1340 3 view .LVU694
1341:Middlewares/Third_Party/FreeRTOS/Source/CMSIS_RTOS/cmsis_os.c ****   
1342:Middlewares/Third_Party/FreeRTOS/Source/CMSIS_RTOS/cmsis_os.c ****   event.def.mail_id = queue_id;
 2777              		.loc 1 1342 3 view .LVU695
 2778              		.loc 1 1342 21 is_stmt 0 view .LVU696
 2779 0006 0291     		str	r1, [sp, #8]
1343:Middlewares/Third_Party/FreeRTOS/Source/CMSIS_RTOS/cmsis_os.c ****   
1344:Middlewares/Third_Party/FreeRTOS/Source/CMSIS_RTOS/cmsis_os.c ****   if (queue_id == NULL) {
 2780              		.loc 1 1344 3 is_stmt 1 view .LVU697
ARM GAS  /var/folders/n1/76bg37b13ls08p1dhb9rhvd40000gn/T//cc6VEgqh.s 			page 81


 2781              		.loc 1 1344 6 is_stmt 0 view .LVU698
 2782 0008 49B1     		cbz	r1, .L231
 2783 000a 0D46     		mov	r5, r1
 2784 000c 1646     		mov	r6, r2
1345:Middlewares/Third_Party/FreeRTOS/Source/CMSIS_RTOS/cmsis_os.c ****     event.status = osErrorParameter;
1346:Middlewares/Third_Party/FreeRTOS/Source/CMSIS_RTOS/cmsis_os.c ****     return event;
1347:Middlewares/Third_Party/FreeRTOS/Source/CMSIS_RTOS/cmsis_os.c ****   }
1348:Middlewares/Third_Party/FreeRTOS/Source/CMSIS_RTOS/cmsis_os.c ****   
1349:Middlewares/Third_Party/FreeRTOS/Source/CMSIS_RTOS/cmsis_os.c ****   taskWoken = pdFALSE;
 2785              		.loc 1 1349 3 is_stmt 1 view .LVU699
 2786              		.loc 1 1349 13 is_stmt 0 view .LVU700
 2787 000e 0023     		movs	r3, #0
 2788 0010 0393     		str	r3, [sp, #12]
1350:Middlewares/Third_Party/FreeRTOS/Source/CMSIS_RTOS/cmsis_os.c ****   
1351:Middlewares/Third_Party/FreeRTOS/Source/CMSIS_RTOS/cmsis_os.c ****   ticks = 0;
 2789              		.loc 1 1351 3 is_stmt 1 view .LVU701
 2790              	.LVL207:
1352:Middlewares/Third_Party/FreeRTOS/Source/CMSIS_RTOS/cmsis_os.c ****   if (millisec == osWaitForever) {
 2791              		.loc 1 1352 3 view .LVU702
 2792              		.loc 1 1352 6 is_stmt 0 view .LVU703
 2793 0012 B2F1FF3F 		cmp	r2, #-1
 2794 0016 0AD0     		beq	.L228
1353:Middlewares/Third_Party/FreeRTOS/Source/CMSIS_RTOS/cmsis_os.c ****     ticks = portMAX_DELAY;
1354:Middlewares/Third_Party/FreeRTOS/Source/CMSIS_RTOS/cmsis_os.c ****   }
1355:Middlewares/Third_Party/FreeRTOS/Source/CMSIS_RTOS/cmsis_os.c ****   else if (millisec != 0) {
 2795              		.loc 1 1355 8 is_stmt 1 view .LVU704
 2796              		.loc 1 1355 11 is_stmt 0 view .LVU705
 2797 0018 5AB9     		cbnz	r2, .L221
1351:Middlewares/Third_Party/FreeRTOS/Source/CMSIS_RTOS/cmsis_os.c ****   if (millisec == osWaitForever) {
 2798              		.loc 1 1351 9 view .LVU706
 2799 001a 1E46     		mov	r6, r3
 2800 001c 09E0     		b	.L221
 2801              	.LVL208:
 2802              	.L231:
1345:Middlewares/Third_Party/FreeRTOS/Source/CMSIS_RTOS/cmsis_os.c ****     return event;
 2803              		.loc 1 1345 5 is_stmt 1 view .LVU707
1345:Middlewares/Third_Party/FreeRTOS/Source/CMSIS_RTOS/cmsis_os.c ****     return event;
 2804              		.loc 1 1345 18 is_stmt 0 view .LVU708
 2805 001e 8023     		movs	r3, #128
 2806 0020 0093     		str	r3, [sp]
1346:Middlewares/Third_Party/FreeRTOS/Source/CMSIS_RTOS/cmsis_os.c ****   }
 2807              		.loc 1 1346 5 is_stmt 1 view .LVU709
1346:Middlewares/Third_Party/FreeRTOS/Source/CMSIS_RTOS/cmsis_os.c ****   }
 2808              		.loc 1 1346 12 is_stmt 0 view .LVU710
 2809 0022 6B46     		mov	r3, sp
 2810 0024 93E80700 		ldm	r3, {r0, r1, r2}
 2811              	.LVL209:
1346:Middlewares/Third_Party/FreeRTOS/Source/CMSIS_RTOS/cmsis_os.c ****   }
 2812              		.loc 1 1346 12 view .LVU711
 2813 0028 84E80700 		stm	r4, {r0, r1, r2}
 2814 002c 2BE0     		b	.L218
 2815              	.LVL210:
 2816              	.L228:
1353:Middlewares/Third_Party/FreeRTOS/Source/CMSIS_RTOS/cmsis_os.c ****   }
 2817              		.loc 1 1353 11 view .LVU712
 2818 002e 4FF0FF36 		mov	r6, #-1
 2819              	.L221:
ARM GAS  /var/folders/n1/76bg37b13ls08p1dhb9rhvd40000gn/T//cc6VEgqh.s 			page 82


 2820              	.LVL211:
1356:Middlewares/Third_Party/FreeRTOS/Source/CMSIS_RTOS/cmsis_os.c ****     ticks = millisec / portTICK_PERIOD_MS;
1357:Middlewares/Third_Party/FreeRTOS/Source/CMSIS_RTOS/cmsis_os.c ****     if (ticks == 0) {
1358:Middlewares/Third_Party/FreeRTOS/Source/CMSIS_RTOS/cmsis_os.c ****       ticks = 1;
1359:Middlewares/Third_Party/FreeRTOS/Source/CMSIS_RTOS/cmsis_os.c ****     }
1360:Middlewares/Third_Party/FreeRTOS/Source/CMSIS_RTOS/cmsis_os.c ****   }
1361:Middlewares/Third_Party/FreeRTOS/Source/CMSIS_RTOS/cmsis_os.c ****   
1362:Middlewares/Third_Party/FreeRTOS/Source/CMSIS_RTOS/cmsis_os.c ****   if (inHandlerMode()) {
 2821              		.loc 1 1362 3 is_stmt 1 view .LVU713
 2822              		.loc 1 1362 7 is_stmt 0 view .LVU714
 2823 0032 FFF7FEFF 		bl	inHandlerMode
 2824              	.LVL212:
 2825              		.loc 1 1362 6 view .LVU715
 2826 0036 B0B1     		cbz	r0, .L222
1363:Middlewares/Third_Party/FreeRTOS/Source/CMSIS_RTOS/cmsis_os.c ****     if (xQueueReceiveFromISR(queue_id->handle, &event.value.p, &taskWoken) == pdTRUE) {
 2827              		.loc 1 1363 5 is_stmt 1 view .LVU716
 2828              		.loc 1 1363 9 is_stmt 0 view .LVU717
 2829 0038 03AA     		add	r2, sp, #12
 2830 003a 01A9     		add	r1, sp, #4
 2831 003c 6868     		ldr	r0, [r5, #4]
 2832 003e FFF7FEFF 		bl	xQueueReceiveFromISR
 2833              	.LVL213:
 2834              		.loc 1 1363 8 view .LVU718
 2835 0042 0128     		cmp	r0, #1
 2836 0044 0CD0     		beq	.L232
1364:Middlewares/Third_Party/FreeRTOS/Source/CMSIS_RTOS/cmsis_os.c ****       /* We have mail */
1365:Middlewares/Third_Party/FreeRTOS/Source/CMSIS_RTOS/cmsis_os.c ****       event.status = osEventMail;
1366:Middlewares/Third_Party/FreeRTOS/Source/CMSIS_RTOS/cmsis_os.c ****     }
1367:Middlewares/Third_Party/FreeRTOS/Source/CMSIS_RTOS/cmsis_os.c ****     else {
1368:Middlewares/Third_Party/FreeRTOS/Source/CMSIS_RTOS/cmsis_os.c ****       event.status = osOK;
 2837              		.loc 1 1368 7 is_stmt 1 view .LVU719
 2838              		.loc 1 1368 20 is_stmt 0 view .LVU720
 2839 0046 0023     		movs	r3, #0
 2840 0048 0093     		str	r3, [sp]
 2841              	.L224:
1369:Middlewares/Third_Party/FreeRTOS/Source/CMSIS_RTOS/cmsis_os.c ****     }
1370:Middlewares/Third_Party/FreeRTOS/Source/CMSIS_RTOS/cmsis_os.c ****     portEND_SWITCHING_ISR(taskWoken);
 2842              		.loc 1 1370 5 is_stmt 1 view .LVU721
 2843 004a 039B     		ldr	r3, [sp, #12]
 2844 004c B3B1     		cbz	r3, .L225
 2845              		.loc 1 1370 5 discriminator 1 view .LVU722
 2846 004e 124B     		ldr	r3, .L234
 2847 0050 4FF08052 		mov	r2, #268435456
 2848 0054 1A60     		str	r2, [r3]
 2849              		.loc 1 1370 5 discriminator 1 view .LVU723
 2850              		.syntax unified
 2851              	@ 1370 "Middlewares/Third_Party/FreeRTOS/Source/CMSIS_RTOS/cmsis_os.c" 1
 2852 0056 BFF34F8F 		dsb
 2853              	@ 0 "" 2
 2854              		.loc 1 1370 5 discriminator 1 view .LVU724
 2855              	@ 1370 "Middlewares/Third_Party/FreeRTOS/Source/CMSIS_RTOS/cmsis_os.c" 1
 2856 005a BFF36F8F 		isb
 2857              	@ 0 "" 2
 2858              		.thumb
 2859              		.syntax unified
 2860 005e 0DE0     		b	.L225
 2861              	.L232:
ARM GAS  /var/folders/n1/76bg37b13ls08p1dhb9rhvd40000gn/T//cc6VEgqh.s 			page 83


1365:Middlewares/Third_Party/FreeRTOS/Source/CMSIS_RTOS/cmsis_os.c ****     }
 2862              		.loc 1 1365 7 view .LVU725
1365:Middlewares/Third_Party/FreeRTOS/Source/CMSIS_RTOS/cmsis_os.c ****     }
 2863              		.loc 1 1365 20 is_stmt 0 view .LVU726
 2864 0060 2023     		movs	r3, #32
 2865 0062 0093     		str	r3, [sp]
 2866 0064 F1E7     		b	.L224
 2867              	.L222:
1371:Middlewares/Third_Party/FreeRTOS/Source/CMSIS_RTOS/cmsis_os.c ****   }
1372:Middlewares/Third_Party/FreeRTOS/Source/CMSIS_RTOS/cmsis_os.c ****   else {
1373:Middlewares/Third_Party/FreeRTOS/Source/CMSIS_RTOS/cmsis_os.c ****     if (xQueueReceive(queue_id->handle, &event.value.p, ticks) == pdTRUE) {
 2868              		.loc 1 1373 5 is_stmt 1 view .LVU727
 2869              		.loc 1 1373 9 is_stmt 0 view .LVU728
 2870 0066 0023     		movs	r3, #0
 2871 0068 3246     		mov	r2, r6
 2872 006a 01A9     		add	r1, sp, #4
 2873 006c 6868     		ldr	r0, [r5, #4]
 2874 006e FFF7FEFF 		bl	xQueueGenericReceive
 2875              	.LVL214:
 2876              		.loc 1 1373 8 view .LVU729
 2877 0072 0128     		cmp	r0, #1
 2878 0074 0AD0     		beq	.L233
1374:Middlewares/Third_Party/FreeRTOS/Source/CMSIS_RTOS/cmsis_os.c ****       /* We have mail */
1375:Middlewares/Third_Party/FreeRTOS/Source/CMSIS_RTOS/cmsis_os.c ****       event.status = osEventMail;
1376:Middlewares/Third_Party/FreeRTOS/Source/CMSIS_RTOS/cmsis_os.c ****     }
1377:Middlewares/Third_Party/FreeRTOS/Source/CMSIS_RTOS/cmsis_os.c ****     else {
1378:Middlewares/Third_Party/FreeRTOS/Source/CMSIS_RTOS/cmsis_os.c ****       event.status = (ticks == 0) ? osOK : osEventTimeout;
 2879              		.loc 1 1378 7 is_stmt 1 view .LVU730
 2880              		.loc 1 1378 42 is_stmt 0 view .LVU731
 2881 0076 66B9     		cbnz	r6, .L229
 2882 0078 0023     		movs	r3, #0
 2883              	.L227:
 2884              		.loc 1 1378 20 discriminator 4 view .LVU732
 2885 007a 0093     		str	r3, [sp]
 2886              	.L225:
1379:Middlewares/Third_Party/FreeRTOS/Source/CMSIS_RTOS/cmsis_os.c ****     }
1380:Middlewares/Third_Party/FreeRTOS/Source/CMSIS_RTOS/cmsis_os.c ****   }
1381:Middlewares/Third_Party/FreeRTOS/Source/CMSIS_RTOS/cmsis_os.c ****   
1382:Middlewares/Third_Party/FreeRTOS/Source/CMSIS_RTOS/cmsis_os.c ****   return event;
 2887              		.loc 1 1382 3 is_stmt 1 view .LVU733
 2888              		.loc 1 1382 10 is_stmt 0 view .LVU734
 2889 007c 6B46     		mov	r3, sp
 2890 007e 93E80700 		ldm	r3, {r0, r1, r2}
 2891 0082 84E80700 		stm	r4, {r0, r1, r2}
 2892              	.LVL215:
 2893              	.L218:
1383:Middlewares/Third_Party/FreeRTOS/Source/CMSIS_RTOS/cmsis_os.c **** }
 2894              		.loc 1 1383 1 view .LVU735
 2895 0086 2046     		mov	r0, r4
 2896 0088 04B0     		add	sp, sp, #16
 2897              	.LCFI65:
 2898              		.cfi_remember_state
 2899              		.cfi_def_cfa_offset 16
 2900              		@ sp needed
 2901 008a 70BD     		pop	{r4, r5, r6, pc}
 2902              	.LVL216:
 2903              	.L233:
ARM GAS  /var/folders/n1/76bg37b13ls08p1dhb9rhvd40000gn/T//cc6VEgqh.s 			page 84


 2904              	.LCFI66:
 2905              		.cfi_restore_state
1375:Middlewares/Third_Party/FreeRTOS/Source/CMSIS_RTOS/cmsis_os.c ****     }
 2906              		.loc 1 1375 7 is_stmt 1 view .LVU736
1375:Middlewares/Third_Party/FreeRTOS/Source/CMSIS_RTOS/cmsis_os.c ****     }
 2907              		.loc 1 1375 20 is_stmt 0 view .LVU737
 2908 008c 2023     		movs	r3, #32
 2909 008e 0093     		str	r3, [sp]
 2910 0090 F4E7     		b	.L225
 2911              	.L229:
1378:Middlewares/Third_Party/FreeRTOS/Source/CMSIS_RTOS/cmsis_os.c ****     }
 2912              		.loc 1 1378 42 view .LVU738
 2913 0092 4023     		movs	r3, #64
 2914 0094 F1E7     		b	.L227
 2915              	.L235:
 2916 0096 00BF     		.align	2
 2917              	.L234:
 2918 0098 04ED00E0 		.word	-536810236
 2919              		.cfi_endproc
 2920              	.LFE68:
 2922              		.section	.text.osMailFree,"ax",%progbits
 2923              		.align	1
 2924              		.global	osMailFree
 2925              		.syntax unified
 2926              		.thumb
 2927              		.thumb_func
 2928              		.fpu fpv4-sp-d16
 2930              	osMailFree:
 2931              	.LVL217:
 2932              	.LFB69:
1384:Middlewares/Third_Party/FreeRTOS/Source/CMSIS_RTOS/cmsis_os.c **** 
1385:Middlewares/Third_Party/FreeRTOS/Source/CMSIS_RTOS/cmsis_os.c **** /**
1386:Middlewares/Third_Party/FreeRTOS/Source/CMSIS_RTOS/cmsis_os.c **** * @brief Free a memory block from a mail
1387:Middlewares/Third_Party/FreeRTOS/Source/CMSIS_RTOS/cmsis_os.c **** * @param  queue_id mail queue ID obtained with \ref osMailCreate.
1388:Middlewares/Third_Party/FreeRTOS/Source/CMSIS_RTOS/cmsis_os.c **** * @param  mail     pointer to the memory block that was obtained with \ref osMailGet.
1389:Middlewares/Third_Party/FreeRTOS/Source/CMSIS_RTOS/cmsis_os.c **** * @retval status code that indicates the execution status of the function.
1390:Middlewares/Third_Party/FreeRTOS/Source/CMSIS_RTOS/cmsis_os.c **** * @note   MUST REMAIN UNCHANGED: \b osMailFree shall be consistent in every CMSIS-RTOS.
1391:Middlewares/Third_Party/FreeRTOS/Source/CMSIS_RTOS/cmsis_os.c **** */
1392:Middlewares/Third_Party/FreeRTOS/Source/CMSIS_RTOS/cmsis_os.c **** osStatus osMailFree (osMailQId queue_id, void *mail)
1393:Middlewares/Third_Party/FreeRTOS/Source/CMSIS_RTOS/cmsis_os.c **** {
 2933              		.loc 1 1393 1 is_stmt 1 view -0
 2934              		.cfi_startproc
 2935              		@ args = 0, pretend = 0, frame = 0
 2936              		@ frame_needed = 0, uses_anonymous_args = 0
1394:Middlewares/Third_Party/FreeRTOS/Source/CMSIS_RTOS/cmsis_os.c ****   if (queue_id == NULL) {
 2937              		.loc 1 1394 3 view .LVU740
 2938              		.loc 1 1394 6 is_stmt 0 view .LVU741
 2939 0000 20B1     		cbz	r0, .L238
1393:Middlewares/Third_Party/FreeRTOS/Source/CMSIS_RTOS/cmsis_os.c ****   if (queue_id == NULL) {
 2940              		.loc 1 1393 1 view .LVU742
 2941 0002 08B5     		push	{r3, lr}
 2942              	.LCFI67:
 2943              		.cfi_def_cfa_offset 8
 2944              		.cfi_offset 3, -8
 2945              		.cfi_offset 14, -4
1395:Middlewares/Third_Party/FreeRTOS/Source/CMSIS_RTOS/cmsis_os.c ****     return osErrorParameter;
1396:Middlewares/Third_Party/FreeRTOS/Source/CMSIS_RTOS/cmsis_os.c ****   }
ARM GAS  /var/folders/n1/76bg37b13ls08p1dhb9rhvd40000gn/T//cc6VEgqh.s 			page 85


1397:Middlewares/Third_Party/FreeRTOS/Source/CMSIS_RTOS/cmsis_os.c ****   
1398:Middlewares/Third_Party/FreeRTOS/Source/CMSIS_RTOS/cmsis_os.c ****   return osPoolFree(queue_id->pool, mail);
 2946              		.loc 1 1398 3 is_stmt 1 view .LVU743
 2947              		.loc 1 1398 10 is_stmt 0 view .LVU744
 2948 0004 8068     		ldr	r0, [r0, #8]
 2949              	.LVL218:
 2950              		.loc 1 1398 10 view .LVU745
 2951 0006 FFF7FEFF 		bl	osPoolFree
 2952              	.LVL219:
1399:Middlewares/Third_Party/FreeRTOS/Source/CMSIS_RTOS/cmsis_os.c **** }
 2953              		.loc 1 1399 1 view .LVU746
 2954 000a 08BD     		pop	{r3, pc}
 2955              	.LVL220:
 2956              	.L238:
 2957              	.LCFI68:
 2958              		.cfi_def_cfa_offset 0
 2959              		.cfi_restore 3
 2960              		.cfi_restore 14
1395:Middlewares/Third_Party/FreeRTOS/Source/CMSIS_RTOS/cmsis_os.c ****     return osErrorParameter;
 2961              		.loc 1 1395 12 view .LVU747
 2962 000c 8020     		movs	r0, #128
 2963              	.LVL221:
 2964              		.loc 1 1399 1 view .LVU748
 2965 000e 7047     		bx	lr
 2966              		.cfi_endproc
 2967              	.LFE69:
 2969              		.section	.text.osSystickHandler,"ax",%progbits
 2970              		.align	1
 2971              		.global	osSystickHandler
 2972              		.syntax unified
 2973              		.thumb
 2974              		.thumb_func
 2975              		.fpu fpv4-sp-d16
 2977              	osSystickHandler:
 2978              	.LFB70:
1400:Middlewares/Third_Party/FreeRTOS/Source/CMSIS_RTOS/cmsis_os.c **** #endif  /* Use Mail Queues */
1401:Middlewares/Third_Party/FreeRTOS/Source/CMSIS_RTOS/cmsis_os.c **** 
1402:Middlewares/Third_Party/FreeRTOS/Source/CMSIS_RTOS/cmsis_os.c **** /*************************** Additional specific APIs to Free RTOS ************/
1403:Middlewares/Third_Party/FreeRTOS/Source/CMSIS_RTOS/cmsis_os.c **** /**
1404:Middlewares/Third_Party/FreeRTOS/Source/CMSIS_RTOS/cmsis_os.c **** * @brief  Handles the tick increment
1405:Middlewares/Third_Party/FreeRTOS/Source/CMSIS_RTOS/cmsis_os.c **** * @param  none.
1406:Middlewares/Third_Party/FreeRTOS/Source/CMSIS_RTOS/cmsis_os.c **** * @retval none.
1407:Middlewares/Third_Party/FreeRTOS/Source/CMSIS_RTOS/cmsis_os.c **** */
1408:Middlewares/Third_Party/FreeRTOS/Source/CMSIS_RTOS/cmsis_os.c **** void osSystickHandler(void)
1409:Middlewares/Third_Party/FreeRTOS/Source/CMSIS_RTOS/cmsis_os.c **** {
 2979              		.loc 1 1409 1 is_stmt 1 view -0
 2980              		.cfi_startproc
 2981              		@ args = 0, pretend = 0, frame = 0
 2982              		@ frame_needed = 0, uses_anonymous_args = 0
 2983 0000 08B5     		push	{r3, lr}
 2984              	.LCFI69:
 2985              		.cfi_def_cfa_offset 8
 2986              		.cfi_offset 3, -8
 2987              		.cfi_offset 14, -4
1410:Middlewares/Third_Party/FreeRTOS/Source/CMSIS_RTOS/cmsis_os.c **** 
1411:Middlewares/Third_Party/FreeRTOS/Source/CMSIS_RTOS/cmsis_os.c **** #if (INCLUDE_xTaskGetSchedulerState  == 1 )
1412:Middlewares/Third_Party/FreeRTOS/Source/CMSIS_RTOS/cmsis_os.c ****   if (xTaskGetSchedulerState() != taskSCHEDULER_NOT_STARTED)
ARM GAS  /var/folders/n1/76bg37b13ls08p1dhb9rhvd40000gn/T//cc6VEgqh.s 			page 86


 2988              		.loc 1 1412 3 view .LVU750
 2989              		.loc 1 1412 7 is_stmt 0 view .LVU751
 2990 0002 FFF7FEFF 		bl	xTaskGetSchedulerState
 2991              	.LVL222:
 2992              		.loc 1 1412 6 view .LVU752
 2993 0006 0128     		cmp	r0, #1
 2994 0008 00D1     		bne	.L246
 2995              	.L243:
1413:Middlewares/Third_Party/FreeRTOS/Source/CMSIS_RTOS/cmsis_os.c ****   {
1414:Middlewares/Third_Party/FreeRTOS/Source/CMSIS_RTOS/cmsis_os.c **** #endif  /* INCLUDE_xTaskGetSchedulerState */  
1415:Middlewares/Third_Party/FreeRTOS/Source/CMSIS_RTOS/cmsis_os.c ****     xPortSysTickHandler();
1416:Middlewares/Third_Party/FreeRTOS/Source/CMSIS_RTOS/cmsis_os.c **** #if (INCLUDE_xTaskGetSchedulerState  == 1 )
1417:Middlewares/Third_Party/FreeRTOS/Source/CMSIS_RTOS/cmsis_os.c ****   }
1418:Middlewares/Third_Party/FreeRTOS/Source/CMSIS_RTOS/cmsis_os.c **** #endif  /* INCLUDE_xTaskGetSchedulerState */  
1419:Middlewares/Third_Party/FreeRTOS/Source/CMSIS_RTOS/cmsis_os.c **** }
 2996              		.loc 1 1419 1 view .LVU753
 2997 000a 08BD     		pop	{r3, pc}
 2998              	.L246:
1415:Middlewares/Third_Party/FreeRTOS/Source/CMSIS_RTOS/cmsis_os.c **** #if (INCLUDE_xTaskGetSchedulerState  == 1 )
 2999              		.loc 1 1415 5 is_stmt 1 view .LVU754
 3000 000c FFF7FEFF 		bl	xPortSysTickHandler
 3001              	.LVL223:
 3002              		.loc 1 1419 1 is_stmt 0 view .LVU755
 3003 0010 FBE7     		b	.L243
 3004              		.cfi_endproc
 3005              	.LFE70:
 3007              		.section	.text.osThreadSuspend,"ax",%progbits
 3008              		.align	1
 3009              		.global	osThreadSuspend
 3010              		.syntax unified
 3011              		.thumb
 3012              		.thumb_func
 3013              		.fpu fpv4-sp-d16
 3015              	osThreadSuspend:
 3016              	.LVL224:
 3017              	.LFB71:
1420:Middlewares/Third_Party/FreeRTOS/Source/CMSIS_RTOS/cmsis_os.c **** 
1421:Middlewares/Third_Party/FreeRTOS/Source/CMSIS_RTOS/cmsis_os.c **** #if ( INCLUDE_eTaskGetState == 1 )
1422:Middlewares/Third_Party/FreeRTOS/Source/CMSIS_RTOS/cmsis_os.c **** /**
1423:Middlewares/Third_Party/FreeRTOS/Source/CMSIS_RTOS/cmsis_os.c **** * @brief  Obtain the state of any thread.
1424:Middlewares/Third_Party/FreeRTOS/Source/CMSIS_RTOS/cmsis_os.c **** * @param   thread_id   thread ID obtained by \ref osThreadCreate or \ref osThreadGetId.
1425:Middlewares/Third_Party/FreeRTOS/Source/CMSIS_RTOS/cmsis_os.c **** * @retval  the stae of the thread, states are encoded by the osThreadState enumerated type.
1426:Middlewares/Third_Party/FreeRTOS/Source/CMSIS_RTOS/cmsis_os.c **** */
1427:Middlewares/Third_Party/FreeRTOS/Source/CMSIS_RTOS/cmsis_os.c **** osThreadState osThreadGetState(osThreadId thread_id)
1428:Middlewares/Third_Party/FreeRTOS/Source/CMSIS_RTOS/cmsis_os.c **** {
1429:Middlewares/Third_Party/FreeRTOS/Source/CMSIS_RTOS/cmsis_os.c ****   eTaskState ThreadState;
1430:Middlewares/Third_Party/FreeRTOS/Source/CMSIS_RTOS/cmsis_os.c ****   osThreadState result;
1431:Middlewares/Third_Party/FreeRTOS/Source/CMSIS_RTOS/cmsis_os.c ****   
1432:Middlewares/Third_Party/FreeRTOS/Source/CMSIS_RTOS/cmsis_os.c ****   ThreadState = eTaskGetState(thread_id);
1433:Middlewares/Third_Party/FreeRTOS/Source/CMSIS_RTOS/cmsis_os.c ****   
1434:Middlewares/Third_Party/FreeRTOS/Source/CMSIS_RTOS/cmsis_os.c ****   switch (ThreadState)
1435:Middlewares/Third_Party/FreeRTOS/Source/CMSIS_RTOS/cmsis_os.c ****   {
1436:Middlewares/Third_Party/FreeRTOS/Source/CMSIS_RTOS/cmsis_os.c ****   case eRunning :
1437:Middlewares/Third_Party/FreeRTOS/Source/CMSIS_RTOS/cmsis_os.c ****     result = osThreadRunning;
1438:Middlewares/Third_Party/FreeRTOS/Source/CMSIS_RTOS/cmsis_os.c ****     break;
1439:Middlewares/Third_Party/FreeRTOS/Source/CMSIS_RTOS/cmsis_os.c ****   case eReady :
1440:Middlewares/Third_Party/FreeRTOS/Source/CMSIS_RTOS/cmsis_os.c ****     result = osThreadReady;
ARM GAS  /var/folders/n1/76bg37b13ls08p1dhb9rhvd40000gn/T//cc6VEgqh.s 			page 87


1441:Middlewares/Third_Party/FreeRTOS/Source/CMSIS_RTOS/cmsis_os.c ****     break;
1442:Middlewares/Third_Party/FreeRTOS/Source/CMSIS_RTOS/cmsis_os.c ****   case eBlocked :
1443:Middlewares/Third_Party/FreeRTOS/Source/CMSIS_RTOS/cmsis_os.c ****     result = osThreadBlocked;
1444:Middlewares/Third_Party/FreeRTOS/Source/CMSIS_RTOS/cmsis_os.c ****     break;
1445:Middlewares/Third_Party/FreeRTOS/Source/CMSIS_RTOS/cmsis_os.c ****   case eSuspended :
1446:Middlewares/Third_Party/FreeRTOS/Source/CMSIS_RTOS/cmsis_os.c ****     result = osThreadSuspended;
1447:Middlewares/Third_Party/FreeRTOS/Source/CMSIS_RTOS/cmsis_os.c ****     break;
1448:Middlewares/Third_Party/FreeRTOS/Source/CMSIS_RTOS/cmsis_os.c ****   case eDeleted :
1449:Middlewares/Third_Party/FreeRTOS/Source/CMSIS_RTOS/cmsis_os.c ****     result = osThreadDeleted;
1450:Middlewares/Third_Party/FreeRTOS/Source/CMSIS_RTOS/cmsis_os.c ****     break;
1451:Middlewares/Third_Party/FreeRTOS/Source/CMSIS_RTOS/cmsis_os.c ****   default:
1452:Middlewares/Third_Party/FreeRTOS/Source/CMSIS_RTOS/cmsis_os.c ****     result = osThreadError;
1453:Middlewares/Third_Party/FreeRTOS/Source/CMSIS_RTOS/cmsis_os.c ****   } 
1454:Middlewares/Third_Party/FreeRTOS/Source/CMSIS_RTOS/cmsis_os.c ****   
1455:Middlewares/Third_Party/FreeRTOS/Source/CMSIS_RTOS/cmsis_os.c ****   return result;
1456:Middlewares/Third_Party/FreeRTOS/Source/CMSIS_RTOS/cmsis_os.c **** }
1457:Middlewares/Third_Party/FreeRTOS/Source/CMSIS_RTOS/cmsis_os.c **** #endif /* INCLUDE_eTaskGetState */
1458:Middlewares/Third_Party/FreeRTOS/Source/CMSIS_RTOS/cmsis_os.c **** 
1459:Middlewares/Third_Party/FreeRTOS/Source/CMSIS_RTOS/cmsis_os.c **** #if (INCLUDE_eTaskGetState == 1)
1460:Middlewares/Third_Party/FreeRTOS/Source/CMSIS_RTOS/cmsis_os.c **** /**
1461:Middlewares/Third_Party/FreeRTOS/Source/CMSIS_RTOS/cmsis_os.c **** * @brief Check if a thread is already suspended or not.
1462:Middlewares/Third_Party/FreeRTOS/Source/CMSIS_RTOS/cmsis_os.c **** * @param thread_id thread ID obtained by \ref osThreadCreate or \ref osThreadGetId.
1463:Middlewares/Third_Party/FreeRTOS/Source/CMSIS_RTOS/cmsis_os.c **** * @retval status code that indicates the execution status of the function.
1464:Middlewares/Third_Party/FreeRTOS/Source/CMSIS_RTOS/cmsis_os.c **** */
1465:Middlewares/Third_Party/FreeRTOS/Source/CMSIS_RTOS/cmsis_os.c **** osStatus osThreadIsSuspended(osThreadId thread_id)
1466:Middlewares/Third_Party/FreeRTOS/Source/CMSIS_RTOS/cmsis_os.c **** {
1467:Middlewares/Third_Party/FreeRTOS/Source/CMSIS_RTOS/cmsis_os.c ****   if (eTaskGetState(thread_id) == eSuspended)
1468:Middlewares/Third_Party/FreeRTOS/Source/CMSIS_RTOS/cmsis_os.c ****     return osOK;
1469:Middlewares/Third_Party/FreeRTOS/Source/CMSIS_RTOS/cmsis_os.c ****   else
1470:Middlewares/Third_Party/FreeRTOS/Source/CMSIS_RTOS/cmsis_os.c ****     return osErrorOS;
1471:Middlewares/Third_Party/FreeRTOS/Source/CMSIS_RTOS/cmsis_os.c **** }
1472:Middlewares/Third_Party/FreeRTOS/Source/CMSIS_RTOS/cmsis_os.c **** #endif /* INCLUDE_eTaskGetState */
1473:Middlewares/Third_Party/FreeRTOS/Source/CMSIS_RTOS/cmsis_os.c **** /**
1474:Middlewares/Third_Party/FreeRTOS/Source/CMSIS_RTOS/cmsis_os.c **** * @brief  Suspend execution of a thread.
1475:Middlewares/Third_Party/FreeRTOS/Source/CMSIS_RTOS/cmsis_os.c **** * @param   thread_id   thread ID obtained by \ref osThreadCreate or \ref osThreadGetId.
1476:Middlewares/Third_Party/FreeRTOS/Source/CMSIS_RTOS/cmsis_os.c **** * @retval  status code that indicates the execution status of the function.
1477:Middlewares/Third_Party/FreeRTOS/Source/CMSIS_RTOS/cmsis_os.c **** */
1478:Middlewares/Third_Party/FreeRTOS/Source/CMSIS_RTOS/cmsis_os.c **** osStatus osThreadSuspend (osThreadId thread_id)
1479:Middlewares/Third_Party/FreeRTOS/Source/CMSIS_RTOS/cmsis_os.c **** {
 3018              		.loc 1 1479 1 is_stmt 1 view -0
 3019              		.cfi_startproc
 3020              		@ args = 0, pretend = 0, frame = 0
 3021              		@ frame_needed = 0, uses_anonymous_args = 0
 3022              		.loc 1 1479 1 is_stmt 0 view .LVU757
 3023 0000 08B5     		push	{r3, lr}
 3024              	.LCFI70:
 3025              		.cfi_def_cfa_offset 8
 3026              		.cfi_offset 3, -8
 3027              		.cfi_offset 14, -4
1480:Middlewares/Third_Party/FreeRTOS/Source/CMSIS_RTOS/cmsis_os.c **** #if (INCLUDE_vTaskSuspend == 1)
1481:Middlewares/Third_Party/FreeRTOS/Source/CMSIS_RTOS/cmsis_os.c ****     vTaskSuspend(thread_id);
 3028              		.loc 1 1481 5 is_stmt 1 view .LVU758
 3029 0002 FFF7FEFF 		bl	vTaskSuspend
 3030              	.LVL225:
1482:Middlewares/Third_Party/FreeRTOS/Source/CMSIS_RTOS/cmsis_os.c ****   
1483:Middlewares/Third_Party/FreeRTOS/Source/CMSIS_RTOS/cmsis_os.c ****   return osOK;
 3031              		.loc 1 1483 3 view .LVU759
ARM GAS  /var/folders/n1/76bg37b13ls08p1dhb9rhvd40000gn/T//cc6VEgqh.s 			page 88


1484:Middlewares/Third_Party/FreeRTOS/Source/CMSIS_RTOS/cmsis_os.c **** #else
1485:Middlewares/Third_Party/FreeRTOS/Source/CMSIS_RTOS/cmsis_os.c ****   return osErrorResource;
1486:Middlewares/Third_Party/FreeRTOS/Source/CMSIS_RTOS/cmsis_os.c **** #endif
1487:Middlewares/Third_Party/FreeRTOS/Source/CMSIS_RTOS/cmsis_os.c **** }
 3032              		.loc 1 1487 1 is_stmt 0 view .LVU760
 3033 0006 0020     		movs	r0, #0
 3034 0008 08BD     		pop	{r3, pc}
 3035              		.cfi_endproc
 3036              	.LFE71:
 3038              		.section	.text.osThreadResume,"ax",%progbits
 3039              		.align	1
 3040              		.global	osThreadResume
 3041              		.syntax unified
 3042              		.thumb
 3043              		.thumb_func
 3044              		.fpu fpv4-sp-d16
 3046              	osThreadResume:
 3047              	.LVL226:
 3048              	.LFB72:
1488:Middlewares/Third_Party/FreeRTOS/Source/CMSIS_RTOS/cmsis_os.c **** 
1489:Middlewares/Third_Party/FreeRTOS/Source/CMSIS_RTOS/cmsis_os.c **** /**
1490:Middlewares/Third_Party/FreeRTOS/Source/CMSIS_RTOS/cmsis_os.c **** * @brief  Resume execution of a suspended thread.
1491:Middlewares/Third_Party/FreeRTOS/Source/CMSIS_RTOS/cmsis_os.c **** * @param   thread_id   thread ID obtained by \ref osThreadCreate or \ref osThreadGetId.
1492:Middlewares/Third_Party/FreeRTOS/Source/CMSIS_RTOS/cmsis_os.c **** * @retval  status code that indicates the execution status of the function.
1493:Middlewares/Third_Party/FreeRTOS/Source/CMSIS_RTOS/cmsis_os.c **** */
1494:Middlewares/Third_Party/FreeRTOS/Source/CMSIS_RTOS/cmsis_os.c **** osStatus osThreadResume (osThreadId thread_id)
1495:Middlewares/Third_Party/FreeRTOS/Source/CMSIS_RTOS/cmsis_os.c **** {
 3049              		.loc 1 1495 1 is_stmt 1 view -0
 3050              		.cfi_startproc
 3051              		@ args = 0, pretend = 0, frame = 0
 3052              		@ frame_needed = 0, uses_anonymous_args = 0
 3053              		.loc 1 1495 1 is_stmt 0 view .LVU762
 3054 0000 10B5     		push	{r4, lr}
 3055              	.LCFI71:
 3056              		.cfi_def_cfa_offset 8
 3057              		.cfi_offset 4, -8
 3058              		.cfi_offset 14, -4
 3059 0002 0446     		mov	r4, r0
1496:Middlewares/Third_Party/FreeRTOS/Source/CMSIS_RTOS/cmsis_os.c **** #if (INCLUDE_vTaskSuspend == 1)  
1497:Middlewares/Third_Party/FreeRTOS/Source/CMSIS_RTOS/cmsis_os.c ****   if(inHandlerMode())
 3060              		.loc 1 1497 3 is_stmt 1 view .LVU763
 3061              		.loc 1 1497 6 is_stmt 0 view .LVU764
 3062 0004 FFF7FEFF 		bl	inHandlerMode
 3063              	.LVL227:
 3064              		.loc 1 1497 5 view .LVU765
 3065 0008 68B1     		cbz	r0, .L250
1498:Middlewares/Third_Party/FreeRTOS/Source/CMSIS_RTOS/cmsis_os.c ****   {
1499:Middlewares/Third_Party/FreeRTOS/Source/CMSIS_RTOS/cmsis_os.c ****     if (xTaskResumeFromISR(thread_id) == pdTRUE)
 3066              		.loc 1 1499 5 is_stmt 1 view .LVU766
 3067              		.loc 1 1499 9 is_stmt 0 view .LVU767
 3068 000a 2046     		mov	r0, r4
 3069 000c FFF7FEFF 		bl	xTaskResumeFromISR
 3070              	.LVL228:
 3071              		.loc 1 1499 8 view .LVU768
 3072 0010 0128     		cmp	r0, #1
 3073 0012 0BD1     		bne	.L251
1500:Middlewares/Third_Party/FreeRTOS/Source/CMSIS_RTOS/cmsis_os.c ****     {
ARM GAS  /var/folders/n1/76bg37b13ls08p1dhb9rhvd40000gn/T//cc6VEgqh.s 			page 89


1501:Middlewares/Third_Party/FreeRTOS/Source/CMSIS_RTOS/cmsis_os.c ****       portYIELD_FROM_ISR(pdTRUE);
 3074              		.loc 1 1501 7 is_stmt 1 discriminator 1 view .LVU769
 3075              		.loc 1 1501 7 discriminator 1 view .LVU770
 3076 0014 064B     		ldr	r3, .L253
 3077 0016 4FF08052 		mov	r2, #268435456
 3078 001a 1A60     		str	r2, [r3]
 3079              		.loc 1 1501 7 discriminator 1 view .LVU771
 3080              		.syntax unified
 3081              	@ 1501 "Middlewares/Third_Party/FreeRTOS/Source/CMSIS_RTOS/cmsis_os.c" 1
 3082 001c BFF34F8F 		dsb
 3083              	@ 0 "" 2
 3084              		.loc 1 1501 7 discriminator 1 view .LVU772
 3085              	@ 1501 "Middlewares/Third_Party/FreeRTOS/Source/CMSIS_RTOS/cmsis_os.c" 1
 3086 0020 BFF36F8F 		isb
 3087              	@ 0 "" 2
 3088              		.thumb
 3089              		.syntax unified
 3090 0024 02E0     		b	.L251
 3091              	.L250:
1502:Middlewares/Third_Party/FreeRTOS/Source/CMSIS_RTOS/cmsis_os.c ****     }
1503:Middlewares/Third_Party/FreeRTOS/Source/CMSIS_RTOS/cmsis_os.c ****   }
1504:Middlewares/Third_Party/FreeRTOS/Source/CMSIS_RTOS/cmsis_os.c ****   else
1505:Middlewares/Third_Party/FreeRTOS/Source/CMSIS_RTOS/cmsis_os.c ****   {
1506:Middlewares/Third_Party/FreeRTOS/Source/CMSIS_RTOS/cmsis_os.c ****     vTaskResume(thread_id);
 3092              		.loc 1 1506 5 view .LVU773
 3093 0026 2046     		mov	r0, r4
 3094 0028 FFF7FEFF 		bl	vTaskResume
 3095              	.LVL229:
 3096              	.L251:
1507:Middlewares/Third_Party/FreeRTOS/Source/CMSIS_RTOS/cmsis_os.c ****   }
1508:Middlewares/Third_Party/FreeRTOS/Source/CMSIS_RTOS/cmsis_os.c ****   return osOK;
 3097              		.loc 1 1508 3 view .LVU774
1509:Middlewares/Third_Party/FreeRTOS/Source/CMSIS_RTOS/cmsis_os.c **** #else
1510:Middlewares/Third_Party/FreeRTOS/Source/CMSIS_RTOS/cmsis_os.c ****   return osErrorResource;
1511:Middlewares/Third_Party/FreeRTOS/Source/CMSIS_RTOS/cmsis_os.c **** #endif
1512:Middlewares/Third_Party/FreeRTOS/Source/CMSIS_RTOS/cmsis_os.c **** }
 3098              		.loc 1 1512 1 is_stmt 0 view .LVU775
 3099 002c 0020     		movs	r0, #0
 3100 002e 10BD     		pop	{r4, pc}
 3101              	.LVL230:
 3102              	.L254:
 3103              		.loc 1 1512 1 view .LVU776
 3104              		.align	2
 3105              	.L253:
 3106 0030 04ED00E0 		.word	-536810236
 3107              		.cfi_endproc
 3108              	.LFE72:
 3110              		.section	.text.osThreadSuspendAll,"ax",%progbits
 3111              		.align	1
 3112              		.global	osThreadSuspendAll
 3113              		.syntax unified
 3114              		.thumb
 3115              		.thumb_func
 3116              		.fpu fpv4-sp-d16
 3118              	osThreadSuspendAll:
 3119              	.LFB73:
1513:Middlewares/Third_Party/FreeRTOS/Source/CMSIS_RTOS/cmsis_os.c **** 
ARM GAS  /var/folders/n1/76bg37b13ls08p1dhb9rhvd40000gn/T//cc6VEgqh.s 			page 90


1514:Middlewares/Third_Party/FreeRTOS/Source/CMSIS_RTOS/cmsis_os.c **** /**
1515:Middlewares/Third_Party/FreeRTOS/Source/CMSIS_RTOS/cmsis_os.c **** * @brief  Suspend execution of a all active threads.
1516:Middlewares/Third_Party/FreeRTOS/Source/CMSIS_RTOS/cmsis_os.c **** * @retval  status code that indicates the execution status of the function.
1517:Middlewares/Third_Party/FreeRTOS/Source/CMSIS_RTOS/cmsis_os.c **** */
1518:Middlewares/Third_Party/FreeRTOS/Source/CMSIS_RTOS/cmsis_os.c **** osStatus osThreadSuspendAll (void)
1519:Middlewares/Third_Party/FreeRTOS/Source/CMSIS_RTOS/cmsis_os.c **** {
 3120              		.loc 1 1519 1 is_stmt 1 view -0
 3121              		.cfi_startproc
 3122              		@ args = 0, pretend = 0, frame = 0
 3123              		@ frame_needed = 0, uses_anonymous_args = 0
 3124 0000 08B5     		push	{r3, lr}
 3125              	.LCFI72:
 3126              		.cfi_def_cfa_offset 8
 3127              		.cfi_offset 3, -8
 3128              		.cfi_offset 14, -4
1520:Middlewares/Third_Party/FreeRTOS/Source/CMSIS_RTOS/cmsis_os.c ****   vTaskSuspendAll();
 3129              		.loc 1 1520 3 view .LVU778
 3130 0002 FFF7FEFF 		bl	vTaskSuspendAll
 3131              	.LVL231:
1521:Middlewares/Third_Party/FreeRTOS/Source/CMSIS_RTOS/cmsis_os.c ****   
1522:Middlewares/Third_Party/FreeRTOS/Source/CMSIS_RTOS/cmsis_os.c ****   return osOK;
 3132              		.loc 1 1522 3 view .LVU779
1523:Middlewares/Third_Party/FreeRTOS/Source/CMSIS_RTOS/cmsis_os.c **** }
 3133              		.loc 1 1523 1 is_stmt 0 view .LVU780
 3134 0006 0020     		movs	r0, #0
 3135 0008 08BD     		pop	{r3, pc}
 3136              		.cfi_endproc
 3137              	.LFE73:
 3139              		.section	.text.osThreadResumeAll,"ax",%progbits
 3140              		.align	1
 3141              		.global	osThreadResumeAll
 3142              		.syntax unified
 3143              		.thumb
 3144              		.thumb_func
 3145              		.fpu fpv4-sp-d16
 3147              	osThreadResumeAll:
 3148              	.LFB74:
1524:Middlewares/Third_Party/FreeRTOS/Source/CMSIS_RTOS/cmsis_os.c **** 
1525:Middlewares/Third_Party/FreeRTOS/Source/CMSIS_RTOS/cmsis_os.c **** /**
1526:Middlewares/Third_Party/FreeRTOS/Source/CMSIS_RTOS/cmsis_os.c **** * @brief  Resume execution of a all suspended threads.
1527:Middlewares/Third_Party/FreeRTOS/Source/CMSIS_RTOS/cmsis_os.c **** * @retval  status code that indicates the execution status of the function.
1528:Middlewares/Third_Party/FreeRTOS/Source/CMSIS_RTOS/cmsis_os.c **** */
1529:Middlewares/Third_Party/FreeRTOS/Source/CMSIS_RTOS/cmsis_os.c **** osStatus osThreadResumeAll (void)
1530:Middlewares/Third_Party/FreeRTOS/Source/CMSIS_RTOS/cmsis_os.c **** {
 3149              		.loc 1 1530 1 is_stmt 1 view -0
 3150              		.cfi_startproc
 3151              		@ args = 0, pretend = 0, frame = 0
 3152              		@ frame_needed = 0, uses_anonymous_args = 0
 3153 0000 08B5     		push	{r3, lr}
 3154              	.LCFI73:
 3155              		.cfi_def_cfa_offset 8
 3156              		.cfi_offset 3, -8
 3157              		.cfi_offset 14, -4
1531:Middlewares/Third_Party/FreeRTOS/Source/CMSIS_RTOS/cmsis_os.c ****   if (xTaskResumeAll() == pdTRUE)
 3158              		.loc 1 1531 3 view .LVU782
 3159              		.loc 1 1531 7 is_stmt 0 view .LVU783
 3160 0002 FFF7FEFF 		bl	xTaskResumeAll
ARM GAS  /var/folders/n1/76bg37b13ls08p1dhb9rhvd40000gn/T//cc6VEgqh.s 			page 91


 3161              	.LVL232:
 3162              		.loc 1 1531 6 view .LVU784
 3163 0006 0128     		cmp	r0, #1
 3164 0008 01D0     		beq	.L261
1532:Middlewares/Third_Party/FreeRTOS/Source/CMSIS_RTOS/cmsis_os.c ****     return osOK;
1533:Middlewares/Third_Party/FreeRTOS/Source/CMSIS_RTOS/cmsis_os.c ****   else
1534:Middlewares/Third_Party/FreeRTOS/Source/CMSIS_RTOS/cmsis_os.c ****     return osErrorOS;
 3165              		.loc 1 1534 12 view .LVU785
 3166 000a FF20     		movs	r0, #255
 3167              	.L257:
1535:Middlewares/Third_Party/FreeRTOS/Source/CMSIS_RTOS/cmsis_os.c ****   
1536:Middlewares/Third_Party/FreeRTOS/Source/CMSIS_RTOS/cmsis_os.c **** }
 3168              		.loc 1 1536 1 view .LVU786
 3169 000c 08BD     		pop	{r3, pc}
 3170              	.L261:
1532:Middlewares/Third_Party/FreeRTOS/Source/CMSIS_RTOS/cmsis_os.c ****     return osOK;
 3171              		.loc 1 1532 12 view .LVU787
 3172 000e 0020     		movs	r0, #0
 3173 0010 FCE7     		b	.L257
 3174              		.cfi_endproc
 3175              	.LFE74:
 3177              		.section	.text.osDelayUntil,"ax",%progbits
 3178              		.align	1
 3179              		.global	osDelayUntil
 3180              		.syntax unified
 3181              		.thumb
 3182              		.thumb_func
 3183              		.fpu fpv4-sp-d16
 3185              	osDelayUntil:
 3186              	.LVL233:
 3187              	.LFB75:
1537:Middlewares/Third_Party/FreeRTOS/Source/CMSIS_RTOS/cmsis_os.c **** 
1538:Middlewares/Third_Party/FreeRTOS/Source/CMSIS_RTOS/cmsis_os.c **** /**
1539:Middlewares/Third_Party/FreeRTOS/Source/CMSIS_RTOS/cmsis_os.c **** * @brief  Delay a task until a specified time
1540:Middlewares/Third_Party/FreeRTOS/Source/CMSIS_RTOS/cmsis_os.c **** * @param   PreviousWakeTime   Pointer to a variable that holds the time at which the 
1541:Middlewares/Third_Party/FreeRTOS/Source/CMSIS_RTOS/cmsis_os.c **** *          task was last unblocked. PreviousWakeTime must be initialised with the current time
1542:Middlewares/Third_Party/FreeRTOS/Source/CMSIS_RTOS/cmsis_os.c **** *          prior to its first use (PreviousWakeTime = osKernelSysTick() )
1543:Middlewares/Third_Party/FreeRTOS/Source/CMSIS_RTOS/cmsis_os.c **** * @param   millisec    time delay value
1544:Middlewares/Third_Party/FreeRTOS/Source/CMSIS_RTOS/cmsis_os.c **** * @retval  status code that indicates the execution status of the function.
1545:Middlewares/Third_Party/FreeRTOS/Source/CMSIS_RTOS/cmsis_os.c **** */
1546:Middlewares/Third_Party/FreeRTOS/Source/CMSIS_RTOS/cmsis_os.c **** osStatus osDelayUntil (uint32_t *PreviousWakeTime, uint32_t millisec)
1547:Middlewares/Third_Party/FreeRTOS/Source/CMSIS_RTOS/cmsis_os.c **** {
 3188              		.loc 1 1547 1 is_stmt 1 view -0
 3189              		.cfi_startproc
 3190              		@ args = 0, pretend = 0, frame = 0
 3191              		@ frame_needed = 0, uses_anonymous_args = 0
 3192              		@ link register save eliminated.
1548:Middlewares/Third_Party/FreeRTOS/Source/CMSIS_RTOS/cmsis_os.c **** #if INCLUDE_vTaskDelayUntil
1549:Middlewares/Third_Party/FreeRTOS/Source/CMSIS_RTOS/cmsis_os.c ****   TickType_t ticks = (millisec / portTICK_PERIOD_MS);
1550:Middlewares/Third_Party/FreeRTOS/Source/CMSIS_RTOS/cmsis_os.c ****   vTaskDelayUntil((TickType_t *) PreviousWakeTime, ticks ? ticks : 1);
1551:Middlewares/Third_Party/FreeRTOS/Source/CMSIS_RTOS/cmsis_os.c ****   
1552:Middlewares/Third_Party/FreeRTOS/Source/CMSIS_RTOS/cmsis_os.c ****   return osOK;
1553:Middlewares/Third_Party/FreeRTOS/Source/CMSIS_RTOS/cmsis_os.c **** #else
1554:Middlewares/Third_Party/FreeRTOS/Source/CMSIS_RTOS/cmsis_os.c ****   (void) millisec;
 3193              		.loc 1 1554 3 view .LVU789
1555:Middlewares/Third_Party/FreeRTOS/Source/CMSIS_RTOS/cmsis_os.c ****   (void) PreviousWakeTime;
 3194              		.loc 1 1555 3 view .LVU790
ARM GAS  /var/folders/n1/76bg37b13ls08p1dhb9rhvd40000gn/T//cc6VEgqh.s 			page 92


1556:Middlewares/Third_Party/FreeRTOS/Source/CMSIS_RTOS/cmsis_os.c ****   
1557:Middlewares/Third_Party/FreeRTOS/Source/CMSIS_RTOS/cmsis_os.c ****   return osErrorResource;
 3195              		.loc 1 1557 3 view .LVU791
1558:Middlewares/Third_Party/FreeRTOS/Source/CMSIS_RTOS/cmsis_os.c **** #endif
1559:Middlewares/Third_Party/FreeRTOS/Source/CMSIS_RTOS/cmsis_os.c **** }
 3196              		.loc 1 1559 1 is_stmt 0 view .LVU792
 3197 0000 8120     		movs	r0, #129
 3198              	.LVL234:
 3199              		.loc 1 1559 1 view .LVU793
 3200 0002 7047     		bx	lr
 3201              		.cfi_endproc
 3202              	.LFE75:
 3204              		.section	.text.osAbortDelay,"ax",%progbits
 3205              		.align	1
 3206              		.global	osAbortDelay
 3207              		.syntax unified
 3208              		.thumb
 3209              		.thumb_func
 3210              		.fpu fpv4-sp-d16
 3212              	osAbortDelay:
 3213              	.LVL235:
 3214              	.LFB76:
1560:Middlewares/Third_Party/FreeRTOS/Source/CMSIS_RTOS/cmsis_os.c **** 
1561:Middlewares/Third_Party/FreeRTOS/Source/CMSIS_RTOS/cmsis_os.c **** /**
1562:Middlewares/Third_Party/FreeRTOS/Source/CMSIS_RTOS/cmsis_os.c **** * @brief   Abort the delay for a specific thread
1563:Middlewares/Third_Party/FreeRTOS/Source/CMSIS_RTOS/cmsis_os.c **** * @param   thread_id   thread ID obtained by \ref osThreadCreate or \ref osThreadGetId   
1564:Middlewares/Third_Party/FreeRTOS/Source/CMSIS_RTOS/cmsis_os.c **** * @retval  status code that indicates the execution status of the function.
1565:Middlewares/Third_Party/FreeRTOS/Source/CMSIS_RTOS/cmsis_os.c **** */
1566:Middlewares/Third_Party/FreeRTOS/Source/CMSIS_RTOS/cmsis_os.c **** osStatus osAbortDelay(osThreadId thread_id)
1567:Middlewares/Third_Party/FreeRTOS/Source/CMSIS_RTOS/cmsis_os.c **** {
 3215              		.loc 1 1567 1 is_stmt 1 view -0
 3216              		.cfi_startproc
 3217              		@ args = 0, pretend = 0, frame = 0
 3218              		@ frame_needed = 0, uses_anonymous_args = 0
 3219              		@ link register save eliminated.
1568:Middlewares/Third_Party/FreeRTOS/Source/CMSIS_RTOS/cmsis_os.c **** #if INCLUDE_xTaskAbortDelay
1569:Middlewares/Third_Party/FreeRTOS/Source/CMSIS_RTOS/cmsis_os.c ****   
1570:Middlewares/Third_Party/FreeRTOS/Source/CMSIS_RTOS/cmsis_os.c ****   xTaskAbortDelay(thread_id);
1571:Middlewares/Third_Party/FreeRTOS/Source/CMSIS_RTOS/cmsis_os.c ****   
1572:Middlewares/Third_Party/FreeRTOS/Source/CMSIS_RTOS/cmsis_os.c ****   return osOK;
1573:Middlewares/Third_Party/FreeRTOS/Source/CMSIS_RTOS/cmsis_os.c **** #else
1574:Middlewares/Third_Party/FreeRTOS/Source/CMSIS_RTOS/cmsis_os.c ****   (void) thread_id;
 3220              		.loc 1 1574 3 view .LVU795
1575:Middlewares/Third_Party/FreeRTOS/Source/CMSIS_RTOS/cmsis_os.c ****   
1576:Middlewares/Third_Party/FreeRTOS/Source/CMSIS_RTOS/cmsis_os.c ****   return osErrorResource;
 3221              		.loc 1 1576 3 view .LVU796
1577:Middlewares/Third_Party/FreeRTOS/Source/CMSIS_RTOS/cmsis_os.c **** #endif
1578:Middlewares/Third_Party/FreeRTOS/Source/CMSIS_RTOS/cmsis_os.c **** }
 3222              		.loc 1 1578 1 is_stmt 0 view .LVU797
 3223 0000 8120     		movs	r0, #129
 3224              	.LVL236:
 3225              		.loc 1 1578 1 view .LVU798
 3226 0002 7047     		bx	lr
 3227              		.cfi_endproc
 3228              	.LFE76:
 3230              		.section	.text.osThreadList,"ax",%progbits
 3231              		.align	1
ARM GAS  /var/folders/n1/76bg37b13ls08p1dhb9rhvd40000gn/T//cc6VEgqh.s 			page 93


 3232              		.global	osThreadList
 3233              		.syntax unified
 3234              		.thumb
 3235              		.thumb_func
 3236              		.fpu fpv4-sp-d16
 3238              	osThreadList:
 3239              	.LVL237:
 3240              	.LFB77:
1579:Middlewares/Third_Party/FreeRTOS/Source/CMSIS_RTOS/cmsis_os.c **** 
1580:Middlewares/Third_Party/FreeRTOS/Source/CMSIS_RTOS/cmsis_os.c **** /**
1581:Middlewares/Third_Party/FreeRTOS/Source/CMSIS_RTOS/cmsis_os.c **** * @brief   Lists all the current threads, along with their current state 
1582:Middlewares/Third_Party/FreeRTOS/Source/CMSIS_RTOS/cmsis_os.c **** *          and stack usage high water mark.
1583:Middlewares/Third_Party/FreeRTOS/Source/CMSIS_RTOS/cmsis_os.c **** * @param   buffer   A buffer into which the above mentioned details
1584:Middlewares/Third_Party/FreeRTOS/Source/CMSIS_RTOS/cmsis_os.c **** *          will be written
1585:Middlewares/Third_Party/FreeRTOS/Source/CMSIS_RTOS/cmsis_os.c **** * @retval  status code that indicates the execution status of the function.
1586:Middlewares/Third_Party/FreeRTOS/Source/CMSIS_RTOS/cmsis_os.c **** */
1587:Middlewares/Third_Party/FreeRTOS/Source/CMSIS_RTOS/cmsis_os.c **** osStatus osThreadList (uint8_t *buffer)
1588:Middlewares/Third_Party/FreeRTOS/Source/CMSIS_RTOS/cmsis_os.c **** {
 3241              		.loc 1 1588 1 is_stmt 1 view -0
 3242              		.cfi_startproc
 3243              		@ args = 0, pretend = 0, frame = 0
 3244              		@ frame_needed = 0, uses_anonymous_args = 0
 3245              		@ link register save eliminated.
1589:Middlewares/Third_Party/FreeRTOS/Source/CMSIS_RTOS/cmsis_os.c **** #if ( ( configUSE_TRACE_FACILITY == 1 ) && ( configUSE_STATS_FORMATTING_FUNCTIONS == 1 ) )
1590:Middlewares/Third_Party/FreeRTOS/Source/CMSIS_RTOS/cmsis_os.c ****   vTaskList((char *)buffer);
1591:Middlewares/Third_Party/FreeRTOS/Source/CMSIS_RTOS/cmsis_os.c **** #endif
1592:Middlewares/Third_Party/FreeRTOS/Source/CMSIS_RTOS/cmsis_os.c ****   return osOK;
 3246              		.loc 1 1592 3 view .LVU800
1593:Middlewares/Third_Party/FreeRTOS/Source/CMSIS_RTOS/cmsis_os.c **** }
 3247              		.loc 1 1593 1 is_stmt 0 view .LVU801
 3248 0000 0020     		movs	r0, #0
 3249              	.LVL238:
 3250              		.loc 1 1593 1 view .LVU802
 3251 0002 7047     		bx	lr
 3252              		.cfi_endproc
 3253              	.LFE77:
 3255              		.section	.text.osMessagePeek,"ax",%progbits
 3256              		.align	1
 3257              		.global	osMessagePeek
 3258              		.syntax unified
 3259              		.thumb
 3260              		.thumb_func
 3261              		.fpu fpv4-sp-d16
 3263              	osMessagePeek:
 3264              	.LVL239:
 3265              	.LFB78:
1594:Middlewares/Third_Party/FreeRTOS/Source/CMSIS_RTOS/cmsis_os.c **** 
1595:Middlewares/Third_Party/FreeRTOS/Source/CMSIS_RTOS/cmsis_os.c **** /**
1596:Middlewares/Third_Party/FreeRTOS/Source/CMSIS_RTOS/cmsis_os.c **** * @brief  Receive an item from a queue without removing the item from the queue.
1597:Middlewares/Third_Party/FreeRTOS/Source/CMSIS_RTOS/cmsis_os.c **** * @param  queue_id  message queue ID obtained with \ref osMessageCreate.
1598:Middlewares/Third_Party/FreeRTOS/Source/CMSIS_RTOS/cmsis_os.c **** * @param  millisec  timeout value or 0 in case of no time-out.
1599:Middlewares/Third_Party/FreeRTOS/Source/CMSIS_RTOS/cmsis_os.c **** * @retval event information that includes status code.
1600:Middlewares/Third_Party/FreeRTOS/Source/CMSIS_RTOS/cmsis_os.c **** */
1601:Middlewares/Third_Party/FreeRTOS/Source/CMSIS_RTOS/cmsis_os.c **** osEvent osMessagePeek (osMessageQId queue_id, uint32_t millisec)
1602:Middlewares/Third_Party/FreeRTOS/Source/CMSIS_RTOS/cmsis_os.c **** {
 3266              		.loc 1 1602 1 is_stmt 1 view -0
 3267              		.cfi_startproc
ARM GAS  /var/folders/n1/76bg37b13ls08p1dhb9rhvd40000gn/T//cc6VEgqh.s 			page 94


 3268              		@ args = 0, pretend = 0, frame = 16
 3269              		@ frame_needed = 0, uses_anonymous_args = 0
 3270              		.loc 1 1602 1 is_stmt 0 view .LVU804
 3271 0000 30B5     		push	{r4, r5, lr}
 3272              	.LCFI74:
 3273              		.cfi_def_cfa_offset 12
 3274              		.cfi_offset 4, -12
 3275              		.cfi_offset 5, -8
 3276              		.cfi_offset 14, -4
 3277 0002 85B0     		sub	sp, sp, #20
 3278              	.LCFI75:
 3279              		.cfi_def_cfa_offset 32
 3280 0004 0446     		mov	r4, r0
1603:Middlewares/Third_Party/FreeRTOS/Source/CMSIS_RTOS/cmsis_os.c ****   TickType_t ticks;
 3281              		.loc 1 1603 3 is_stmt 1 view .LVU805
1604:Middlewares/Third_Party/FreeRTOS/Source/CMSIS_RTOS/cmsis_os.c ****   osEvent event;
 3282              		.loc 1 1604 3 view .LVU806
1605:Middlewares/Third_Party/FreeRTOS/Source/CMSIS_RTOS/cmsis_os.c ****   
1606:Middlewares/Third_Party/FreeRTOS/Source/CMSIS_RTOS/cmsis_os.c ****   event.def.message_id = queue_id;
 3283              		.loc 1 1606 3 view .LVU807
 3284              		.loc 1 1606 24 is_stmt 0 view .LVU808
 3285 0006 0391     		str	r1, [sp, #12]
1607:Middlewares/Third_Party/FreeRTOS/Source/CMSIS_RTOS/cmsis_os.c ****   
1608:Middlewares/Third_Party/FreeRTOS/Source/CMSIS_RTOS/cmsis_os.c ****   if (queue_id == NULL) {
 3286              		.loc 1 1608 3 is_stmt 1 view .LVU809
 3287              		.loc 1 1608 6 is_stmt 0 view .LVU810
 3288 0008 B1B1     		cbz	r1, .L275
 3289 000a 0846     		mov	r0, r1
 3290              	.LVL240:
 3291              		.loc 1 1608 6 view .LVU811
 3292 000c 1546     		mov	r5, r2
1609:Middlewares/Third_Party/FreeRTOS/Source/CMSIS_RTOS/cmsis_os.c ****     event.status = osErrorParameter;
1610:Middlewares/Third_Party/FreeRTOS/Source/CMSIS_RTOS/cmsis_os.c ****     return event;
1611:Middlewares/Third_Party/FreeRTOS/Source/CMSIS_RTOS/cmsis_os.c ****   }
1612:Middlewares/Third_Party/FreeRTOS/Source/CMSIS_RTOS/cmsis_os.c ****   
1613:Middlewares/Third_Party/FreeRTOS/Source/CMSIS_RTOS/cmsis_os.c ****   ticks = 0;
 3293              		.loc 1 1613 3 is_stmt 1 view .LVU812
 3294              	.LVL241:
1614:Middlewares/Third_Party/FreeRTOS/Source/CMSIS_RTOS/cmsis_os.c ****   if (millisec == osWaitForever) {
 3295              		.loc 1 1614 3 view .LVU813
 3296              		.loc 1 1614 6 is_stmt 0 view .LVU814
 3297 000e B2F1FF3F 		cmp	r2, #-1
 3298 0012 19D0     		beq	.L276
 3299              	.L268:
 3300              	.LVL242:
1615:Middlewares/Third_Party/FreeRTOS/Source/CMSIS_RTOS/cmsis_os.c ****     ticks = portMAX_DELAY;
1616:Middlewares/Third_Party/FreeRTOS/Source/CMSIS_RTOS/cmsis_os.c ****   }
1617:Middlewares/Third_Party/FreeRTOS/Source/CMSIS_RTOS/cmsis_os.c ****   else if (millisec != 0) {
1618:Middlewares/Third_Party/FreeRTOS/Source/CMSIS_RTOS/cmsis_os.c ****     ticks = millisec / portTICK_PERIOD_MS;
1619:Middlewares/Third_Party/FreeRTOS/Source/CMSIS_RTOS/cmsis_os.c ****     if (ticks == 0) {
1620:Middlewares/Third_Party/FreeRTOS/Source/CMSIS_RTOS/cmsis_os.c ****       ticks = 1;
1621:Middlewares/Third_Party/FreeRTOS/Source/CMSIS_RTOS/cmsis_os.c ****     }
1622:Middlewares/Third_Party/FreeRTOS/Source/CMSIS_RTOS/cmsis_os.c ****   }
1623:Middlewares/Third_Party/FreeRTOS/Source/CMSIS_RTOS/cmsis_os.c ****   
1624:Middlewares/Third_Party/FreeRTOS/Source/CMSIS_RTOS/cmsis_os.c ****   if (xQueuePeek(queue_id, &event.value.v, ticks) == pdTRUE) 
 3301              		.loc 1 1624 3 is_stmt 1 view .LVU815
 3302              		.loc 1 1624 7 is_stmt 0 view .LVU816
ARM GAS  /var/folders/n1/76bg37b13ls08p1dhb9rhvd40000gn/T//cc6VEgqh.s 			page 95


 3303 0014 0123     		movs	r3, #1
 3304 0016 2A46     		mov	r2, r5
 3305              	.LVL243:
 3306              		.loc 1 1624 7 view .LVU817
 3307 0018 02A9     		add	r1, sp, #8
 3308              	.LVL244:
 3309              		.loc 1 1624 7 view .LVU818
 3310 001a FFF7FEFF 		bl	xQueueGenericReceive
 3311              	.LVL245:
 3312              		.loc 1 1624 6 view .LVU819
 3313 001e 0128     		cmp	r0, #1
 3314 0020 15D0     		beq	.L277
1625:Middlewares/Third_Party/FreeRTOS/Source/CMSIS_RTOS/cmsis_os.c ****   {
1626:Middlewares/Third_Party/FreeRTOS/Source/CMSIS_RTOS/cmsis_os.c ****     /* We have mail */
1627:Middlewares/Third_Party/FreeRTOS/Source/CMSIS_RTOS/cmsis_os.c ****     event.status = osEventMessage;
1628:Middlewares/Third_Party/FreeRTOS/Source/CMSIS_RTOS/cmsis_os.c ****   }
1629:Middlewares/Third_Party/FreeRTOS/Source/CMSIS_RTOS/cmsis_os.c ****   else 
1630:Middlewares/Third_Party/FreeRTOS/Source/CMSIS_RTOS/cmsis_os.c ****   {
1631:Middlewares/Third_Party/FreeRTOS/Source/CMSIS_RTOS/cmsis_os.c ****     event.status = (ticks == 0) ? osOK : osEventTimeout;
 3315              		.loc 1 1631 5 is_stmt 1 view .LVU820
 3316              		.loc 1 1631 40 is_stmt 0 view .LVU821
 3317 0022 BDB9     		cbnz	r5, .L273
 3318 0024 0023     		movs	r3, #0
 3319              	.L271:
 3320              		.loc 1 1631 18 discriminator 4 view .LVU822
 3321 0026 0193     		str	r3, [sp, #4]
 3322              	.L270:
1632:Middlewares/Third_Party/FreeRTOS/Source/CMSIS_RTOS/cmsis_os.c ****   }
1633:Middlewares/Third_Party/FreeRTOS/Source/CMSIS_RTOS/cmsis_os.c ****   
1634:Middlewares/Third_Party/FreeRTOS/Source/CMSIS_RTOS/cmsis_os.c ****   return event;
 3323              		.loc 1 1634 3 is_stmt 1 view .LVU823
 3324              		.loc 1 1634 10 is_stmt 0 view .LVU824
 3325 0028 04AB     		add	r3, sp, #16
 3326 002a 13E90700 		ldmdb	r3, {r0, r1, r2}
 3327 002e 84E80700 		stm	r4, {r0, r1, r2}
 3328              	.LVL246:
 3329              	.L265:
1635:Middlewares/Third_Party/FreeRTOS/Source/CMSIS_RTOS/cmsis_os.c **** }
 3330              		.loc 1 1635 1 view .LVU825
 3331 0032 2046     		mov	r0, r4
 3332 0034 05B0     		add	sp, sp, #20
 3333              	.LCFI76:
 3334              		.cfi_remember_state
 3335              		.cfi_def_cfa_offset 12
 3336              		@ sp needed
 3337 0036 30BD     		pop	{r4, r5, pc}
 3338              	.LVL247:
 3339              	.L275:
 3340              	.LCFI77:
 3341              		.cfi_restore_state
1609:Middlewares/Third_Party/FreeRTOS/Source/CMSIS_RTOS/cmsis_os.c ****     return event;
 3342              		.loc 1 1609 5 is_stmt 1 view .LVU826
1609:Middlewares/Third_Party/FreeRTOS/Source/CMSIS_RTOS/cmsis_os.c ****     return event;
 3343              		.loc 1 1609 18 is_stmt 0 view .LVU827
 3344 0038 8023     		movs	r3, #128
 3345 003a 0193     		str	r3, [sp, #4]
1610:Middlewares/Third_Party/FreeRTOS/Source/CMSIS_RTOS/cmsis_os.c ****   }
ARM GAS  /var/folders/n1/76bg37b13ls08p1dhb9rhvd40000gn/T//cc6VEgqh.s 			page 96


 3346              		.loc 1 1610 5 is_stmt 1 view .LVU828
1610:Middlewares/Third_Party/FreeRTOS/Source/CMSIS_RTOS/cmsis_os.c ****   }
 3347              		.loc 1 1610 12 is_stmt 0 view .LVU829
 3348 003c 04AB     		add	r3, sp, #16
 3349 003e 13E90700 		ldmdb	r3, {r0, r1, r2}
 3350              	.LVL248:
1610:Middlewares/Third_Party/FreeRTOS/Source/CMSIS_RTOS/cmsis_os.c ****   }
 3351              		.loc 1 1610 12 view .LVU830
 3352 0042 84E80700 		stm	r4, {r0, r1, r2}
 3353 0046 F4E7     		b	.L265
 3354              	.LVL249:
 3355              	.L276:
1615:Middlewares/Third_Party/FreeRTOS/Source/CMSIS_RTOS/cmsis_os.c ****   }
 3356              		.loc 1 1615 11 view .LVU831
 3357 0048 4FF0FF35 		mov	r5, #-1
 3358 004c E2E7     		b	.L268
 3359              	.LVL250:
 3360              	.L277:
1627:Middlewares/Third_Party/FreeRTOS/Source/CMSIS_RTOS/cmsis_os.c ****   }
 3361              		.loc 1 1627 5 is_stmt 1 view .LVU832
1627:Middlewares/Third_Party/FreeRTOS/Source/CMSIS_RTOS/cmsis_os.c ****   }
 3362              		.loc 1 1627 18 is_stmt 0 view .LVU833
 3363 004e 1023     		movs	r3, #16
 3364 0050 0193     		str	r3, [sp, #4]
 3365 0052 E9E7     		b	.L270
 3366              	.L273:
1631:Middlewares/Third_Party/FreeRTOS/Source/CMSIS_RTOS/cmsis_os.c ****   }
 3367              		.loc 1 1631 40 view .LVU834
 3368 0054 4023     		movs	r3, #64
 3369 0056 E6E7     		b	.L271
 3370              		.cfi_endproc
 3371              	.LFE78:
 3373              		.section	.text.osMessageWaiting,"ax",%progbits
 3374              		.align	1
 3375              		.global	osMessageWaiting
 3376              		.syntax unified
 3377              		.thumb
 3378              		.thumb_func
 3379              		.fpu fpv4-sp-d16
 3381              	osMessageWaiting:
 3382              	.LVL251:
 3383              	.LFB79:
1636:Middlewares/Third_Party/FreeRTOS/Source/CMSIS_RTOS/cmsis_os.c **** 
1637:Middlewares/Third_Party/FreeRTOS/Source/CMSIS_RTOS/cmsis_os.c **** /**
1638:Middlewares/Third_Party/FreeRTOS/Source/CMSIS_RTOS/cmsis_os.c **** * @brief  Get the number of messaged stored in a queue.
1639:Middlewares/Third_Party/FreeRTOS/Source/CMSIS_RTOS/cmsis_os.c **** * @param  queue_id  message queue ID obtained with \ref osMessageCreate.
1640:Middlewares/Third_Party/FreeRTOS/Source/CMSIS_RTOS/cmsis_os.c **** * @retval number of messages stored in a queue.
1641:Middlewares/Third_Party/FreeRTOS/Source/CMSIS_RTOS/cmsis_os.c **** */
1642:Middlewares/Third_Party/FreeRTOS/Source/CMSIS_RTOS/cmsis_os.c **** uint32_t osMessageWaiting(osMessageQId queue_id)
1643:Middlewares/Third_Party/FreeRTOS/Source/CMSIS_RTOS/cmsis_os.c **** {
 3384              		.loc 1 1643 1 is_stmt 1 view -0
 3385              		.cfi_startproc
 3386              		@ args = 0, pretend = 0, frame = 0
 3387              		@ frame_needed = 0, uses_anonymous_args = 0
 3388              		.loc 1 1643 1 is_stmt 0 view .LVU836
 3389 0000 10B5     		push	{r4, lr}
 3390              	.LCFI78:
ARM GAS  /var/folders/n1/76bg37b13ls08p1dhb9rhvd40000gn/T//cc6VEgqh.s 			page 97


 3391              		.cfi_def_cfa_offset 8
 3392              		.cfi_offset 4, -8
 3393              		.cfi_offset 14, -4
 3394 0002 0446     		mov	r4, r0
1644:Middlewares/Third_Party/FreeRTOS/Source/CMSIS_RTOS/cmsis_os.c ****   if (inHandlerMode()) {
 3395              		.loc 1 1644 3 is_stmt 1 view .LVU837
 3396              		.loc 1 1644 7 is_stmt 0 view .LVU838
 3397 0004 FFF7FEFF 		bl	inHandlerMode
 3398              	.LVL252:
 3399              		.loc 1 1644 6 view .LVU839
 3400 0008 18B1     		cbz	r0, .L279
1645:Middlewares/Third_Party/FreeRTOS/Source/CMSIS_RTOS/cmsis_os.c ****     return uxQueueMessagesWaitingFromISR(queue_id);
 3401              		.loc 1 1645 5 is_stmt 1 view .LVU840
 3402              		.loc 1 1645 12 is_stmt 0 view .LVU841
 3403 000a 2046     		mov	r0, r4
 3404 000c FFF7FEFF 		bl	uxQueueMessagesWaitingFromISR
 3405              	.LVL253:
 3406              	.L278:
1646:Middlewares/Third_Party/FreeRTOS/Source/CMSIS_RTOS/cmsis_os.c ****   }
1647:Middlewares/Third_Party/FreeRTOS/Source/CMSIS_RTOS/cmsis_os.c ****   else
1648:Middlewares/Third_Party/FreeRTOS/Source/CMSIS_RTOS/cmsis_os.c ****   {
1649:Middlewares/Third_Party/FreeRTOS/Source/CMSIS_RTOS/cmsis_os.c ****     return uxQueueMessagesWaiting(queue_id);
1650:Middlewares/Third_Party/FreeRTOS/Source/CMSIS_RTOS/cmsis_os.c ****   }
1651:Middlewares/Third_Party/FreeRTOS/Source/CMSIS_RTOS/cmsis_os.c **** }
 3407              		.loc 1 1651 1 view .LVU842
 3408 0010 10BD     		pop	{r4, pc}
 3409              	.LVL254:
 3410              	.L279:
1649:Middlewares/Third_Party/FreeRTOS/Source/CMSIS_RTOS/cmsis_os.c ****   }
 3411              		.loc 1 1649 5 is_stmt 1 view .LVU843
1649:Middlewares/Third_Party/FreeRTOS/Source/CMSIS_RTOS/cmsis_os.c ****   }
 3412              		.loc 1 1649 12 is_stmt 0 view .LVU844
 3413 0012 2046     		mov	r0, r4
 3414 0014 FFF7FEFF 		bl	uxQueueMessagesWaiting
 3415              	.LVL255:
 3416 0018 FAE7     		b	.L278
 3417              		.cfi_endproc
 3418              	.LFE79:
 3420              		.section	.text.osMessageAvailableSpace,"ax",%progbits
 3421              		.align	1
 3422              		.global	osMessageAvailableSpace
 3423              		.syntax unified
 3424              		.thumb
 3425              		.thumb_func
 3426              		.fpu fpv4-sp-d16
 3428              	osMessageAvailableSpace:
 3429              	.LVL256:
 3430              	.LFB80:
1652:Middlewares/Third_Party/FreeRTOS/Source/CMSIS_RTOS/cmsis_os.c **** 
1653:Middlewares/Third_Party/FreeRTOS/Source/CMSIS_RTOS/cmsis_os.c **** /**
1654:Middlewares/Third_Party/FreeRTOS/Source/CMSIS_RTOS/cmsis_os.c **** * @brief  Get the available space in a message queue.
1655:Middlewares/Third_Party/FreeRTOS/Source/CMSIS_RTOS/cmsis_os.c **** * @param  queue_id  message queue ID obtained with \ref osMessageCreate.
1656:Middlewares/Third_Party/FreeRTOS/Source/CMSIS_RTOS/cmsis_os.c **** * @retval available space in a message queue.
1657:Middlewares/Third_Party/FreeRTOS/Source/CMSIS_RTOS/cmsis_os.c **** */
1658:Middlewares/Third_Party/FreeRTOS/Source/CMSIS_RTOS/cmsis_os.c **** uint32_t osMessageAvailableSpace(osMessageQId queue_id)  
1659:Middlewares/Third_Party/FreeRTOS/Source/CMSIS_RTOS/cmsis_os.c **** {
 3431              		.loc 1 1659 1 is_stmt 1 view -0
ARM GAS  /var/folders/n1/76bg37b13ls08p1dhb9rhvd40000gn/T//cc6VEgqh.s 			page 98


 3432              		.cfi_startproc
 3433              		@ args = 0, pretend = 0, frame = 0
 3434              		@ frame_needed = 0, uses_anonymous_args = 0
 3435              		.loc 1 1659 1 is_stmt 0 view .LVU846
 3436 0000 08B5     		push	{r3, lr}
 3437              	.LCFI79:
 3438              		.cfi_def_cfa_offset 8
 3439              		.cfi_offset 3, -8
 3440              		.cfi_offset 14, -4
1660:Middlewares/Third_Party/FreeRTOS/Source/CMSIS_RTOS/cmsis_os.c ****   return uxQueueSpacesAvailable(queue_id);
 3441              		.loc 1 1660 3 is_stmt 1 view .LVU847
 3442              		.loc 1 1660 10 is_stmt 0 view .LVU848
 3443 0002 FFF7FEFF 		bl	uxQueueSpacesAvailable
 3444              	.LVL257:
1661:Middlewares/Third_Party/FreeRTOS/Source/CMSIS_RTOS/cmsis_os.c **** }
 3445              		.loc 1 1661 1 view .LVU849
 3446 0006 08BD     		pop	{r3, pc}
 3447              		.cfi_endproc
 3448              	.LFE80:
 3450              		.section	.text.osMessageDelete,"ax",%progbits
 3451              		.align	1
 3452              		.global	osMessageDelete
 3453              		.syntax unified
 3454              		.thumb
 3455              		.thumb_func
 3456              		.fpu fpv4-sp-d16
 3458              	osMessageDelete:
 3459              	.LVL258:
 3460              	.LFB81:
1662:Middlewares/Third_Party/FreeRTOS/Source/CMSIS_RTOS/cmsis_os.c **** 
1663:Middlewares/Third_Party/FreeRTOS/Source/CMSIS_RTOS/cmsis_os.c **** /**
1664:Middlewares/Third_Party/FreeRTOS/Source/CMSIS_RTOS/cmsis_os.c **** * @brief Delete a Message Queue
1665:Middlewares/Third_Party/FreeRTOS/Source/CMSIS_RTOS/cmsis_os.c **** * @param  queue_id  message queue ID obtained with \ref osMessageCreate.
1666:Middlewares/Third_Party/FreeRTOS/Source/CMSIS_RTOS/cmsis_os.c **** * @retval  status code that indicates the execution status of the function.
1667:Middlewares/Third_Party/FreeRTOS/Source/CMSIS_RTOS/cmsis_os.c **** */
1668:Middlewares/Third_Party/FreeRTOS/Source/CMSIS_RTOS/cmsis_os.c **** osStatus osMessageDelete (osMessageQId queue_id)
1669:Middlewares/Third_Party/FreeRTOS/Source/CMSIS_RTOS/cmsis_os.c **** {
 3461              		.loc 1 1669 1 is_stmt 1 view -0
 3462              		.cfi_startproc
 3463              		@ args = 0, pretend = 0, frame = 0
 3464              		@ frame_needed = 0, uses_anonymous_args = 0
 3465              		.loc 1 1669 1 is_stmt 0 view .LVU851
 3466 0000 10B5     		push	{r4, lr}
 3467              	.LCFI80:
 3468              		.cfi_def_cfa_offset 8
 3469              		.cfi_offset 4, -8
 3470              		.cfi_offset 14, -4
 3471 0002 0446     		mov	r4, r0
1670:Middlewares/Third_Party/FreeRTOS/Source/CMSIS_RTOS/cmsis_os.c ****   if (inHandlerMode()) {
 3472              		.loc 1 1670 3 is_stmt 1 view .LVU852
 3473              		.loc 1 1670 7 is_stmt 0 view .LVU853
 3474 0004 FFF7FEFF 		bl	inHandlerMode
 3475              	.LVL259:
 3476              		.loc 1 1670 6 view .LVU854
 3477 0008 20B9     		cbnz	r0, .L286
1671:Middlewares/Third_Party/FreeRTOS/Source/CMSIS_RTOS/cmsis_os.c ****     return osErrorISR;
1672:Middlewares/Third_Party/FreeRTOS/Source/CMSIS_RTOS/cmsis_os.c ****   }
ARM GAS  /var/folders/n1/76bg37b13ls08p1dhb9rhvd40000gn/T//cc6VEgqh.s 			page 99


1673:Middlewares/Third_Party/FreeRTOS/Source/CMSIS_RTOS/cmsis_os.c **** 
1674:Middlewares/Third_Party/FreeRTOS/Source/CMSIS_RTOS/cmsis_os.c ****   vQueueDelete(queue_id);
 3478              		.loc 1 1674 3 is_stmt 1 view .LVU855
 3479 000a 2046     		mov	r0, r4
 3480 000c FFF7FEFF 		bl	vQueueDelete
 3481              	.LVL260:
1675:Middlewares/Third_Party/FreeRTOS/Source/CMSIS_RTOS/cmsis_os.c **** 
1676:Middlewares/Third_Party/FreeRTOS/Source/CMSIS_RTOS/cmsis_os.c ****   return osOK; 
 3482              		.loc 1 1676 3 view .LVU856
 3483              		.loc 1 1676 10 is_stmt 0 view .LVU857
 3484 0010 0020     		movs	r0, #0
 3485              	.L284:
1677:Middlewares/Third_Party/FreeRTOS/Source/CMSIS_RTOS/cmsis_os.c **** }
 3486              		.loc 1 1677 1 view .LVU858
 3487 0012 10BD     		pop	{r4, pc}
 3488              	.LVL261:
 3489              	.L286:
1671:Middlewares/Third_Party/FreeRTOS/Source/CMSIS_RTOS/cmsis_os.c ****     return osErrorISR;
 3490              		.loc 1 1671 12 view .LVU859
 3491 0014 8220     		movs	r0, #130
 3492 0016 FCE7     		b	.L284
 3493              		.cfi_endproc
 3494              	.LFE81:
 3496              		.section	.text.osRecursiveMutexCreate,"ax",%progbits
 3497              		.align	1
 3498              		.global	osRecursiveMutexCreate
 3499              		.syntax unified
 3500              		.thumb
 3501              		.thumb_func
 3502              		.fpu fpv4-sp-d16
 3504              	osRecursiveMutexCreate:
 3505              	.LVL262:
 3506              	.LFB82:
1678:Middlewares/Third_Party/FreeRTOS/Source/CMSIS_RTOS/cmsis_os.c **** 
1679:Middlewares/Third_Party/FreeRTOS/Source/CMSIS_RTOS/cmsis_os.c **** /**
1680:Middlewares/Third_Party/FreeRTOS/Source/CMSIS_RTOS/cmsis_os.c **** * @brief  Create and Initialize a Recursive Mutex
1681:Middlewares/Third_Party/FreeRTOS/Source/CMSIS_RTOS/cmsis_os.c **** * @param  mutex_def     mutex definition referenced with \ref osMutex.
1682:Middlewares/Third_Party/FreeRTOS/Source/CMSIS_RTOS/cmsis_os.c **** * @retval  mutex ID for reference by other functions or NULL in case of error..
1683:Middlewares/Third_Party/FreeRTOS/Source/CMSIS_RTOS/cmsis_os.c **** */
1684:Middlewares/Third_Party/FreeRTOS/Source/CMSIS_RTOS/cmsis_os.c **** osMutexId osRecursiveMutexCreate (const osMutexDef_t *mutex_def)
1685:Middlewares/Third_Party/FreeRTOS/Source/CMSIS_RTOS/cmsis_os.c **** {
 3507              		.loc 1 1685 1 is_stmt 1 view -0
 3508              		.cfi_startproc
 3509              		@ args = 0, pretend = 0, frame = 0
 3510              		@ frame_needed = 0, uses_anonymous_args = 0
 3511              		@ link register save eliminated.
1686:Middlewares/Third_Party/FreeRTOS/Source/CMSIS_RTOS/cmsis_os.c **** #if (configUSE_RECURSIVE_MUTEXES == 1)
1687:Middlewares/Third_Party/FreeRTOS/Source/CMSIS_RTOS/cmsis_os.c **** #if( configSUPPORT_STATIC_ALLOCATION == 1 ) && ( configSUPPORT_DYNAMIC_ALLOCATION == 1 )
1688:Middlewares/Third_Party/FreeRTOS/Source/CMSIS_RTOS/cmsis_os.c **** 
1689:Middlewares/Third_Party/FreeRTOS/Source/CMSIS_RTOS/cmsis_os.c ****   if (mutex_def->controlblock != NULL){
1690:Middlewares/Third_Party/FreeRTOS/Source/CMSIS_RTOS/cmsis_os.c ****     return xSemaphoreCreateRecursiveMutexStatic( mutex_def->controlblock );
1691:Middlewares/Third_Party/FreeRTOS/Source/CMSIS_RTOS/cmsis_os.c ****   }
1692:Middlewares/Third_Party/FreeRTOS/Source/CMSIS_RTOS/cmsis_os.c ****   else {
1693:Middlewares/Third_Party/FreeRTOS/Source/CMSIS_RTOS/cmsis_os.c ****     return xSemaphoreCreateRecursiveMutex();
1694:Middlewares/Third_Party/FreeRTOS/Source/CMSIS_RTOS/cmsis_os.c ****   }
1695:Middlewares/Third_Party/FreeRTOS/Source/CMSIS_RTOS/cmsis_os.c **** #elif ( configSUPPORT_STATIC_ALLOCATION == 1 )
1696:Middlewares/Third_Party/FreeRTOS/Source/CMSIS_RTOS/cmsis_os.c ****   return xSemaphoreCreateRecursiveMutexStatic( mutex_def->controlblock );
ARM GAS  /var/folders/n1/76bg37b13ls08p1dhb9rhvd40000gn/T//cc6VEgqh.s 			page 100


1697:Middlewares/Third_Party/FreeRTOS/Source/CMSIS_RTOS/cmsis_os.c **** #else 
1698:Middlewares/Third_Party/FreeRTOS/Source/CMSIS_RTOS/cmsis_os.c ****   return xSemaphoreCreateRecursiveMutex();
1699:Middlewares/Third_Party/FreeRTOS/Source/CMSIS_RTOS/cmsis_os.c **** #endif
1700:Middlewares/Third_Party/FreeRTOS/Source/CMSIS_RTOS/cmsis_os.c **** #else
1701:Middlewares/Third_Party/FreeRTOS/Source/CMSIS_RTOS/cmsis_os.c ****   return NULL;
 3512              		.loc 1 1701 3 view .LVU861
1702:Middlewares/Third_Party/FreeRTOS/Source/CMSIS_RTOS/cmsis_os.c **** #endif	
1703:Middlewares/Third_Party/FreeRTOS/Source/CMSIS_RTOS/cmsis_os.c **** }
 3513              		.loc 1 1703 1 is_stmt 0 view .LVU862
 3514 0000 0020     		movs	r0, #0
 3515              	.LVL263:
 3516              		.loc 1 1703 1 view .LVU863
 3517 0002 7047     		bx	lr
 3518              		.cfi_endproc
 3519              	.LFE82:
 3521              		.section	.text.osRecursiveMutexRelease,"ax",%progbits
 3522              		.align	1
 3523              		.global	osRecursiveMutexRelease
 3524              		.syntax unified
 3525              		.thumb
 3526              		.thumb_func
 3527              		.fpu fpv4-sp-d16
 3529              	osRecursiveMutexRelease:
 3530              	.LVL264:
 3531              	.LFB83:
1704:Middlewares/Third_Party/FreeRTOS/Source/CMSIS_RTOS/cmsis_os.c **** 
1705:Middlewares/Third_Party/FreeRTOS/Source/CMSIS_RTOS/cmsis_os.c **** /**
1706:Middlewares/Third_Party/FreeRTOS/Source/CMSIS_RTOS/cmsis_os.c **** * @brief  Release a Recursive Mutex
1707:Middlewares/Third_Party/FreeRTOS/Source/CMSIS_RTOS/cmsis_os.c **** * @param   mutex_id      mutex ID obtained by \ref osRecursiveMutexCreate.
1708:Middlewares/Third_Party/FreeRTOS/Source/CMSIS_RTOS/cmsis_os.c **** * @retval  status code that indicates the execution status of the function.
1709:Middlewares/Third_Party/FreeRTOS/Source/CMSIS_RTOS/cmsis_os.c **** */
1710:Middlewares/Third_Party/FreeRTOS/Source/CMSIS_RTOS/cmsis_os.c **** osStatus osRecursiveMutexRelease (osMutexId mutex_id)
1711:Middlewares/Third_Party/FreeRTOS/Source/CMSIS_RTOS/cmsis_os.c **** {
 3532              		.loc 1 1711 1 is_stmt 1 view -0
 3533              		.cfi_startproc
 3534              		@ args = 0, pretend = 0, frame = 0
 3535              		@ frame_needed = 0, uses_anonymous_args = 0
 3536              		@ link register save eliminated.
1712:Middlewares/Third_Party/FreeRTOS/Source/CMSIS_RTOS/cmsis_os.c **** #if (configUSE_RECURSIVE_MUTEXES == 1)
1713:Middlewares/Third_Party/FreeRTOS/Source/CMSIS_RTOS/cmsis_os.c ****   osStatus result = osOK;
1714:Middlewares/Third_Party/FreeRTOS/Source/CMSIS_RTOS/cmsis_os.c ****  
1715:Middlewares/Third_Party/FreeRTOS/Source/CMSIS_RTOS/cmsis_os.c ****   if (xSemaphoreGiveRecursive(mutex_id) != pdTRUE) 
1716:Middlewares/Third_Party/FreeRTOS/Source/CMSIS_RTOS/cmsis_os.c ****   {
1717:Middlewares/Third_Party/FreeRTOS/Source/CMSIS_RTOS/cmsis_os.c ****     result = osErrorOS;
1718:Middlewares/Third_Party/FreeRTOS/Source/CMSIS_RTOS/cmsis_os.c ****   }
1719:Middlewares/Third_Party/FreeRTOS/Source/CMSIS_RTOS/cmsis_os.c ****   return result;
1720:Middlewares/Third_Party/FreeRTOS/Source/CMSIS_RTOS/cmsis_os.c **** #else
1721:Middlewares/Third_Party/FreeRTOS/Source/CMSIS_RTOS/cmsis_os.c **** 	return osErrorResource;
 3537              		.loc 1 1721 2 view .LVU865
1722:Middlewares/Third_Party/FreeRTOS/Source/CMSIS_RTOS/cmsis_os.c **** #endif
1723:Middlewares/Third_Party/FreeRTOS/Source/CMSIS_RTOS/cmsis_os.c **** }
 3538              		.loc 1 1723 1 is_stmt 0 view .LVU866
 3539 0000 8120     		movs	r0, #129
 3540              	.LVL265:
 3541              		.loc 1 1723 1 view .LVU867
 3542 0002 7047     		bx	lr
 3543              		.cfi_endproc
ARM GAS  /var/folders/n1/76bg37b13ls08p1dhb9rhvd40000gn/T//cc6VEgqh.s 			page 101


 3544              	.LFE83:
 3546              		.section	.text.osRecursiveMutexWait,"ax",%progbits
 3547              		.align	1
 3548              		.global	osRecursiveMutexWait
 3549              		.syntax unified
 3550              		.thumb
 3551              		.thumb_func
 3552              		.fpu fpv4-sp-d16
 3554              	osRecursiveMutexWait:
 3555              	.LVL266:
 3556              	.LFB84:
1724:Middlewares/Third_Party/FreeRTOS/Source/CMSIS_RTOS/cmsis_os.c **** 
1725:Middlewares/Third_Party/FreeRTOS/Source/CMSIS_RTOS/cmsis_os.c **** /**
1726:Middlewares/Third_Party/FreeRTOS/Source/CMSIS_RTOS/cmsis_os.c **** * @brief  Release a Recursive Mutex
1727:Middlewares/Third_Party/FreeRTOS/Source/CMSIS_RTOS/cmsis_os.c **** * @param   mutex_id    mutex ID obtained by \ref osRecursiveMutexCreate.
1728:Middlewares/Third_Party/FreeRTOS/Source/CMSIS_RTOS/cmsis_os.c **** * @param millisec      timeout value or 0 in case of no time-out.
1729:Middlewares/Third_Party/FreeRTOS/Source/CMSIS_RTOS/cmsis_os.c **** * @retval  status code that indicates the execution status of the function.
1730:Middlewares/Third_Party/FreeRTOS/Source/CMSIS_RTOS/cmsis_os.c **** */
1731:Middlewares/Third_Party/FreeRTOS/Source/CMSIS_RTOS/cmsis_os.c **** osStatus osRecursiveMutexWait (osMutexId mutex_id, uint32_t millisec)
1732:Middlewares/Third_Party/FreeRTOS/Source/CMSIS_RTOS/cmsis_os.c **** {
 3557              		.loc 1 1732 1 is_stmt 1 view -0
 3558              		.cfi_startproc
 3559              		@ args = 0, pretend = 0, frame = 0
 3560              		@ frame_needed = 0, uses_anonymous_args = 0
 3561              		@ link register save eliminated.
1733:Middlewares/Third_Party/FreeRTOS/Source/CMSIS_RTOS/cmsis_os.c **** #if (configUSE_RECURSIVE_MUTEXES == 1)
1734:Middlewares/Third_Party/FreeRTOS/Source/CMSIS_RTOS/cmsis_os.c ****   TickType_t ticks;
1735:Middlewares/Third_Party/FreeRTOS/Source/CMSIS_RTOS/cmsis_os.c ****   
1736:Middlewares/Third_Party/FreeRTOS/Source/CMSIS_RTOS/cmsis_os.c ****   if (mutex_id == NULL)
1737:Middlewares/Third_Party/FreeRTOS/Source/CMSIS_RTOS/cmsis_os.c ****   {
1738:Middlewares/Third_Party/FreeRTOS/Source/CMSIS_RTOS/cmsis_os.c ****     return osErrorParameter;
1739:Middlewares/Third_Party/FreeRTOS/Source/CMSIS_RTOS/cmsis_os.c ****   }
1740:Middlewares/Third_Party/FreeRTOS/Source/CMSIS_RTOS/cmsis_os.c ****   
1741:Middlewares/Third_Party/FreeRTOS/Source/CMSIS_RTOS/cmsis_os.c ****   ticks = 0;
1742:Middlewares/Third_Party/FreeRTOS/Source/CMSIS_RTOS/cmsis_os.c ****   if (millisec == osWaitForever) 
1743:Middlewares/Third_Party/FreeRTOS/Source/CMSIS_RTOS/cmsis_os.c ****   {
1744:Middlewares/Third_Party/FreeRTOS/Source/CMSIS_RTOS/cmsis_os.c ****     ticks = portMAX_DELAY;
1745:Middlewares/Third_Party/FreeRTOS/Source/CMSIS_RTOS/cmsis_os.c ****   }
1746:Middlewares/Third_Party/FreeRTOS/Source/CMSIS_RTOS/cmsis_os.c ****   else if (millisec != 0) 
1747:Middlewares/Third_Party/FreeRTOS/Source/CMSIS_RTOS/cmsis_os.c ****   {
1748:Middlewares/Third_Party/FreeRTOS/Source/CMSIS_RTOS/cmsis_os.c ****     ticks = millisec / portTICK_PERIOD_MS;
1749:Middlewares/Third_Party/FreeRTOS/Source/CMSIS_RTOS/cmsis_os.c ****     if (ticks == 0) 
1750:Middlewares/Third_Party/FreeRTOS/Source/CMSIS_RTOS/cmsis_os.c ****     {
1751:Middlewares/Third_Party/FreeRTOS/Source/CMSIS_RTOS/cmsis_os.c ****       ticks = 1;
1752:Middlewares/Third_Party/FreeRTOS/Source/CMSIS_RTOS/cmsis_os.c ****     }
1753:Middlewares/Third_Party/FreeRTOS/Source/CMSIS_RTOS/cmsis_os.c ****   }
1754:Middlewares/Third_Party/FreeRTOS/Source/CMSIS_RTOS/cmsis_os.c ****   
1755:Middlewares/Third_Party/FreeRTOS/Source/CMSIS_RTOS/cmsis_os.c ****   if (xSemaphoreTakeRecursive(mutex_id, ticks) != pdTRUE) 
1756:Middlewares/Third_Party/FreeRTOS/Source/CMSIS_RTOS/cmsis_os.c ****   {
1757:Middlewares/Third_Party/FreeRTOS/Source/CMSIS_RTOS/cmsis_os.c ****     return osErrorOS;
1758:Middlewares/Third_Party/FreeRTOS/Source/CMSIS_RTOS/cmsis_os.c ****   }
1759:Middlewares/Third_Party/FreeRTOS/Source/CMSIS_RTOS/cmsis_os.c ****   return osOK;
1760:Middlewares/Third_Party/FreeRTOS/Source/CMSIS_RTOS/cmsis_os.c **** #else
1761:Middlewares/Third_Party/FreeRTOS/Source/CMSIS_RTOS/cmsis_os.c **** 	return osErrorResource;
 3562              		.loc 1 1761 2 view .LVU869
1762:Middlewares/Third_Party/FreeRTOS/Source/CMSIS_RTOS/cmsis_os.c **** #endif
1763:Middlewares/Third_Party/FreeRTOS/Source/CMSIS_RTOS/cmsis_os.c **** }
ARM GAS  /var/folders/n1/76bg37b13ls08p1dhb9rhvd40000gn/T//cc6VEgqh.s 			page 102


 3563              		.loc 1 1763 1 is_stmt 0 view .LVU870
 3564 0000 8120     		movs	r0, #129
 3565              	.LVL267:
 3566              		.loc 1 1763 1 view .LVU871
 3567 0002 7047     		bx	lr
 3568              		.cfi_endproc
 3569              	.LFE84:
 3571              		.section	.text.osSemaphoreGetCount,"ax",%progbits
 3572              		.align	1
 3573              		.global	osSemaphoreGetCount
 3574              		.syntax unified
 3575              		.thumb
 3576              		.thumb_func
 3577              		.fpu fpv4-sp-d16
 3579              	osSemaphoreGetCount:
 3580              	.LVL268:
 3581              	.LFB85:
1764:Middlewares/Third_Party/FreeRTOS/Source/CMSIS_RTOS/cmsis_os.c **** 
1765:Middlewares/Third_Party/FreeRTOS/Source/CMSIS_RTOS/cmsis_os.c **** /**
1766:Middlewares/Third_Party/FreeRTOS/Source/CMSIS_RTOS/cmsis_os.c **** * @brief  Returns the current count value of a counting semaphore
1767:Middlewares/Third_Party/FreeRTOS/Source/CMSIS_RTOS/cmsis_os.c **** * @param  semaphore_id  semaphore_id ID obtained by \ref osSemaphoreCreate.
1768:Middlewares/Third_Party/FreeRTOS/Source/CMSIS_RTOS/cmsis_os.c **** * @retval  count value
1769:Middlewares/Third_Party/FreeRTOS/Source/CMSIS_RTOS/cmsis_os.c **** */
1770:Middlewares/Third_Party/FreeRTOS/Source/CMSIS_RTOS/cmsis_os.c **** uint32_t osSemaphoreGetCount(osSemaphoreId semaphore_id)
1771:Middlewares/Third_Party/FreeRTOS/Source/CMSIS_RTOS/cmsis_os.c **** {
 3582              		.loc 1 1771 1 is_stmt 1 view -0
 3583              		.cfi_startproc
 3584              		@ args = 0, pretend = 0, frame = 0
 3585              		@ frame_needed = 0, uses_anonymous_args = 0
 3586              		.loc 1 1771 1 is_stmt 0 view .LVU873
 3587 0000 08B5     		push	{r3, lr}
 3588              	.LCFI81:
 3589              		.cfi_def_cfa_offset 8
 3590              		.cfi_offset 3, -8
 3591              		.cfi_offset 14, -4
1772:Middlewares/Third_Party/FreeRTOS/Source/CMSIS_RTOS/cmsis_os.c ****   return uxSemaphoreGetCount(semaphore_id);
 3592              		.loc 1 1772 3 is_stmt 1 view .LVU874
 3593              		.loc 1 1772 10 is_stmt 0 view .LVU875
 3594 0002 FFF7FEFF 		bl	uxQueueMessagesWaiting
 3595              	.LVL269:
1773:Middlewares/Third_Party/FreeRTOS/Source/CMSIS_RTOS/cmsis_os.c **** }
 3596              		.loc 1 1773 1 view .LVU876
 3597 0006 08BD     		pop	{r3, pc}
 3598              		.cfi_endproc
 3599              	.LFE85:
 3601              		.text
 3602              	.Letext0:
 3603              		.file 4 "/Users/drb/Downloads/gcc-arm-none-eabi-8-2018-q4-major/arm-none-eabi/include/machine/_def
 3604              		.file 5 "/Users/drb/Downloads/gcc-arm-none-eabi-8-2018-q4-major/arm-none-eabi/include/sys/lock.h"
 3605              		.file 6 "/Users/drb/Downloads/gcc-arm-none-eabi-8-2018-q4-major/arm-none-eabi/include/sys/_types.h
 3606              		.file 7 "/Users/drb/Downloads/gcc-arm-none-eabi-8-2018-q4-major/lib/gcc/arm-none-eabi/8.2.1/includ
 3607              		.file 8 "/Users/drb/Downloads/gcc-arm-none-eabi-8-2018-q4-major/arm-none-eabi/include/sys/reent.h"
 3608              		.file 9 "/Users/drb/Downloads/gcc-arm-none-eabi-8-2018-q4-major/arm-none-eabi/include/sys/_stdint.
 3609              		.file 10 "Core/Inc/FreeRTOSConfig.h"
 3610              		.file 11 "Middlewares/Third_Party/FreeRTOS/Source/include/projdefs.h"
 3611              		.file 12 "Middlewares/Third_Party/FreeRTOS/Source/include/task.h"
 3612              		.file 13 "Middlewares/Third_Party/FreeRTOS/Source/include/timers.h"
ARM GAS  /var/folders/n1/76bg37b13ls08p1dhb9rhvd40000gn/T//cc6VEgqh.s 			page 103


 3613              		.file 14 "Middlewares/Third_Party/FreeRTOS/Source/include/queue.h"
 3614              		.file 15 "Middlewares/Third_Party/FreeRTOS/Source/include/semphr.h"
 3615              		.file 16 "Middlewares/Third_Party/FreeRTOS/Source/CMSIS_RTOS/cmsis_os.h"
 3616              		.file 17 "Middlewares/Third_Party/FreeRTOS/Source/include/portable.h"
ARM GAS  /var/folders/n1/76bg37b13ls08p1dhb9rhvd40000gn/T//cc6VEgqh.s 			page 104


DEFINED SYMBOLS
                            *ABS*:0000000000000000 cmsis_os.c
/var/folders/n1/76bg37b13ls08p1dhb9rhvd40000gn/T//cc6VEgqh.s:18     .text.makeFreeRtosPriority:0000000000000000 $t
/var/folders/n1/76bg37b13ls08p1dhb9rhvd40000gn/T//cc6VEgqh.s:25     .text.makeFreeRtosPriority:0000000000000000 makeFreeRtosPriority
/var/folders/n1/76bg37b13ls08p1dhb9rhvd40000gn/T//cc6VEgqh.s:57     .text.makeCmsisPriority:0000000000000000 $t
/var/folders/n1/76bg37b13ls08p1dhb9rhvd40000gn/T//cc6VEgqh.s:63     .text.makeCmsisPriority:0000000000000000 makeCmsisPriority
/var/folders/n1/76bg37b13ls08p1dhb9rhvd40000gn/T//cc6VEgqh.s:97     .text.inHandlerMode:0000000000000000 $t
/var/folders/n1/76bg37b13ls08p1dhb9rhvd40000gn/T//cc6VEgqh.s:103    .text.inHandlerMode:0000000000000000 inHandlerMode
/var/folders/n1/76bg37b13ls08p1dhb9rhvd40000gn/T//cc6VEgqh.s:138    .text.osKernelStart:0000000000000000 $t
/var/folders/n1/76bg37b13ls08p1dhb9rhvd40000gn/T//cc6VEgqh.s:145    .text.osKernelStart:0000000000000000 osKernelStart
/var/folders/n1/76bg37b13ls08p1dhb9rhvd40000gn/T//cc6VEgqh.s:167    .text.osKernelRunning:0000000000000000 $t
/var/folders/n1/76bg37b13ls08p1dhb9rhvd40000gn/T//cc6VEgqh.s:174    .text.osKernelRunning:0000000000000000 osKernelRunning
/var/folders/n1/76bg37b13ls08p1dhb9rhvd40000gn/T//cc6VEgqh.s:205    .text.osKernelSysTick:0000000000000000 $t
/var/folders/n1/76bg37b13ls08p1dhb9rhvd40000gn/T//cc6VEgqh.s:212    .text.osKernelSysTick:0000000000000000 osKernelSysTick
/var/folders/n1/76bg37b13ls08p1dhb9rhvd40000gn/T//cc6VEgqh.s:246    .text.osThreadCreate:0000000000000000 $t
/var/folders/n1/76bg37b13ls08p1dhb9rhvd40000gn/T//cc6VEgqh.s:253    .text.osThreadCreate:0000000000000000 osThreadCreate
/var/folders/n1/76bg37b13ls08p1dhb9rhvd40000gn/T//cc6VEgqh.s:322    .text.osThreadGetId:0000000000000000 $t
/var/folders/n1/76bg37b13ls08p1dhb9rhvd40000gn/T//cc6VEgqh.s:329    .text.osThreadGetId:0000000000000000 osThreadGetId
/var/folders/n1/76bg37b13ls08p1dhb9rhvd40000gn/T//cc6VEgqh.s:350    .text.osThreadTerminate:0000000000000000 $t
/var/folders/n1/76bg37b13ls08p1dhb9rhvd40000gn/T//cc6VEgqh.s:357    .text.osThreadTerminate:0000000000000000 osThreadTerminate
/var/folders/n1/76bg37b13ls08p1dhb9rhvd40000gn/T//cc6VEgqh.s:381    .text.osThreadYield:0000000000000000 $t
/var/folders/n1/76bg37b13ls08p1dhb9rhvd40000gn/T//cc6VEgqh.s:388    .text.osThreadYield:0000000000000000 osThreadYield
/var/folders/n1/76bg37b13ls08p1dhb9rhvd40000gn/T//cc6VEgqh.s:418    .text.osThreadYield:0000000000000014 $d
/var/folders/n1/76bg37b13ls08p1dhb9rhvd40000gn/T//cc6VEgqh.s:423    .text.osThreadSetPriority:0000000000000000 $t
/var/folders/n1/76bg37b13ls08p1dhb9rhvd40000gn/T//cc6VEgqh.s:430    .text.osThreadSetPriority:0000000000000000 osThreadSetPriority
/var/folders/n1/76bg37b13ls08p1dhb9rhvd40000gn/T//cc6VEgqh.s:464    .text.osThreadGetPriority:0000000000000000 $t
/var/folders/n1/76bg37b13ls08p1dhb9rhvd40000gn/T//cc6VEgqh.s:471    .text.osThreadGetPriority:0000000000000000 osThreadGetPriority
/var/folders/n1/76bg37b13ls08p1dhb9rhvd40000gn/T//cc6VEgqh.s:515    .text.osDelay:0000000000000000 $t
/var/folders/n1/76bg37b13ls08p1dhb9rhvd40000gn/T//cc6VEgqh.s:522    .text.osDelay:0000000000000000 osDelay
/var/folders/n1/76bg37b13ls08p1dhb9rhvd40000gn/T//cc6VEgqh.s:556    .text.osTimerCreate:0000000000000000 $t
/var/folders/n1/76bg37b13ls08p1dhb9rhvd40000gn/T//cc6VEgqh.s:563    .text.osTimerCreate:0000000000000000 osTimerCreate
/var/folders/n1/76bg37b13ls08p1dhb9rhvd40000gn/T//cc6VEgqh.s:581    .text.osTimerStart:0000000000000000 $t
/var/folders/n1/76bg37b13ls08p1dhb9rhvd40000gn/T//cc6VEgqh.s:588    .text.osTimerStart:0000000000000000 osTimerStart
/var/folders/n1/76bg37b13ls08p1dhb9rhvd40000gn/T//cc6VEgqh.s:608    .text.osTimerStop:0000000000000000 $t
/var/folders/n1/76bg37b13ls08p1dhb9rhvd40000gn/T//cc6VEgqh.s:615    .text.osTimerStop:0000000000000000 osTimerStop
/var/folders/n1/76bg37b13ls08p1dhb9rhvd40000gn/T//cc6VEgqh.s:635    .text.osTimerDelete:0000000000000000 $t
/var/folders/n1/76bg37b13ls08p1dhb9rhvd40000gn/T//cc6VEgqh.s:642    .text.osTimerDelete:0000000000000000 osTimerDelete
/var/folders/n1/76bg37b13ls08p1dhb9rhvd40000gn/T//cc6VEgqh.s:662    .text.osSignalSet:0000000000000000 $t
/var/folders/n1/76bg37b13ls08p1dhb9rhvd40000gn/T//cc6VEgqh.s:669    .text.osSignalSet:0000000000000000 osSignalSet
/var/folders/n1/76bg37b13ls08p1dhb9rhvd40000gn/T//cc6VEgqh.s:771    .text.osSignalSet:0000000000000060 $d
/var/folders/n1/76bg37b13ls08p1dhb9rhvd40000gn/T//cc6VEgqh.s:776    .text.osSignalWait:0000000000000000 $t
/var/folders/n1/76bg37b13ls08p1dhb9rhvd40000gn/T//cc6VEgqh.s:783    .text.osSignalWait:0000000000000000 osSignalWait
/var/folders/n1/76bg37b13ls08p1dhb9rhvd40000gn/T//cc6VEgqh.s:902    .text.osMutexCreate:0000000000000000 $t
/var/folders/n1/76bg37b13ls08p1dhb9rhvd40000gn/T//cc6VEgqh.s:909    .text.osMutexCreate:0000000000000000 osMutexCreate
/var/folders/n1/76bg37b13ls08p1dhb9rhvd40000gn/T//cc6VEgqh.s:935    .text.osMutexWait:0000000000000000 $t
/var/folders/n1/76bg37b13ls08p1dhb9rhvd40000gn/T//cc6VEgqh.s:942    .text.osMutexWait:0000000000000000 osMutexWait
/var/folders/n1/76bg37b13ls08p1dhb9rhvd40000gn/T//cc6VEgqh.s:1071   .text.osMutexWait:0000000000000070 $d
/var/folders/n1/76bg37b13ls08p1dhb9rhvd40000gn/T//cc6VEgqh.s:1076   .text.osMutexRelease:0000000000000000 $t
/var/folders/n1/76bg37b13ls08p1dhb9rhvd40000gn/T//cc6VEgqh.s:1083   .text.osMutexRelease:0000000000000000 osMutexRelease
/var/folders/n1/76bg37b13ls08p1dhb9rhvd40000gn/T//cc6VEgqh.s:1182   .text.osMutexRelease:0000000000000058 $d
/var/folders/n1/76bg37b13ls08p1dhb9rhvd40000gn/T//cc6VEgqh.s:1187   .text.osMutexDelete:0000000000000000 $t
/var/folders/n1/76bg37b13ls08p1dhb9rhvd40000gn/T//cc6VEgqh.s:1194   .text.osMutexDelete:0000000000000000 osMutexDelete
/var/folders/n1/76bg37b13ls08p1dhb9rhvd40000gn/T//cc6VEgqh.s:1233   .text.osSemaphoreCreate:0000000000000000 $t
/var/folders/n1/76bg37b13ls08p1dhb9rhvd40000gn/T//cc6VEgqh.s:1240   .text.osSemaphoreCreate:0000000000000000 osSemaphoreCreate
/var/folders/n1/76bg37b13ls08p1dhb9rhvd40000gn/T//cc6VEgqh.s:1295   .text.osSemaphoreWait:0000000000000000 $t
/var/folders/n1/76bg37b13ls08p1dhb9rhvd40000gn/T//cc6VEgqh.s:1302   .text.osSemaphoreWait:0000000000000000 osSemaphoreWait
/var/folders/n1/76bg37b13ls08p1dhb9rhvd40000gn/T//cc6VEgqh.s:1431   .text.osSemaphoreWait:0000000000000070 $d
ARM GAS  /var/folders/n1/76bg37b13ls08p1dhb9rhvd40000gn/T//cc6VEgqh.s 			page 105


/var/folders/n1/76bg37b13ls08p1dhb9rhvd40000gn/T//cc6VEgqh.s:1436   .text.osSemaphoreRelease:0000000000000000 $t
/var/folders/n1/76bg37b13ls08p1dhb9rhvd40000gn/T//cc6VEgqh.s:1443   .text.osSemaphoreRelease:0000000000000000 osSemaphoreRelease
/var/folders/n1/76bg37b13ls08p1dhb9rhvd40000gn/T//cc6VEgqh.s:1542   .text.osSemaphoreRelease:0000000000000058 $d
/var/folders/n1/76bg37b13ls08p1dhb9rhvd40000gn/T//cc6VEgqh.s:1547   .text.osSemaphoreDelete:0000000000000000 $t
/var/folders/n1/76bg37b13ls08p1dhb9rhvd40000gn/T//cc6VEgqh.s:1554   .text.osSemaphoreDelete:0000000000000000 osSemaphoreDelete
/var/folders/n1/76bg37b13ls08p1dhb9rhvd40000gn/T//cc6VEgqh.s:1593   .text.osPoolCreate:0000000000000000 $t
/var/folders/n1/76bg37b13ls08p1dhb9rhvd40000gn/T//cc6VEgqh.s:1600   .text.osPoolCreate:0000000000000000 osPoolCreate
/var/folders/n1/76bg37b13ls08p1dhb9rhvd40000gn/T//cc6VEgqh.s:1727   .text.osPoolAlloc:0000000000000000 $t
/var/folders/n1/76bg37b13ls08p1dhb9rhvd40000gn/T//cc6VEgqh.s:1734   .text.osPoolAlloc:0000000000000000 osPoolAlloc
/var/folders/n1/76bg37b13ls08p1dhb9rhvd40000gn/T//cc6VEgqh.s:1899   .text.osPoolCAlloc:0000000000000000 $t
/var/folders/n1/76bg37b13ls08p1dhb9rhvd40000gn/T//cc6VEgqh.s:1906   .text.osPoolCAlloc:0000000000000000 osPoolCAlloc
/var/folders/n1/76bg37b13ls08p1dhb9rhvd40000gn/T//cc6VEgqh.s:1942   .text.osPoolFree:0000000000000000 $t
/var/folders/n1/76bg37b13ls08p1dhb9rhvd40000gn/T//cc6VEgqh.s:1949   .text.osPoolFree:0000000000000000 osPoolFree
/var/folders/n1/76bg37b13ls08p1dhb9rhvd40000gn/T//cc6VEgqh.s:2039   .text.osMessageCreate:0000000000000000 $t
/var/folders/n1/76bg37b13ls08p1dhb9rhvd40000gn/T//cc6VEgqh.s:2046   .text.osMessageCreate:0000000000000000 osMessageCreate
/var/folders/n1/76bg37b13ls08p1dhb9rhvd40000gn/T//cc6VEgqh.s:2077   .text.osMessagePut:0000000000000000 $t
/var/folders/n1/76bg37b13ls08p1dhb9rhvd40000gn/T//cc6VEgqh.s:2084   .text.osMessagePut:0000000000000000 osMessagePut
/var/folders/n1/76bg37b13ls08p1dhb9rhvd40000gn/T//cc6VEgqh.s:2196   .text.osMessagePut:0000000000000064 $d
/var/folders/n1/76bg37b13ls08p1dhb9rhvd40000gn/T//cc6VEgqh.s:2201   .text.osMessageGet:0000000000000000 $t
/var/folders/n1/76bg37b13ls08p1dhb9rhvd40000gn/T//cc6VEgqh.s:2208   .text.osMessageGet:0000000000000000 osMessageGet
/var/folders/n1/76bg37b13ls08p1dhb9rhvd40000gn/T//cc6VEgqh.s:2375   .text.osMessageGet:000000000000009c $d
/var/folders/n1/76bg37b13ls08p1dhb9rhvd40000gn/T//cc6VEgqh.s:2380   .text.osMailCreate:0000000000000000 $t
/var/folders/n1/76bg37b13ls08p1dhb9rhvd40000gn/T//cc6VEgqh.s:2387   .text.osMailCreate:0000000000000000 osMailCreate
/var/folders/n1/76bg37b13ls08p1dhb9rhvd40000gn/T//cc6VEgqh.s:2512   .text.osMailAlloc:0000000000000000 $t
/var/folders/n1/76bg37b13ls08p1dhb9rhvd40000gn/T//cc6VEgqh.s:2519   .text.osMailAlloc:0000000000000000 osMailAlloc
/var/folders/n1/76bg37b13ls08p1dhb9rhvd40000gn/T//cc6VEgqh.s:2562   .text.osMailCAlloc:0000000000000000 $t
/var/folders/n1/76bg37b13ls08p1dhb9rhvd40000gn/T//cc6VEgqh.s:2569   .text.osMailCAlloc:0000000000000000 osMailCAlloc
/var/folders/n1/76bg37b13ls08p1dhb9rhvd40000gn/T//cc6VEgqh.s:2624   .text.osMailPut:0000000000000000 $t
/var/folders/n1/76bg37b13ls08p1dhb9rhvd40000gn/T//cc6VEgqh.s:2631   .text.osMailPut:0000000000000000 osMailPut
/var/folders/n1/76bg37b13ls08p1dhb9rhvd40000gn/T//cc6VEgqh.s:2743   .text.osMailPut:0000000000000064 $d
/var/folders/n1/76bg37b13ls08p1dhb9rhvd40000gn/T//cc6VEgqh.s:2748   .text.osMailGet:0000000000000000 $t
/var/folders/n1/76bg37b13ls08p1dhb9rhvd40000gn/T//cc6VEgqh.s:2755   .text.osMailGet:0000000000000000 osMailGet
/var/folders/n1/76bg37b13ls08p1dhb9rhvd40000gn/T//cc6VEgqh.s:2918   .text.osMailGet:0000000000000098 $d
/var/folders/n1/76bg37b13ls08p1dhb9rhvd40000gn/T//cc6VEgqh.s:2923   .text.osMailFree:0000000000000000 $t
/var/folders/n1/76bg37b13ls08p1dhb9rhvd40000gn/T//cc6VEgqh.s:2930   .text.osMailFree:0000000000000000 osMailFree
/var/folders/n1/76bg37b13ls08p1dhb9rhvd40000gn/T//cc6VEgqh.s:2970   .text.osSystickHandler:0000000000000000 $t
/var/folders/n1/76bg37b13ls08p1dhb9rhvd40000gn/T//cc6VEgqh.s:2977   .text.osSystickHandler:0000000000000000 osSystickHandler
/var/folders/n1/76bg37b13ls08p1dhb9rhvd40000gn/T//cc6VEgqh.s:3008   .text.osThreadSuspend:0000000000000000 $t
/var/folders/n1/76bg37b13ls08p1dhb9rhvd40000gn/T//cc6VEgqh.s:3015   .text.osThreadSuspend:0000000000000000 osThreadSuspend
/var/folders/n1/76bg37b13ls08p1dhb9rhvd40000gn/T//cc6VEgqh.s:3039   .text.osThreadResume:0000000000000000 $t
/var/folders/n1/76bg37b13ls08p1dhb9rhvd40000gn/T//cc6VEgqh.s:3046   .text.osThreadResume:0000000000000000 osThreadResume
/var/folders/n1/76bg37b13ls08p1dhb9rhvd40000gn/T//cc6VEgqh.s:3106   .text.osThreadResume:0000000000000030 $d
/var/folders/n1/76bg37b13ls08p1dhb9rhvd40000gn/T//cc6VEgqh.s:3111   .text.osThreadSuspendAll:0000000000000000 $t
/var/folders/n1/76bg37b13ls08p1dhb9rhvd40000gn/T//cc6VEgqh.s:3118   .text.osThreadSuspendAll:0000000000000000 osThreadSuspendAll
/var/folders/n1/76bg37b13ls08p1dhb9rhvd40000gn/T//cc6VEgqh.s:3140   .text.osThreadResumeAll:0000000000000000 $t
/var/folders/n1/76bg37b13ls08p1dhb9rhvd40000gn/T//cc6VEgqh.s:3147   .text.osThreadResumeAll:0000000000000000 osThreadResumeAll
/var/folders/n1/76bg37b13ls08p1dhb9rhvd40000gn/T//cc6VEgqh.s:3178   .text.osDelayUntil:0000000000000000 $t
/var/folders/n1/76bg37b13ls08p1dhb9rhvd40000gn/T//cc6VEgqh.s:3185   .text.osDelayUntil:0000000000000000 osDelayUntil
/var/folders/n1/76bg37b13ls08p1dhb9rhvd40000gn/T//cc6VEgqh.s:3205   .text.osAbortDelay:0000000000000000 $t
/var/folders/n1/76bg37b13ls08p1dhb9rhvd40000gn/T//cc6VEgqh.s:3212   .text.osAbortDelay:0000000000000000 osAbortDelay
/var/folders/n1/76bg37b13ls08p1dhb9rhvd40000gn/T//cc6VEgqh.s:3231   .text.osThreadList:0000000000000000 $t
/var/folders/n1/76bg37b13ls08p1dhb9rhvd40000gn/T//cc6VEgqh.s:3238   .text.osThreadList:0000000000000000 osThreadList
/var/folders/n1/76bg37b13ls08p1dhb9rhvd40000gn/T//cc6VEgqh.s:3256   .text.osMessagePeek:0000000000000000 $t
/var/folders/n1/76bg37b13ls08p1dhb9rhvd40000gn/T//cc6VEgqh.s:3263   .text.osMessagePeek:0000000000000000 osMessagePeek
/var/folders/n1/76bg37b13ls08p1dhb9rhvd40000gn/T//cc6VEgqh.s:3374   .text.osMessageWaiting:0000000000000000 $t
/var/folders/n1/76bg37b13ls08p1dhb9rhvd40000gn/T//cc6VEgqh.s:3381   .text.osMessageWaiting:0000000000000000 osMessageWaiting
/var/folders/n1/76bg37b13ls08p1dhb9rhvd40000gn/T//cc6VEgqh.s:3421   .text.osMessageAvailableSpace:0000000000000000 $t
ARM GAS  /var/folders/n1/76bg37b13ls08p1dhb9rhvd40000gn/T//cc6VEgqh.s 			page 106


/var/folders/n1/76bg37b13ls08p1dhb9rhvd40000gn/T//cc6VEgqh.s:3428   .text.osMessageAvailableSpace:0000000000000000 osMessageAvailableSpace
/var/folders/n1/76bg37b13ls08p1dhb9rhvd40000gn/T//cc6VEgqh.s:3451   .text.osMessageDelete:0000000000000000 $t
/var/folders/n1/76bg37b13ls08p1dhb9rhvd40000gn/T//cc6VEgqh.s:3458   .text.osMessageDelete:0000000000000000 osMessageDelete
/var/folders/n1/76bg37b13ls08p1dhb9rhvd40000gn/T//cc6VEgqh.s:3497   .text.osRecursiveMutexCreate:0000000000000000 $t
/var/folders/n1/76bg37b13ls08p1dhb9rhvd40000gn/T//cc6VEgqh.s:3504   .text.osRecursiveMutexCreate:0000000000000000 osRecursiveMutexCreate
/var/folders/n1/76bg37b13ls08p1dhb9rhvd40000gn/T//cc6VEgqh.s:3522   .text.osRecursiveMutexRelease:0000000000000000 $t
/var/folders/n1/76bg37b13ls08p1dhb9rhvd40000gn/T//cc6VEgqh.s:3529   .text.osRecursiveMutexRelease:0000000000000000 osRecursiveMutexRelease
/var/folders/n1/76bg37b13ls08p1dhb9rhvd40000gn/T//cc6VEgqh.s:3547   .text.osRecursiveMutexWait:0000000000000000 $t
/var/folders/n1/76bg37b13ls08p1dhb9rhvd40000gn/T//cc6VEgqh.s:3554   .text.osRecursiveMutexWait:0000000000000000 osRecursiveMutexWait
/var/folders/n1/76bg37b13ls08p1dhb9rhvd40000gn/T//cc6VEgqh.s:3572   .text.osSemaphoreGetCount:0000000000000000 $t
/var/folders/n1/76bg37b13ls08p1dhb9rhvd40000gn/T//cc6VEgqh.s:3579   .text.osSemaphoreGetCount:0000000000000000 osSemaphoreGetCount

UNDEFINED SYMBOLS
vTaskStartScheduler
xTaskGetSchedulerState
xTaskGetTickCountFromISR
xTaskGetTickCount
xTaskCreate
xTaskGetCurrentTaskHandle
vTaskDelete
vTaskPrioritySet
uxTaskPriorityGetFromISR
uxTaskPriorityGet
vTaskDelay
xTaskGenericNotifyFromISR
xTaskGenericNotify
xTaskNotifyWait
xQueueCreateMutex
xQueueReceiveFromISR
xQueueGenericReceive
xQueueGiveFromISR
xQueueGenericSend
vQueueDelete
xQueueGenericCreate
pvPortMalloc
vPortFree
vPortEnterCritical
vPortExitCritical
xQueueGenericSendFromISR
xPortSysTickHandler
vTaskSuspend
xTaskResumeFromISR
vTaskResume
vTaskSuspendAll
xTaskResumeAll
uxQueueMessagesWaitingFromISR
uxQueueMessagesWaiting
uxQueueSpacesAvailable
