ARM GAS  /var/folders/n1/76bg37b13ls08p1dhb9rhvd40000gn/T//ccOlpsUK.s 			page 1


   1              		.cpu cortex-m4
   2              		.eabi_attribute 27, 1
   3              		.eabi_attribute 28, 1
   4              		.eabi_attribute 20, 1
   5              		.eabi_attribute 21, 1
   6              		.eabi_attribute 23, 3
   7              		.eabi_attribute 24, 1
   8              		.eabi_attribute 25, 1
   9              		.eabi_attribute 26, 1
  10              		.eabi_attribute 30, 1
  11              		.eabi_attribute 34, 1
  12              		.eabi_attribute 18, 4
  13              		.file	"event_groups.c"
  14              		.text
  15              	.Ltext0:
  16              		.cfi_sections	.debug_frame
  17              		.section	.text.prvTestWaitCondition,"ax",%progbits
  18              		.align	1
  19              		.arch armv7e-m
  20              		.syntax unified
  21              		.thumb
  22              		.thumb_func
  23              		.fpu fpv4-sp-d16
  25              	prvTestWaitCondition:
  26              	.LVL0:
  27              	.LFB14:
  28              		.file 1 "Middlewares/Third_Party/FreeRTOS/Source/event_groups.c"
   1:Middlewares/Third_Party/FreeRTOS/Source/event_groups.c **** /*
   2:Middlewares/Third_Party/FreeRTOS/Source/event_groups.c ****     FreeRTOS V9.0.0 - Copyright (C) 2016 Real Time Engineers Ltd.
   3:Middlewares/Third_Party/FreeRTOS/Source/event_groups.c ****     All rights reserved
   4:Middlewares/Third_Party/FreeRTOS/Source/event_groups.c **** 
   5:Middlewares/Third_Party/FreeRTOS/Source/event_groups.c ****     VISIT http://www.FreeRTOS.org TO ENSURE YOU ARE USING THE LATEST VERSION.
   6:Middlewares/Third_Party/FreeRTOS/Source/event_groups.c **** 
   7:Middlewares/Third_Party/FreeRTOS/Source/event_groups.c ****     This file is part of the FreeRTOS distribution.
   8:Middlewares/Third_Party/FreeRTOS/Source/event_groups.c **** 
   9:Middlewares/Third_Party/FreeRTOS/Source/event_groups.c ****     FreeRTOS is free software; you can redistribute it and/or modify it under
  10:Middlewares/Third_Party/FreeRTOS/Source/event_groups.c ****     the terms of the GNU General Public License (version 2) as published by the
  11:Middlewares/Third_Party/FreeRTOS/Source/event_groups.c ****     Free Software Foundation >>>> AND MODIFIED BY <<<< the FreeRTOS exception.
  12:Middlewares/Third_Party/FreeRTOS/Source/event_groups.c **** 
  13:Middlewares/Third_Party/FreeRTOS/Source/event_groups.c ****     ***************************************************************************
  14:Middlewares/Third_Party/FreeRTOS/Source/event_groups.c ****     >>!   NOTE: The modification to the GPL is included to allow you to     !<<
  15:Middlewares/Third_Party/FreeRTOS/Source/event_groups.c ****     >>!   distribute a combined work that includes FreeRTOS without being   !<<
  16:Middlewares/Third_Party/FreeRTOS/Source/event_groups.c ****     >>!   obliged to provide the source code for proprietary components     !<<
  17:Middlewares/Third_Party/FreeRTOS/Source/event_groups.c ****     >>!   outside of the FreeRTOS kernel.                                   !<<
  18:Middlewares/Third_Party/FreeRTOS/Source/event_groups.c ****     ***************************************************************************
  19:Middlewares/Third_Party/FreeRTOS/Source/event_groups.c **** 
  20:Middlewares/Third_Party/FreeRTOS/Source/event_groups.c ****     FreeRTOS is distributed in the hope that it will be useful, but WITHOUT ANY
  21:Middlewares/Third_Party/FreeRTOS/Source/event_groups.c ****     WARRANTY; without even the implied warranty of MERCHANTABILITY or FITNESS
  22:Middlewares/Third_Party/FreeRTOS/Source/event_groups.c ****     FOR A PARTICULAR PURPOSE.  Full license text is available on the following
  23:Middlewares/Third_Party/FreeRTOS/Source/event_groups.c ****     link: http://www.freertos.org/a00114.html
  24:Middlewares/Third_Party/FreeRTOS/Source/event_groups.c **** 
  25:Middlewares/Third_Party/FreeRTOS/Source/event_groups.c ****     ***************************************************************************
  26:Middlewares/Third_Party/FreeRTOS/Source/event_groups.c ****      *                                                                       *
  27:Middlewares/Third_Party/FreeRTOS/Source/event_groups.c ****      *    FreeRTOS provides completely free yet professionally developed,    *
  28:Middlewares/Third_Party/FreeRTOS/Source/event_groups.c ****      *    robust, strictly quality controlled, supported, and cross          *
  29:Middlewares/Third_Party/FreeRTOS/Source/event_groups.c ****      *    platform software that is more than just the market leader, it     *
  30:Middlewares/Third_Party/FreeRTOS/Source/event_groups.c ****      *    is the industry's de facto standard.                               *
ARM GAS  /var/folders/n1/76bg37b13ls08p1dhb9rhvd40000gn/T//ccOlpsUK.s 			page 2


  31:Middlewares/Third_Party/FreeRTOS/Source/event_groups.c ****      *                                                                       *
  32:Middlewares/Third_Party/FreeRTOS/Source/event_groups.c ****      *    Help yourself get started quickly while simultaneously helping     *
  33:Middlewares/Third_Party/FreeRTOS/Source/event_groups.c ****      *    to support the FreeRTOS project by purchasing a FreeRTOS           *
  34:Middlewares/Third_Party/FreeRTOS/Source/event_groups.c ****      *    tutorial book, reference manual, or both:                          *
  35:Middlewares/Third_Party/FreeRTOS/Source/event_groups.c ****      *    http://www.FreeRTOS.org/Documentation                              *
  36:Middlewares/Third_Party/FreeRTOS/Source/event_groups.c ****      *                                                                       *
  37:Middlewares/Third_Party/FreeRTOS/Source/event_groups.c ****     ***************************************************************************
  38:Middlewares/Third_Party/FreeRTOS/Source/event_groups.c **** 
  39:Middlewares/Third_Party/FreeRTOS/Source/event_groups.c ****     http://www.FreeRTOS.org/FAQHelp.html - Having a problem?  Start by reading
  40:Middlewares/Third_Party/FreeRTOS/Source/event_groups.c ****     the FAQ page "My application does not run, what could be wrong?".  Have you
  41:Middlewares/Third_Party/FreeRTOS/Source/event_groups.c ****     defined configASSERT()?
  42:Middlewares/Third_Party/FreeRTOS/Source/event_groups.c **** 
  43:Middlewares/Third_Party/FreeRTOS/Source/event_groups.c ****     http://www.FreeRTOS.org/support - In return for receiving this top quality
  44:Middlewares/Third_Party/FreeRTOS/Source/event_groups.c ****     embedded software for free we request you assist our global community by
  45:Middlewares/Third_Party/FreeRTOS/Source/event_groups.c ****     participating in the support forum.
  46:Middlewares/Third_Party/FreeRTOS/Source/event_groups.c **** 
  47:Middlewares/Third_Party/FreeRTOS/Source/event_groups.c ****     http://www.FreeRTOS.org/training - Investing in training allows your team to
  48:Middlewares/Third_Party/FreeRTOS/Source/event_groups.c ****     be as productive as possible as early as possible.  Now you can receive
  49:Middlewares/Third_Party/FreeRTOS/Source/event_groups.c ****     FreeRTOS training directly from Richard Barry, CEO of Real Time Engineers
  50:Middlewares/Third_Party/FreeRTOS/Source/event_groups.c ****     Ltd, and the world's leading authority on the world's leading RTOS.
  51:Middlewares/Third_Party/FreeRTOS/Source/event_groups.c **** 
  52:Middlewares/Third_Party/FreeRTOS/Source/event_groups.c ****     http://www.FreeRTOS.org/plus - A selection of FreeRTOS ecosystem products,
  53:Middlewares/Third_Party/FreeRTOS/Source/event_groups.c ****     including FreeRTOS+Trace - an indispensable productivity tool, a DOS
  54:Middlewares/Third_Party/FreeRTOS/Source/event_groups.c ****     compatible FAT file system, and our tiny thread aware UDP/IP stack.
  55:Middlewares/Third_Party/FreeRTOS/Source/event_groups.c **** 
  56:Middlewares/Third_Party/FreeRTOS/Source/event_groups.c ****     http://www.FreeRTOS.org/labs - Where new FreeRTOS products go to incubate.
  57:Middlewares/Third_Party/FreeRTOS/Source/event_groups.c ****     Come and try FreeRTOS+TCP, our new open source TCP/IP stack for FreeRTOS.
  58:Middlewares/Third_Party/FreeRTOS/Source/event_groups.c **** 
  59:Middlewares/Third_Party/FreeRTOS/Source/event_groups.c ****     http://www.OpenRTOS.com - Real Time Engineers ltd. license FreeRTOS to High
  60:Middlewares/Third_Party/FreeRTOS/Source/event_groups.c ****     Integrity Systems ltd. to sell under the OpenRTOS brand.  Low cost OpenRTOS
  61:Middlewares/Third_Party/FreeRTOS/Source/event_groups.c ****     licenses offer ticketed support, indemnification and commercial middleware.
  62:Middlewares/Third_Party/FreeRTOS/Source/event_groups.c **** 
  63:Middlewares/Third_Party/FreeRTOS/Source/event_groups.c ****     http://www.SafeRTOS.com - High Integrity Systems also provide a safety
  64:Middlewares/Third_Party/FreeRTOS/Source/event_groups.c ****     engineered and independently SIL3 certified version for use in safety and
  65:Middlewares/Third_Party/FreeRTOS/Source/event_groups.c ****     mission critical applications that require provable dependability.
  66:Middlewares/Third_Party/FreeRTOS/Source/event_groups.c **** 
  67:Middlewares/Third_Party/FreeRTOS/Source/event_groups.c ****     1 tab == 4 spaces!
  68:Middlewares/Third_Party/FreeRTOS/Source/event_groups.c **** */
  69:Middlewares/Third_Party/FreeRTOS/Source/event_groups.c **** 
  70:Middlewares/Third_Party/FreeRTOS/Source/event_groups.c **** /* Standard includes. */
  71:Middlewares/Third_Party/FreeRTOS/Source/event_groups.c **** #include <stdlib.h>
  72:Middlewares/Third_Party/FreeRTOS/Source/event_groups.c **** 
  73:Middlewares/Third_Party/FreeRTOS/Source/event_groups.c **** /* Defining MPU_WRAPPERS_INCLUDED_FROM_API_FILE prevents task.h from redefining
  74:Middlewares/Third_Party/FreeRTOS/Source/event_groups.c **** all the API functions to use the MPU wrappers.  That should only be done when
  75:Middlewares/Third_Party/FreeRTOS/Source/event_groups.c **** task.h is included from an application file. */
  76:Middlewares/Third_Party/FreeRTOS/Source/event_groups.c **** #define MPU_WRAPPERS_INCLUDED_FROM_API_FILE
  77:Middlewares/Third_Party/FreeRTOS/Source/event_groups.c **** 
  78:Middlewares/Third_Party/FreeRTOS/Source/event_groups.c **** /* FreeRTOS includes. */
  79:Middlewares/Third_Party/FreeRTOS/Source/event_groups.c **** #include "FreeRTOS.h"
  80:Middlewares/Third_Party/FreeRTOS/Source/event_groups.c **** #include "task.h"
  81:Middlewares/Third_Party/FreeRTOS/Source/event_groups.c **** #include "timers.h"
  82:Middlewares/Third_Party/FreeRTOS/Source/event_groups.c **** #include "event_groups.h"
  83:Middlewares/Third_Party/FreeRTOS/Source/event_groups.c **** 
  84:Middlewares/Third_Party/FreeRTOS/Source/event_groups.c **** /* Lint e961 and e750 are suppressed as a MISRA exception justified because the
  85:Middlewares/Third_Party/FreeRTOS/Source/event_groups.c **** MPU ports require MPU_WRAPPERS_INCLUDED_FROM_API_FILE to be defined for the
  86:Middlewares/Third_Party/FreeRTOS/Source/event_groups.c **** header files above, but not in this file, in order to generate the correct
  87:Middlewares/Third_Party/FreeRTOS/Source/event_groups.c **** privileged Vs unprivileged linkage and placement. */
ARM GAS  /var/folders/n1/76bg37b13ls08p1dhb9rhvd40000gn/T//ccOlpsUK.s 			page 3


  88:Middlewares/Third_Party/FreeRTOS/Source/event_groups.c **** #undef MPU_WRAPPERS_INCLUDED_FROM_API_FILE /*lint !e961 !e750. */
  89:Middlewares/Third_Party/FreeRTOS/Source/event_groups.c **** 
  90:Middlewares/Third_Party/FreeRTOS/Source/event_groups.c **** /* The following bit fields convey control information in a task's event list
  91:Middlewares/Third_Party/FreeRTOS/Source/event_groups.c **** item value.  It is important they don't clash with the
  92:Middlewares/Third_Party/FreeRTOS/Source/event_groups.c **** taskEVENT_LIST_ITEM_VALUE_IN_USE definition. */
  93:Middlewares/Third_Party/FreeRTOS/Source/event_groups.c **** #if configUSE_16_BIT_TICKS == 1
  94:Middlewares/Third_Party/FreeRTOS/Source/event_groups.c **** 	#define eventCLEAR_EVENTS_ON_EXIT_BIT	0x0100U
  95:Middlewares/Third_Party/FreeRTOS/Source/event_groups.c **** 	#define eventUNBLOCKED_DUE_TO_BIT_SET	0x0200U
  96:Middlewares/Third_Party/FreeRTOS/Source/event_groups.c **** 	#define eventWAIT_FOR_ALL_BITS			0x0400U
  97:Middlewares/Third_Party/FreeRTOS/Source/event_groups.c **** 	#define eventEVENT_BITS_CONTROL_BYTES	0xff00U
  98:Middlewares/Third_Party/FreeRTOS/Source/event_groups.c **** #else
  99:Middlewares/Third_Party/FreeRTOS/Source/event_groups.c **** 	#define eventCLEAR_EVENTS_ON_EXIT_BIT	0x01000000UL
 100:Middlewares/Third_Party/FreeRTOS/Source/event_groups.c **** 	#define eventUNBLOCKED_DUE_TO_BIT_SET	0x02000000UL
 101:Middlewares/Third_Party/FreeRTOS/Source/event_groups.c **** 	#define eventWAIT_FOR_ALL_BITS			0x04000000UL
 102:Middlewares/Third_Party/FreeRTOS/Source/event_groups.c **** 	#define eventEVENT_BITS_CONTROL_BYTES	0xff000000UL
 103:Middlewares/Third_Party/FreeRTOS/Source/event_groups.c **** #endif
 104:Middlewares/Third_Party/FreeRTOS/Source/event_groups.c **** 
 105:Middlewares/Third_Party/FreeRTOS/Source/event_groups.c **** typedef struct xEventGroupDefinition
 106:Middlewares/Third_Party/FreeRTOS/Source/event_groups.c **** {
 107:Middlewares/Third_Party/FreeRTOS/Source/event_groups.c **** 	EventBits_t uxEventBits;
 108:Middlewares/Third_Party/FreeRTOS/Source/event_groups.c **** 	List_t xTasksWaitingForBits;		/*< List of tasks waiting for a bit to be set. */
 109:Middlewares/Third_Party/FreeRTOS/Source/event_groups.c **** 
 110:Middlewares/Third_Party/FreeRTOS/Source/event_groups.c **** 	#if( configUSE_TRACE_FACILITY == 1 )
 111:Middlewares/Third_Party/FreeRTOS/Source/event_groups.c **** 		UBaseType_t uxEventGroupNumber;
 112:Middlewares/Third_Party/FreeRTOS/Source/event_groups.c **** 	#endif
 113:Middlewares/Third_Party/FreeRTOS/Source/event_groups.c **** 
 114:Middlewares/Third_Party/FreeRTOS/Source/event_groups.c **** 	#if( ( configSUPPORT_STATIC_ALLOCATION == 1 ) && ( configSUPPORT_DYNAMIC_ALLOCATION == 1 ) )
 115:Middlewares/Third_Party/FreeRTOS/Source/event_groups.c **** 		uint8_t ucStaticallyAllocated; /*< Set to pdTRUE if the event group is statically allocated to en
 116:Middlewares/Third_Party/FreeRTOS/Source/event_groups.c **** 	#endif
 117:Middlewares/Third_Party/FreeRTOS/Source/event_groups.c **** } EventGroup_t;
 118:Middlewares/Third_Party/FreeRTOS/Source/event_groups.c **** 
 119:Middlewares/Third_Party/FreeRTOS/Source/event_groups.c **** /*-----------------------------------------------------------*/
 120:Middlewares/Third_Party/FreeRTOS/Source/event_groups.c **** 
 121:Middlewares/Third_Party/FreeRTOS/Source/event_groups.c **** /*
 122:Middlewares/Third_Party/FreeRTOS/Source/event_groups.c ****  * Test the bits set in uxCurrentEventBits to see if the wait condition is met.
 123:Middlewares/Third_Party/FreeRTOS/Source/event_groups.c ****  * The wait condition is defined by xWaitForAllBits.  If xWaitForAllBits is
 124:Middlewares/Third_Party/FreeRTOS/Source/event_groups.c ****  * pdTRUE then the wait condition is met if all the bits set in uxBitsToWaitFor
 125:Middlewares/Third_Party/FreeRTOS/Source/event_groups.c ****  * are also set in uxCurrentEventBits.  If xWaitForAllBits is pdFALSE then the
 126:Middlewares/Third_Party/FreeRTOS/Source/event_groups.c ****  * wait condition is met if any of the bits set in uxBitsToWait for are also set
 127:Middlewares/Third_Party/FreeRTOS/Source/event_groups.c ****  * in uxCurrentEventBits.
 128:Middlewares/Third_Party/FreeRTOS/Source/event_groups.c ****  */
 129:Middlewares/Third_Party/FreeRTOS/Source/event_groups.c **** PRIVILEGED_FUNCTION static BaseType_t prvTestWaitCondition( const EventBits_t uxCurrentEventBits, c
 130:Middlewares/Third_Party/FreeRTOS/Source/event_groups.c **** 
 131:Middlewares/Third_Party/FreeRTOS/Source/event_groups.c **** /*-----------------------------------------------------------*/
 132:Middlewares/Third_Party/FreeRTOS/Source/event_groups.c **** 
 133:Middlewares/Third_Party/FreeRTOS/Source/event_groups.c **** #if( configSUPPORT_STATIC_ALLOCATION == 1 )
 134:Middlewares/Third_Party/FreeRTOS/Source/event_groups.c **** 
 135:Middlewares/Third_Party/FreeRTOS/Source/event_groups.c **** 	EventGroupHandle_t xEventGroupCreateStatic( StaticEventGroup_t *pxEventGroupBuffer )
 136:Middlewares/Third_Party/FreeRTOS/Source/event_groups.c **** 	{
 137:Middlewares/Third_Party/FreeRTOS/Source/event_groups.c **** 	EventGroup_t *pxEventBits;
 138:Middlewares/Third_Party/FreeRTOS/Source/event_groups.c **** 
 139:Middlewares/Third_Party/FreeRTOS/Source/event_groups.c **** 		/* A StaticEventGroup_t object must be provided. */
 140:Middlewares/Third_Party/FreeRTOS/Source/event_groups.c **** 		configASSERT( pxEventGroupBuffer );
 141:Middlewares/Third_Party/FreeRTOS/Source/event_groups.c **** 
 142:Middlewares/Third_Party/FreeRTOS/Source/event_groups.c **** 		/* The user has provided a statically allocated event group - use it. */
 143:Middlewares/Third_Party/FreeRTOS/Source/event_groups.c **** 		pxEventBits = ( EventGroup_t * ) pxEventGroupBuffer; /*lint !e740 EventGroup_t and StaticEventGro
 144:Middlewares/Third_Party/FreeRTOS/Source/event_groups.c **** 
ARM GAS  /var/folders/n1/76bg37b13ls08p1dhb9rhvd40000gn/T//ccOlpsUK.s 			page 4


 145:Middlewares/Third_Party/FreeRTOS/Source/event_groups.c **** 		if( pxEventBits != NULL )
 146:Middlewares/Third_Party/FreeRTOS/Source/event_groups.c **** 		{
 147:Middlewares/Third_Party/FreeRTOS/Source/event_groups.c **** 			pxEventBits->uxEventBits = 0;
 148:Middlewares/Third_Party/FreeRTOS/Source/event_groups.c **** 			vListInitialise( &( pxEventBits->xTasksWaitingForBits ) );
 149:Middlewares/Third_Party/FreeRTOS/Source/event_groups.c **** 
 150:Middlewares/Third_Party/FreeRTOS/Source/event_groups.c **** 			#if( configSUPPORT_DYNAMIC_ALLOCATION == 1 )
 151:Middlewares/Third_Party/FreeRTOS/Source/event_groups.c **** 			{
 152:Middlewares/Third_Party/FreeRTOS/Source/event_groups.c **** 				/* Both static and dynamic allocation can be used, so note that
 153:Middlewares/Third_Party/FreeRTOS/Source/event_groups.c **** 				this event group was created statically in case the event group
 154:Middlewares/Third_Party/FreeRTOS/Source/event_groups.c **** 				is later deleted. */
 155:Middlewares/Third_Party/FreeRTOS/Source/event_groups.c **** 				pxEventBits->ucStaticallyAllocated = pdTRUE;
 156:Middlewares/Third_Party/FreeRTOS/Source/event_groups.c **** 			}
 157:Middlewares/Third_Party/FreeRTOS/Source/event_groups.c **** 			#endif /* configSUPPORT_DYNAMIC_ALLOCATION */
 158:Middlewares/Third_Party/FreeRTOS/Source/event_groups.c **** 
 159:Middlewares/Third_Party/FreeRTOS/Source/event_groups.c **** 			traceEVENT_GROUP_CREATE( pxEventBits );
 160:Middlewares/Third_Party/FreeRTOS/Source/event_groups.c **** 		}
 161:Middlewares/Third_Party/FreeRTOS/Source/event_groups.c **** 		else
 162:Middlewares/Third_Party/FreeRTOS/Source/event_groups.c **** 		{
 163:Middlewares/Third_Party/FreeRTOS/Source/event_groups.c **** 			traceEVENT_GROUP_CREATE_FAILED();
 164:Middlewares/Third_Party/FreeRTOS/Source/event_groups.c **** 		}
 165:Middlewares/Third_Party/FreeRTOS/Source/event_groups.c **** 
 166:Middlewares/Third_Party/FreeRTOS/Source/event_groups.c **** 		return ( EventGroupHandle_t ) pxEventBits;
 167:Middlewares/Third_Party/FreeRTOS/Source/event_groups.c **** 	}
 168:Middlewares/Third_Party/FreeRTOS/Source/event_groups.c **** 
 169:Middlewares/Third_Party/FreeRTOS/Source/event_groups.c **** #endif /* configSUPPORT_STATIC_ALLOCATION */
 170:Middlewares/Third_Party/FreeRTOS/Source/event_groups.c **** /*-----------------------------------------------------------*/
 171:Middlewares/Third_Party/FreeRTOS/Source/event_groups.c **** 
 172:Middlewares/Third_Party/FreeRTOS/Source/event_groups.c **** #if( configSUPPORT_DYNAMIC_ALLOCATION == 1 )
 173:Middlewares/Third_Party/FreeRTOS/Source/event_groups.c **** 
 174:Middlewares/Third_Party/FreeRTOS/Source/event_groups.c **** 	EventGroupHandle_t xEventGroupCreate( void )
 175:Middlewares/Third_Party/FreeRTOS/Source/event_groups.c **** 	{
 176:Middlewares/Third_Party/FreeRTOS/Source/event_groups.c **** 	EventGroup_t *pxEventBits;
 177:Middlewares/Third_Party/FreeRTOS/Source/event_groups.c **** 
 178:Middlewares/Third_Party/FreeRTOS/Source/event_groups.c **** 		/* Allocate the event group. */
 179:Middlewares/Third_Party/FreeRTOS/Source/event_groups.c **** 		pxEventBits = ( EventGroup_t * ) pvPortMalloc( sizeof( EventGroup_t ) );
 180:Middlewares/Third_Party/FreeRTOS/Source/event_groups.c **** 
 181:Middlewares/Third_Party/FreeRTOS/Source/event_groups.c **** 		if( pxEventBits != NULL )
 182:Middlewares/Third_Party/FreeRTOS/Source/event_groups.c **** 		{
 183:Middlewares/Third_Party/FreeRTOS/Source/event_groups.c **** 			pxEventBits->uxEventBits = 0;
 184:Middlewares/Third_Party/FreeRTOS/Source/event_groups.c **** 			vListInitialise( &( pxEventBits->xTasksWaitingForBits ) );
 185:Middlewares/Third_Party/FreeRTOS/Source/event_groups.c **** 
 186:Middlewares/Third_Party/FreeRTOS/Source/event_groups.c **** 			#if( configSUPPORT_STATIC_ALLOCATION == 1 )
 187:Middlewares/Third_Party/FreeRTOS/Source/event_groups.c **** 			{
 188:Middlewares/Third_Party/FreeRTOS/Source/event_groups.c **** 				/* Both static and dynamic allocation can be used, so note this
 189:Middlewares/Third_Party/FreeRTOS/Source/event_groups.c **** 				event group was allocated statically in case the event group is
 190:Middlewares/Third_Party/FreeRTOS/Source/event_groups.c **** 				later deleted. */
 191:Middlewares/Third_Party/FreeRTOS/Source/event_groups.c **** 				pxEventBits->ucStaticallyAllocated = pdFALSE;
 192:Middlewares/Third_Party/FreeRTOS/Source/event_groups.c **** 			}
 193:Middlewares/Third_Party/FreeRTOS/Source/event_groups.c **** 			#endif /* configSUPPORT_STATIC_ALLOCATION */
 194:Middlewares/Third_Party/FreeRTOS/Source/event_groups.c **** 
 195:Middlewares/Third_Party/FreeRTOS/Source/event_groups.c **** 			traceEVENT_GROUP_CREATE( pxEventBits );
 196:Middlewares/Third_Party/FreeRTOS/Source/event_groups.c **** 		}
 197:Middlewares/Third_Party/FreeRTOS/Source/event_groups.c **** 		else
 198:Middlewares/Third_Party/FreeRTOS/Source/event_groups.c **** 		{
 199:Middlewares/Third_Party/FreeRTOS/Source/event_groups.c **** 			traceEVENT_GROUP_CREATE_FAILED();
 200:Middlewares/Third_Party/FreeRTOS/Source/event_groups.c **** 		}
 201:Middlewares/Third_Party/FreeRTOS/Source/event_groups.c **** 
ARM GAS  /var/folders/n1/76bg37b13ls08p1dhb9rhvd40000gn/T//ccOlpsUK.s 			page 5


 202:Middlewares/Third_Party/FreeRTOS/Source/event_groups.c **** 		return ( EventGroupHandle_t ) pxEventBits;
 203:Middlewares/Third_Party/FreeRTOS/Source/event_groups.c **** 	}
 204:Middlewares/Third_Party/FreeRTOS/Source/event_groups.c **** 
 205:Middlewares/Third_Party/FreeRTOS/Source/event_groups.c **** #endif /* configSUPPORT_DYNAMIC_ALLOCATION */
 206:Middlewares/Third_Party/FreeRTOS/Source/event_groups.c **** /*-----------------------------------------------------------*/
 207:Middlewares/Third_Party/FreeRTOS/Source/event_groups.c **** 
 208:Middlewares/Third_Party/FreeRTOS/Source/event_groups.c **** EventBits_t xEventGroupSync( EventGroupHandle_t xEventGroup, const EventBits_t uxBitsToSet, const E
 209:Middlewares/Third_Party/FreeRTOS/Source/event_groups.c **** {
 210:Middlewares/Third_Party/FreeRTOS/Source/event_groups.c **** EventBits_t uxOriginalBitValue, uxReturn;
 211:Middlewares/Third_Party/FreeRTOS/Source/event_groups.c **** EventGroup_t *pxEventBits = ( EventGroup_t * ) xEventGroup;
 212:Middlewares/Third_Party/FreeRTOS/Source/event_groups.c **** BaseType_t xAlreadyYielded;
 213:Middlewares/Third_Party/FreeRTOS/Source/event_groups.c **** BaseType_t xTimeoutOccurred = pdFALSE;
 214:Middlewares/Third_Party/FreeRTOS/Source/event_groups.c **** 
 215:Middlewares/Third_Party/FreeRTOS/Source/event_groups.c **** 	configASSERT( ( uxBitsToWaitFor & eventEVENT_BITS_CONTROL_BYTES ) == 0 );
 216:Middlewares/Third_Party/FreeRTOS/Source/event_groups.c **** 	configASSERT( uxBitsToWaitFor != 0 );
 217:Middlewares/Third_Party/FreeRTOS/Source/event_groups.c **** 	#if ( ( INCLUDE_xTaskGetSchedulerState == 1 ) || ( configUSE_TIMERS == 1 ) )
 218:Middlewares/Third_Party/FreeRTOS/Source/event_groups.c **** 	{
 219:Middlewares/Third_Party/FreeRTOS/Source/event_groups.c **** 		configASSERT( !( ( xTaskGetSchedulerState() == taskSCHEDULER_SUSPENDED ) && ( xTicksToWait != 0 )
 220:Middlewares/Third_Party/FreeRTOS/Source/event_groups.c **** 	}
 221:Middlewares/Third_Party/FreeRTOS/Source/event_groups.c **** 	#endif
 222:Middlewares/Third_Party/FreeRTOS/Source/event_groups.c **** 
 223:Middlewares/Third_Party/FreeRTOS/Source/event_groups.c **** 	vTaskSuspendAll();
 224:Middlewares/Third_Party/FreeRTOS/Source/event_groups.c **** 	{
 225:Middlewares/Third_Party/FreeRTOS/Source/event_groups.c **** 		uxOriginalBitValue = pxEventBits->uxEventBits;
 226:Middlewares/Third_Party/FreeRTOS/Source/event_groups.c **** 
 227:Middlewares/Third_Party/FreeRTOS/Source/event_groups.c **** 		( void ) xEventGroupSetBits( xEventGroup, uxBitsToSet );
 228:Middlewares/Third_Party/FreeRTOS/Source/event_groups.c **** 
 229:Middlewares/Third_Party/FreeRTOS/Source/event_groups.c **** 		if( ( ( uxOriginalBitValue | uxBitsToSet ) & uxBitsToWaitFor ) == uxBitsToWaitFor )
 230:Middlewares/Third_Party/FreeRTOS/Source/event_groups.c **** 		{
 231:Middlewares/Third_Party/FreeRTOS/Source/event_groups.c **** 			/* All the rendezvous bits are now set - no need to block. */
 232:Middlewares/Third_Party/FreeRTOS/Source/event_groups.c **** 			uxReturn = ( uxOriginalBitValue | uxBitsToSet );
 233:Middlewares/Third_Party/FreeRTOS/Source/event_groups.c **** 
 234:Middlewares/Third_Party/FreeRTOS/Source/event_groups.c **** 			/* Rendezvous always clear the bits.  They will have been cleared
 235:Middlewares/Third_Party/FreeRTOS/Source/event_groups.c **** 			already unless this is the only task in the rendezvous. */
 236:Middlewares/Third_Party/FreeRTOS/Source/event_groups.c **** 			pxEventBits->uxEventBits &= ~uxBitsToWaitFor;
 237:Middlewares/Third_Party/FreeRTOS/Source/event_groups.c **** 
 238:Middlewares/Third_Party/FreeRTOS/Source/event_groups.c **** 			xTicksToWait = 0;
 239:Middlewares/Third_Party/FreeRTOS/Source/event_groups.c **** 		}
 240:Middlewares/Third_Party/FreeRTOS/Source/event_groups.c **** 		else
 241:Middlewares/Third_Party/FreeRTOS/Source/event_groups.c **** 		{
 242:Middlewares/Third_Party/FreeRTOS/Source/event_groups.c **** 			if( xTicksToWait != ( TickType_t ) 0 )
 243:Middlewares/Third_Party/FreeRTOS/Source/event_groups.c **** 			{
 244:Middlewares/Third_Party/FreeRTOS/Source/event_groups.c **** 				traceEVENT_GROUP_SYNC_BLOCK( xEventGroup, uxBitsToSet, uxBitsToWaitFor );
 245:Middlewares/Third_Party/FreeRTOS/Source/event_groups.c **** 
 246:Middlewares/Third_Party/FreeRTOS/Source/event_groups.c **** 				/* Store the bits that the calling task is waiting for in the
 247:Middlewares/Third_Party/FreeRTOS/Source/event_groups.c **** 				task's event list item so the kernel knows when a match is
 248:Middlewares/Third_Party/FreeRTOS/Source/event_groups.c **** 				found.  Then enter the blocked state. */
 249:Middlewares/Third_Party/FreeRTOS/Source/event_groups.c **** 				vTaskPlaceOnUnorderedEventList( &( pxEventBits->xTasksWaitingForBits ), ( uxBitsToWaitFor | eve
 250:Middlewares/Third_Party/FreeRTOS/Source/event_groups.c **** 
 251:Middlewares/Third_Party/FreeRTOS/Source/event_groups.c **** 				/* This assignment is obsolete as uxReturn will get set after
 252:Middlewares/Third_Party/FreeRTOS/Source/event_groups.c **** 				the task unblocks, but some compilers mistakenly generate a
 253:Middlewares/Third_Party/FreeRTOS/Source/event_groups.c **** 				warning about uxReturn being returned without being set if the
 254:Middlewares/Third_Party/FreeRTOS/Source/event_groups.c **** 				assignment is omitted. */
 255:Middlewares/Third_Party/FreeRTOS/Source/event_groups.c **** 				uxReturn = 0;
 256:Middlewares/Third_Party/FreeRTOS/Source/event_groups.c **** 			}
 257:Middlewares/Third_Party/FreeRTOS/Source/event_groups.c **** 			else
 258:Middlewares/Third_Party/FreeRTOS/Source/event_groups.c **** 			{
ARM GAS  /var/folders/n1/76bg37b13ls08p1dhb9rhvd40000gn/T//ccOlpsUK.s 			page 6


 259:Middlewares/Third_Party/FreeRTOS/Source/event_groups.c **** 				/* The rendezvous bits were not set, but no block time was
 260:Middlewares/Third_Party/FreeRTOS/Source/event_groups.c **** 				specified - just return the current event bit value. */
 261:Middlewares/Third_Party/FreeRTOS/Source/event_groups.c **** 				uxReturn = pxEventBits->uxEventBits;
 262:Middlewares/Third_Party/FreeRTOS/Source/event_groups.c **** 			}
 263:Middlewares/Third_Party/FreeRTOS/Source/event_groups.c **** 		}
 264:Middlewares/Third_Party/FreeRTOS/Source/event_groups.c **** 	}
 265:Middlewares/Third_Party/FreeRTOS/Source/event_groups.c **** 	xAlreadyYielded = xTaskResumeAll();
 266:Middlewares/Third_Party/FreeRTOS/Source/event_groups.c **** 
 267:Middlewares/Third_Party/FreeRTOS/Source/event_groups.c **** 	if( xTicksToWait != ( TickType_t ) 0 )
 268:Middlewares/Third_Party/FreeRTOS/Source/event_groups.c **** 	{
 269:Middlewares/Third_Party/FreeRTOS/Source/event_groups.c **** 		if( xAlreadyYielded == pdFALSE )
 270:Middlewares/Third_Party/FreeRTOS/Source/event_groups.c **** 		{
 271:Middlewares/Third_Party/FreeRTOS/Source/event_groups.c **** 			portYIELD_WITHIN_API();
 272:Middlewares/Third_Party/FreeRTOS/Source/event_groups.c **** 		}
 273:Middlewares/Third_Party/FreeRTOS/Source/event_groups.c **** 		else
 274:Middlewares/Third_Party/FreeRTOS/Source/event_groups.c **** 		{
 275:Middlewares/Third_Party/FreeRTOS/Source/event_groups.c **** 			mtCOVERAGE_TEST_MARKER();
 276:Middlewares/Third_Party/FreeRTOS/Source/event_groups.c **** 		}
 277:Middlewares/Third_Party/FreeRTOS/Source/event_groups.c **** 
 278:Middlewares/Third_Party/FreeRTOS/Source/event_groups.c **** 		/* The task blocked to wait for its required bits to be set - at this
 279:Middlewares/Third_Party/FreeRTOS/Source/event_groups.c **** 		point either the required bits were set or the block time expired.  If
 280:Middlewares/Third_Party/FreeRTOS/Source/event_groups.c **** 		the required bits were set they will have been stored in the task's
 281:Middlewares/Third_Party/FreeRTOS/Source/event_groups.c **** 		event list item, and they should now be retrieved then cleared. */
 282:Middlewares/Third_Party/FreeRTOS/Source/event_groups.c **** 		uxReturn = uxTaskResetEventItemValue();
 283:Middlewares/Third_Party/FreeRTOS/Source/event_groups.c **** 
 284:Middlewares/Third_Party/FreeRTOS/Source/event_groups.c **** 		if( ( uxReturn & eventUNBLOCKED_DUE_TO_BIT_SET ) == ( EventBits_t ) 0 )
 285:Middlewares/Third_Party/FreeRTOS/Source/event_groups.c **** 		{
 286:Middlewares/Third_Party/FreeRTOS/Source/event_groups.c **** 			/* The task timed out, just return the current event bit value. */
 287:Middlewares/Third_Party/FreeRTOS/Source/event_groups.c **** 			taskENTER_CRITICAL();
 288:Middlewares/Third_Party/FreeRTOS/Source/event_groups.c **** 			{
 289:Middlewares/Third_Party/FreeRTOS/Source/event_groups.c **** 				uxReturn = pxEventBits->uxEventBits;
 290:Middlewares/Third_Party/FreeRTOS/Source/event_groups.c **** 
 291:Middlewares/Third_Party/FreeRTOS/Source/event_groups.c **** 				/* Although the task got here because it timed out before the
 292:Middlewares/Third_Party/FreeRTOS/Source/event_groups.c **** 				bits it was waiting for were set, it is possible that since it
 293:Middlewares/Third_Party/FreeRTOS/Source/event_groups.c **** 				unblocked another task has set the bits.  If this is the case
 294:Middlewares/Third_Party/FreeRTOS/Source/event_groups.c **** 				then it needs to clear the bits before exiting. */
 295:Middlewares/Third_Party/FreeRTOS/Source/event_groups.c **** 				if( ( uxReturn & uxBitsToWaitFor ) == uxBitsToWaitFor )
 296:Middlewares/Third_Party/FreeRTOS/Source/event_groups.c **** 				{
 297:Middlewares/Third_Party/FreeRTOS/Source/event_groups.c **** 					pxEventBits->uxEventBits &= ~uxBitsToWaitFor;
 298:Middlewares/Third_Party/FreeRTOS/Source/event_groups.c **** 				}
 299:Middlewares/Third_Party/FreeRTOS/Source/event_groups.c **** 				else
 300:Middlewares/Third_Party/FreeRTOS/Source/event_groups.c **** 				{
 301:Middlewares/Third_Party/FreeRTOS/Source/event_groups.c **** 					mtCOVERAGE_TEST_MARKER();
 302:Middlewares/Third_Party/FreeRTOS/Source/event_groups.c **** 				}
 303:Middlewares/Third_Party/FreeRTOS/Source/event_groups.c **** 			}
 304:Middlewares/Third_Party/FreeRTOS/Source/event_groups.c **** 			taskEXIT_CRITICAL();
 305:Middlewares/Third_Party/FreeRTOS/Source/event_groups.c **** 
 306:Middlewares/Third_Party/FreeRTOS/Source/event_groups.c **** 			xTimeoutOccurred = pdTRUE;
 307:Middlewares/Third_Party/FreeRTOS/Source/event_groups.c **** 		}
 308:Middlewares/Third_Party/FreeRTOS/Source/event_groups.c **** 		else
 309:Middlewares/Third_Party/FreeRTOS/Source/event_groups.c **** 		{
 310:Middlewares/Third_Party/FreeRTOS/Source/event_groups.c **** 			/* The task unblocked because the bits were set. */
 311:Middlewares/Third_Party/FreeRTOS/Source/event_groups.c **** 		}
 312:Middlewares/Third_Party/FreeRTOS/Source/event_groups.c **** 
 313:Middlewares/Third_Party/FreeRTOS/Source/event_groups.c **** 		/* Control bits might be set as the task had blocked should not be
 314:Middlewares/Third_Party/FreeRTOS/Source/event_groups.c **** 		returned. */
 315:Middlewares/Third_Party/FreeRTOS/Source/event_groups.c **** 		uxReturn &= ~eventEVENT_BITS_CONTROL_BYTES;
ARM GAS  /var/folders/n1/76bg37b13ls08p1dhb9rhvd40000gn/T//ccOlpsUK.s 			page 7


 316:Middlewares/Third_Party/FreeRTOS/Source/event_groups.c **** 	}
 317:Middlewares/Third_Party/FreeRTOS/Source/event_groups.c **** 
 318:Middlewares/Third_Party/FreeRTOS/Source/event_groups.c **** 	traceEVENT_GROUP_SYNC_END( xEventGroup, uxBitsToSet, uxBitsToWaitFor, xTimeoutOccurred );
 319:Middlewares/Third_Party/FreeRTOS/Source/event_groups.c **** 
 320:Middlewares/Third_Party/FreeRTOS/Source/event_groups.c **** 	return uxReturn;
 321:Middlewares/Third_Party/FreeRTOS/Source/event_groups.c **** }
 322:Middlewares/Third_Party/FreeRTOS/Source/event_groups.c **** /*-----------------------------------------------------------*/
 323:Middlewares/Third_Party/FreeRTOS/Source/event_groups.c **** 
 324:Middlewares/Third_Party/FreeRTOS/Source/event_groups.c **** EventBits_t xEventGroupWaitBits( EventGroupHandle_t xEventGroup, const EventBits_t uxBitsToWaitFor,
 325:Middlewares/Third_Party/FreeRTOS/Source/event_groups.c **** {
 326:Middlewares/Third_Party/FreeRTOS/Source/event_groups.c **** EventGroup_t *pxEventBits = ( EventGroup_t * ) xEventGroup;
 327:Middlewares/Third_Party/FreeRTOS/Source/event_groups.c **** EventBits_t uxReturn, uxControlBits = 0;
 328:Middlewares/Third_Party/FreeRTOS/Source/event_groups.c **** BaseType_t xWaitConditionMet, xAlreadyYielded;
 329:Middlewares/Third_Party/FreeRTOS/Source/event_groups.c **** BaseType_t xTimeoutOccurred = pdFALSE;
 330:Middlewares/Third_Party/FreeRTOS/Source/event_groups.c **** 
 331:Middlewares/Third_Party/FreeRTOS/Source/event_groups.c **** 	/* Check the user is not attempting to wait on the bits used by the kernel
 332:Middlewares/Third_Party/FreeRTOS/Source/event_groups.c **** 	itself, and that at least one bit is being requested. */
 333:Middlewares/Third_Party/FreeRTOS/Source/event_groups.c **** 	configASSERT( xEventGroup );
 334:Middlewares/Third_Party/FreeRTOS/Source/event_groups.c **** 	configASSERT( ( uxBitsToWaitFor & eventEVENT_BITS_CONTROL_BYTES ) == 0 );
 335:Middlewares/Third_Party/FreeRTOS/Source/event_groups.c **** 	configASSERT( uxBitsToWaitFor != 0 );
 336:Middlewares/Third_Party/FreeRTOS/Source/event_groups.c **** 	#if ( ( INCLUDE_xTaskGetSchedulerState == 1 ) || ( configUSE_TIMERS == 1 ) )
 337:Middlewares/Third_Party/FreeRTOS/Source/event_groups.c **** 	{
 338:Middlewares/Third_Party/FreeRTOS/Source/event_groups.c **** 		configASSERT( !( ( xTaskGetSchedulerState() == taskSCHEDULER_SUSPENDED ) && ( xTicksToWait != 0 )
 339:Middlewares/Third_Party/FreeRTOS/Source/event_groups.c **** 	}
 340:Middlewares/Third_Party/FreeRTOS/Source/event_groups.c **** 	#endif
 341:Middlewares/Third_Party/FreeRTOS/Source/event_groups.c **** 
 342:Middlewares/Third_Party/FreeRTOS/Source/event_groups.c **** 	vTaskSuspendAll();
 343:Middlewares/Third_Party/FreeRTOS/Source/event_groups.c **** 	{
 344:Middlewares/Third_Party/FreeRTOS/Source/event_groups.c **** 		const EventBits_t uxCurrentEventBits = pxEventBits->uxEventBits;
 345:Middlewares/Third_Party/FreeRTOS/Source/event_groups.c **** 
 346:Middlewares/Third_Party/FreeRTOS/Source/event_groups.c **** 		/* Check to see if the wait condition is already met or not. */
 347:Middlewares/Third_Party/FreeRTOS/Source/event_groups.c **** 		xWaitConditionMet = prvTestWaitCondition( uxCurrentEventBits, uxBitsToWaitFor, xWaitForAllBits );
 348:Middlewares/Third_Party/FreeRTOS/Source/event_groups.c **** 
 349:Middlewares/Third_Party/FreeRTOS/Source/event_groups.c **** 		if( xWaitConditionMet != pdFALSE )
 350:Middlewares/Third_Party/FreeRTOS/Source/event_groups.c **** 		{
 351:Middlewares/Third_Party/FreeRTOS/Source/event_groups.c **** 			/* The wait condition has already been met so there is no need to
 352:Middlewares/Third_Party/FreeRTOS/Source/event_groups.c **** 			block. */
 353:Middlewares/Third_Party/FreeRTOS/Source/event_groups.c **** 			uxReturn = uxCurrentEventBits;
 354:Middlewares/Third_Party/FreeRTOS/Source/event_groups.c **** 			xTicksToWait = ( TickType_t ) 0;
 355:Middlewares/Third_Party/FreeRTOS/Source/event_groups.c **** 
 356:Middlewares/Third_Party/FreeRTOS/Source/event_groups.c **** 			/* Clear the wait bits if requested to do so. */
 357:Middlewares/Third_Party/FreeRTOS/Source/event_groups.c **** 			if( xClearOnExit != pdFALSE )
 358:Middlewares/Third_Party/FreeRTOS/Source/event_groups.c **** 			{
 359:Middlewares/Third_Party/FreeRTOS/Source/event_groups.c **** 				pxEventBits->uxEventBits &= ~uxBitsToWaitFor;
 360:Middlewares/Third_Party/FreeRTOS/Source/event_groups.c **** 			}
 361:Middlewares/Third_Party/FreeRTOS/Source/event_groups.c **** 			else
 362:Middlewares/Third_Party/FreeRTOS/Source/event_groups.c **** 			{
 363:Middlewares/Third_Party/FreeRTOS/Source/event_groups.c **** 				mtCOVERAGE_TEST_MARKER();
 364:Middlewares/Third_Party/FreeRTOS/Source/event_groups.c **** 			}
 365:Middlewares/Third_Party/FreeRTOS/Source/event_groups.c **** 		}
 366:Middlewares/Third_Party/FreeRTOS/Source/event_groups.c **** 		else if( xTicksToWait == ( TickType_t ) 0 )
 367:Middlewares/Third_Party/FreeRTOS/Source/event_groups.c **** 		{
 368:Middlewares/Third_Party/FreeRTOS/Source/event_groups.c **** 			/* The wait condition has not been met, but no block time was
 369:Middlewares/Third_Party/FreeRTOS/Source/event_groups.c **** 			specified, so just return the current value. */
 370:Middlewares/Third_Party/FreeRTOS/Source/event_groups.c **** 			uxReturn = uxCurrentEventBits;
 371:Middlewares/Third_Party/FreeRTOS/Source/event_groups.c **** 		}
 372:Middlewares/Third_Party/FreeRTOS/Source/event_groups.c **** 		else
ARM GAS  /var/folders/n1/76bg37b13ls08p1dhb9rhvd40000gn/T//ccOlpsUK.s 			page 8


 373:Middlewares/Third_Party/FreeRTOS/Source/event_groups.c **** 		{
 374:Middlewares/Third_Party/FreeRTOS/Source/event_groups.c **** 			/* The task is going to block to wait for its required bits to be
 375:Middlewares/Third_Party/FreeRTOS/Source/event_groups.c **** 			set.  uxControlBits are used to remember the specified behaviour of
 376:Middlewares/Third_Party/FreeRTOS/Source/event_groups.c **** 			this call to xEventGroupWaitBits() - for use when the event bits
 377:Middlewares/Third_Party/FreeRTOS/Source/event_groups.c **** 			unblock the task. */
 378:Middlewares/Third_Party/FreeRTOS/Source/event_groups.c **** 			if( xClearOnExit != pdFALSE )
 379:Middlewares/Third_Party/FreeRTOS/Source/event_groups.c **** 			{
 380:Middlewares/Third_Party/FreeRTOS/Source/event_groups.c **** 				uxControlBits |= eventCLEAR_EVENTS_ON_EXIT_BIT;
 381:Middlewares/Third_Party/FreeRTOS/Source/event_groups.c **** 			}
 382:Middlewares/Third_Party/FreeRTOS/Source/event_groups.c **** 			else
 383:Middlewares/Third_Party/FreeRTOS/Source/event_groups.c **** 			{
 384:Middlewares/Third_Party/FreeRTOS/Source/event_groups.c **** 				mtCOVERAGE_TEST_MARKER();
 385:Middlewares/Third_Party/FreeRTOS/Source/event_groups.c **** 			}
 386:Middlewares/Third_Party/FreeRTOS/Source/event_groups.c **** 
 387:Middlewares/Third_Party/FreeRTOS/Source/event_groups.c **** 			if( xWaitForAllBits != pdFALSE )
 388:Middlewares/Third_Party/FreeRTOS/Source/event_groups.c **** 			{
 389:Middlewares/Third_Party/FreeRTOS/Source/event_groups.c **** 				uxControlBits |= eventWAIT_FOR_ALL_BITS;
 390:Middlewares/Third_Party/FreeRTOS/Source/event_groups.c **** 			}
 391:Middlewares/Third_Party/FreeRTOS/Source/event_groups.c **** 			else
 392:Middlewares/Third_Party/FreeRTOS/Source/event_groups.c **** 			{
 393:Middlewares/Third_Party/FreeRTOS/Source/event_groups.c **** 				mtCOVERAGE_TEST_MARKER();
 394:Middlewares/Third_Party/FreeRTOS/Source/event_groups.c **** 			}
 395:Middlewares/Third_Party/FreeRTOS/Source/event_groups.c **** 
 396:Middlewares/Third_Party/FreeRTOS/Source/event_groups.c **** 			/* Store the bits that the calling task is waiting for in the
 397:Middlewares/Third_Party/FreeRTOS/Source/event_groups.c **** 			task's event list item so the kernel knows when a match is
 398:Middlewares/Third_Party/FreeRTOS/Source/event_groups.c **** 			found.  Then enter the blocked state. */
 399:Middlewares/Third_Party/FreeRTOS/Source/event_groups.c **** 			vTaskPlaceOnUnorderedEventList( &( pxEventBits->xTasksWaitingForBits ), ( uxBitsToWaitFor | uxCo
 400:Middlewares/Third_Party/FreeRTOS/Source/event_groups.c **** 
 401:Middlewares/Third_Party/FreeRTOS/Source/event_groups.c **** 			/* This is obsolete as it will get set after the task unblocks, but
 402:Middlewares/Third_Party/FreeRTOS/Source/event_groups.c **** 			some compilers mistakenly generate a warning about the variable
 403:Middlewares/Third_Party/FreeRTOS/Source/event_groups.c **** 			being returned without being set if it is not done. */
 404:Middlewares/Third_Party/FreeRTOS/Source/event_groups.c **** 			uxReturn = 0;
 405:Middlewares/Third_Party/FreeRTOS/Source/event_groups.c **** 
 406:Middlewares/Third_Party/FreeRTOS/Source/event_groups.c **** 			traceEVENT_GROUP_WAIT_BITS_BLOCK( xEventGroup, uxBitsToWaitFor );
 407:Middlewares/Third_Party/FreeRTOS/Source/event_groups.c **** 		}
 408:Middlewares/Third_Party/FreeRTOS/Source/event_groups.c **** 	}
 409:Middlewares/Third_Party/FreeRTOS/Source/event_groups.c **** 	xAlreadyYielded = xTaskResumeAll();
 410:Middlewares/Third_Party/FreeRTOS/Source/event_groups.c **** 
 411:Middlewares/Third_Party/FreeRTOS/Source/event_groups.c **** 	if( xTicksToWait != ( TickType_t ) 0 )
 412:Middlewares/Third_Party/FreeRTOS/Source/event_groups.c **** 	{
 413:Middlewares/Third_Party/FreeRTOS/Source/event_groups.c **** 		if( xAlreadyYielded == pdFALSE )
 414:Middlewares/Third_Party/FreeRTOS/Source/event_groups.c **** 		{
 415:Middlewares/Third_Party/FreeRTOS/Source/event_groups.c **** 			portYIELD_WITHIN_API();
 416:Middlewares/Third_Party/FreeRTOS/Source/event_groups.c **** 		}
 417:Middlewares/Third_Party/FreeRTOS/Source/event_groups.c **** 		else
 418:Middlewares/Third_Party/FreeRTOS/Source/event_groups.c **** 		{
 419:Middlewares/Third_Party/FreeRTOS/Source/event_groups.c **** 			mtCOVERAGE_TEST_MARKER();
 420:Middlewares/Third_Party/FreeRTOS/Source/event_groups.c **** 		}
 421:Middlewares/Third_Party/FreeRTOS/Source/event_groups.c **** 
 422:Middlewares/Third_Party/FreeRTOS/Source/event_groups.c **** 		/* The task blocked to wait for its required bits to be set - at this
 423:Middlewares/Third_Party/FreeRTOS/Source/event_groups.c **** 		point either the required bits were set or the block time expired.  If
 424:Middlewares/Third_Party/FreeRTOS/Source/event_groups.c **** 		the required bits were set they will have been stored in the task's
 425:Middlewares/Third_Party/FreeRTOS/Source/event_groups.c **** 		event list item, and they should now be retrieved then cleared. */
 426:Middlewares/Third_Party/FreeRTOS/Source/event_groups.c **** 		uxReturn = uxTaskResetEventItemValue();
 427:Middlewares/Third_Party/FreeRTOS/Source/event_groups.c **** 
 428:Middlewares/Third_Party/FreeRTOS/Source/event_groups.c **** 		if( ( uxReturn & eventUNBLOCKED_DUE_TO_BIT_SET ) == ( EventBits_t ) 0 )
 429:Middlewares/Third_Party/FreeRTOS/Source/event_groups.c **** 		{
ARM GAS  /var/folders/n1/76bg37b13ls08p1dhb9rhvd40000gn/T//ccOlpsUK.s 			page 9


 430:Middlewares/Third_Party/FreeRTOS/Source/event_groups.c **** 			taskENTER_CRITICAL();
 431:Middlewares/Third_Party/FreeRTOS/Source/event_groups.c **** 			{
 432:Middlewares/Third_Party/FreeRTOS/Source/event_groups.c **** 				/* The task timed out, just return the current event bit value. */
 433:Middlewares/Third_Party/FreeRTOS/Source/event_groups.c **** 				uxReturn = pxEventBits->uxEventBits;
 434:Middlewares/Third_Party/FreeRTOS/Source/event_groups.c **** 
 435:Middlewares/Third_Party/FreeRTOS/Source/event_groups.c **** 				/* It is possible that the event bits were updated between this
 436:Middlewares/Third_Party/FreeRTOS/Source/event_groups.c **** 				task leaving the Blocked state and running again. */
 437:Middlewares/Third_Party/FreeRTOS/Source/event_groups.c **** 				if( prvTestWaitCondition( uxReturn, uxBitsToWaitFor, xWaitForAllBits ) != pdFALSE )
 438:Middlewares/Third_Party/FreeRTOS/Source/event_groups.c **** 				{
 439:Middlewares/Third_Party/FreeRTOS/Source/event_groups.c **** 					if( xClearOnExit != pdFALSE )
 440:Middlewares/Third_Party/FreeRTOS/Source/event_groups.c **** 					{
 441:Middlewares/Third_Party/FreeRTOS/Source/event_groups.c **** 						pxEventBits->uxEventBits &= ~uxBitsToWaitFor;
 442:Middlewares/Third_Party/FreeRTOS/Source/event_groups.c **** 					}
 443:Middlewares/Third_Party/FreeRTOS/Source/event_groups.c **** 					else
 444:Middlewares/Third_Party/FreeRTOS/Source/event_groups.c **** 					{
 445:Middlewares/Third_Party/FreeRTOS/Source/event_groups.c **** 						mtCOVERAGE_TEST_MARKER();
 446:Middlewares/Third_Party/FreeRTOS/Source/event_groups.c **** 					}
 447:Middlewares/Third_Party/FreeRTOS/Source/event_groups.c **** 				}
 448:Middlewares/Third_Party/FreeRTOS/Source/event_groups.c **** 				else
 449:Middlewares/Third_Party/FreeRTOS/Source/event_groups.c **** 				{
 450:Middlewares/Third_Party/FreeRTOS/Source/event_groups.c **** 					mtCOVERAGE_TEST_MARKER();
 451:Middlewares/Third_Party/FreeRTOS/Source/event_groups.c **** 				}
 452:Middlewares/Third_Party/FreeRTOS/Source/event_groups.c **** 			}
 453:Middlewares/Third_Party/FreeRTOS/Source/event_groups.c **** 			taskEXIT_CRITICAL();
 454:Middlewares/Third_Party/FreeRTOS/Source/event_groups.c **** 
 455:Middlewares/Third_Party/FreeRTOS/Source/event_groups.c **** 			/* Prevent compiler warnings when trace macros are not used. */
 456:Middlewares/Third_Party/FreeRTOS/Source/event_groups.c **** 			xTimeoutOccurred = pdFALSE;
 457:Middlewares/Third_Party/FreeRTOS/Source/event_groups.c **** 		}
 458:Middlewares/Third_Party/FreeRTOS/Source/event_groups.c **** 		else
 459:Middlewares/Third_Party/FreeRTOS/Source/event_groups.c **** 		{
 460:Middlewares/Third_Party/FreeRTOS/Source/event_groups.c **** 			/* The task unblocked because the bits were set. */
 461:Middlewares/Third_Party/FreeRTOS/Source/event_groups.c **** 		}
 462:Middlewares/Third_Party/FreeRTOS/Source/event_groups.c **** 
 463:Middlewares/Third_Party/FreeRTOS/Source/event_groups.c **** 		/* The task blocked so control bits may have been set. */
 464:Middlewares/Third_Party/FreeRTOS/Source/event_groups.c **** 		uxReturn &= ~eventEVENT_BITS_CONTROL_BYTES;
 465:Middlewares/Third_Party/FreeRTOS/Source/event_groups.c **** 	}
 466:Middlewares/Third_Party/FreeRTOS/Source/event_groups.c **** 	traceEVENT_GROUP_WAIT_BITS_END( xEventGroup, uxBitsToWaitFor, xTimeoutOccurred );
 467:Middlewares/Third_Party/FreeRTOS/Source/event_groups.c **** 
 468:Middlewares/Third_Party/FreeRTOS/Source/event_groups.c **** 	return uxReturn;
 469:Middlewares/Third_Party/FreeRTOS/Source/event_groups.c **** }
 470:Middlewares/Third_Party/FreeRTOS/Source/event_groups.c **** /*-----------------------------------------------------------*/
 471:Middlewares/Third_Party/FreeRTOS/Source/event_groups.c **** 
 472:Middlewares/Third_Party/FreeRTOS/Source/event_groups.c **** EventBits_t xEventGroupClearBits( EventGroupHandle_t xEventGroup, const EventBits_t uxBitsToClear )
 473:Middlewares/Third_Party/FreeRTOS/Source/event_groups.c **** {
 474:Middlewares/Third_Party/FreeRTOS/Source/event_groups.c **** EventGroup_t *pxEventBits = ( EventGroup_t * ) xEventGroup;
 475:Middlewares/Third_Party/FreeRTOS/Source/event_groups.c **** EventBits_t uxReturn;
 476:Middlewares/Third_Party/FreeRTOS/Source/event_groups.c **** 
 477:Middlewares/Third_Party/FreeRTOS/Source/event_groups.c **** 	/* Check the user is not attempting to clear the bits used by the kernel
 478:Middlewares/Third_Party/FreeRTOS/Source/event_groups.c **** 	itself. */
 479:Middlewares/Third_Party/FreeRTOS/Source/event_groups.c **** 	configASSERT( xEventGroup );
 480:Middlewares/Third_Party/FreeRTOS/Source/event_groups.c **** 	configASSERT( ( uxBitsToClear & eventEVENT_BITS_CONTROL_BYTES ) == 0 );
 481:Middlewares/Third_Party/FreeRTOS/Source/event_groups.c **** 
 482:Middlewares/Third_Party/FreeRTOS/Source/event_groups.c **** 	taskENTER_CRITICAL();
 483:Middlewares/Third_Party/FreeRTOS/Source/event_groups.c **** 	{
 484:Middlewares/Third_Party/FreeRTOS/Source/event_groups.c **** 		traceEVENT_GROUP_CLEAR_BITS( xEventGroup, uxBitsToClear );
 485:Middlewares/Third_Party/FreeRTOS/Source/event_groups.c **** 
 486:Middlewares/Third_Party/FreeRTOS/Source/event_groups.c **** 		/* The value returned is the event group value prior to the bits being
ARM GAS  /var/folders/n1/76bg37b13ls08p1dhb9rhvd40000gn/T//ccOlpsUK.s 			page 10


 487:Middlewares/Third_Party/FreeRTOS/Source/event_groups.c **** 		cleared. */
 488:Middlewares/Third_Party/FreeRTOS/Source/event_groups.c **** 		uxReturn = pxEventBits->uxEventBits;
 489:Middlewares/Third_Party/FreeRTOS/Source/event_groups.c **** 
 490:Middlewares/Third_Party/FreeRTOS/Source/event_groups.c **** 		/* Clear the bits. */
 491:Middlewares/Third_Party/FreeRTOS/Source/event_groups.c **** 		pxEventBits->uxEventBits &= ~uxBitsToClear;
 492:Middlewares/Third_Party/FreeRTOS/Source/event_groups.c **** 	}
 493:Middlewares/Third_Party/FreeRTOS/Source/event_groups.c **** 	taskEXIT_CRITICAL();
 494:Middlewares/Third_Party/FreeRTOS/Source/event_groups.c **** 
 495:Middlewares/Third_Party/FreeRTOS/Source/event_groups.c **** 	return uxReturn;
 496:Middlewares/Third_Party/FreeRTOS/Source/event_groups.c **** }
 497:Middlewares/Third_Party/FreeRTOS/Source/event_groups.c **** /*-----------------------------------------------------------*/
 498:Middlewares/Third_Party/FreeRTOS/Source/event_groups.c **** 
 499:Middlewares/Third_Party/FreeRTOS/Source/event_groups.c **** #if ( ( configUSE_TRACE_FACILITY == 1 ) && ( INCLUDE_xTimerPendFunctionCall == 1 ) && ( configUSE_T
 500:Middlewares/Third_Party/FreeRTOS/Source/event_groups.c **** 
 501:Middlewares/Third_Party/FreeRTOS/Source/event_groups.c **** 	BaseType_t xEventGroupClearBitsFromISR( EventGroupHandle_t xEventGroup, const EventBits_t uxBitsTo
 502:Middlewares/Third_Party/FreeRTOS/Source/event_groups.c **** 	{
 503:Middlewares/Third_Party/FreeRTOS/Source/event_groups.c **** 		BaseType_t xReturn;
 504:Middlewares/Third_Party/FreeRTOS/Source/event_groups.c **** 
 505:Middlewares/Third_Party/FreeRTOS/Source/event_groups.c **** 		traceEVENT_GROUP_CLEAR_BITS_FROM_ISR( xEventGroup, uxBitsToClear );
 506:Middlewares/Third_Party/FreeRTOS/Source/event_groups.c **** 		xReturn = xTimerPendFunctionCallFromISR( vEventGroupClearBitsCallback, ( void * ) xEventGroup, ( 
 507:Middlewares/Third_Party/FreeRTOS/Source/event_groups.c **** 
 508:Middlewares/Third_Party/FreeRTOS/Source/event_groups.c **** 		return xReturn;
 509:Middlewares/Third_Party/FreeRTOS/Source/event_groups.c **** 	}
 510:Middlewares/Third_Party/FreeRTOS/Source/event_groups.c **** 
 511:Middlewares/Third_Party/FreeRTOS/Source/event_groups.c **** #endif
 512:Middlewares/Third_Party/FreeRTOS/Source/event_groups.c **** /*-----------------------------------------------------------*/
 513:Middlewares/Third_Party/FreeRTOS/Source/event_groups.c **** 
 514:Middlewares/Third_Party/FreeRTOS/Source/event_groups.c **** EventBits_t xEventGroupGetBitsFromISR( EventGroupHandle_t xEventGroup )
 515:Middlewares/Third_Party/FreeRTOS/Source/event_groups.c **** {
 516:Middlewares/Third_Party/FreeRTOS/Source/event_groups.c **** UBaseType_t uxSavedInterruptStatus;
 517:Middlewares/Third_Party/FreeRTOS/Source/event_groups.c **** EventGroup_t *pxEventBits = ( EventGroup_t * ) xEventGroup;
 518:Middlewares/Third_Party/FreeRTOS/Source/event_groups.c **** EventBits_t uxReturn;
 519:Middlewares/Third_Party/FreeRTOS/Source/event_groups.c **** 
 520:Middlewares/Third_Party/FreeRTOS/Source/event_groups.c **** 	uxSavedInterruptStatus = portSET_INTERRUPT_MASK_FROM_ISR();
 521:Middlewares/Third_Party/FreeRTOS/Source/event_groups.c **** 	{
 522:Middlewares/Third_Party/FreeRTOS/Source/event_groups.c **** 		uxReturn = pxEventBits->uxEventBits;
 523:Middlewares/Third_Party/FreeRTOS/Source/event_groups.c **** 	}
 524:Middlewares/Third_Party/FreeRTOS/Source/event_groups.c **** 	portCLEAR_INTERRUPT_MASK_FROM_ISR( uxSavedInterruptStatus );
 525:Middlewares/Third_Party/FreeRTOS/Source/event_groups.c **** 
 526:Middlewares/Third_Party/FreeRTOS/Source/event_groups.c **** 	return uxReturn;
 527:Middlewares/Third_Party/FreeRTOS/Source/event_groups.c **** }
 528:Middlewares/Third_Party/FreeRTOS/Source/event_groups.c **** /*-----------------------------------------------------------*/
 529:Middlewares/Third_Party/FreeRTOS/Source/event_groups.c **** 
 530:Middlewares/Third_Party/FreeRTOS/Source/event_groups.c **** EventBits_t xEventGroupSetBits( EventGroupHandle_t xEventGroup, const EventBits_t uxBitsToSet )
 531:Middlewares/Third_Party/FreeRTOS/Source/event_groups.c **** {
 532:Middlewares/Third_Party/FreeRTOS/Source/event_groups.c **** ListItem_t *pxListItem, *pxNext;
 533:Middlewares/Third_Party/FreeRTOS/Source/event_groups.c **** ListItem_t const *pxListEnd;
 534:Middlewares/Third_Party/FreeRTOS/Source/event_groups.c **** List_t *pxList;
 535:Middlewares/Third_Party/FreeRTOS/Source/event_groups.c **** EventBits_t uxBitsToClear = 0, uxBitsWaitedFor, uxControlBits;
 536:Middlewares/Third_Party/FreeRTOS/Source/event_groups.c **** EventGroup_t *pxEventBits = ( EventGroup_t * ) xEventGroup;
 537:Middlewares/Third_Party/FreeRTOS/Source/event_groups.c **** BaseType_t xMatchFound = pdFALSE;
 538:Middlewares/Third_Party/FreeRTOS/Source/event_groups.c **** 
 539:Middlewares/Third_Party/FreeRTOS/Source/event_groups.c **** 	/* Check the user is not attempting to set the bits used by the kernel
 540:Middlewares/Third_Party/FreeRTOS/Source/event_groups.c **** 	itself. */
 541:Middlewares/Third_Party/FreeRTOS/Source/event_groups.c **** 	configASSERT( xEventGroup );
 542:Middlewares/Third_Party/FreeRTOS/Source/event_groups.c **** 	configASSERT( ( uxBitsToSet & eventEVENT_BITS_CONTROL_BYTES ) == 0 );
 543:Middlewares/Third_Party/FreeRTOS/Source/event_groups.c **** 
ARM GAS  /var/folders/n1/76bg37b13ls08p1dhb9rhvd40000gn/T//ccOlpsUK.s 			page 11


 544:Middlewares/Third_Party/FreeRTOS/Source/event_groups.c **** 	pxList = &( pxEventBits->xTasksWaitingForBits );
 545:Middlewares/Third_Party/FreeRTOS/Source/event_groups.c **** 	pxListEnd = listGET_END_MARKER( pxList ); /*lint !e826 !e740 The mini list structure is used as th
 546:Middlewares/Third_Party/FreeRTOS/Source/event_groups.c **** 	vTaskSuspendAll();
 547:Middlewares/Third_Party/FreeRTOS/Source/event_groups.c **** 	{
 548:Middlewares/Third_Party/FreeRTOS/Source/event_groups.c **** 		traceEVENT_GROUP_SET_BITS( xEventGroup, uxBitsToSet );
 549:Middlewares/Third_Party/FreeRTOS/Source/event_groups.c **** 
 550:Middlewares/Third_Party/FreeRTOS/Source/event_groups.c **** 		pxListItem = listGET_HEAD_ENTRY( pxList );
 551:Middlewares/Third_Party/FreeRTOS/Source/event_groups.c **** 
 552:Middlewares/Third_Party/FreeRTOS/Source/event_groups.c **** 		/* Set the bits. */
 553:Middlewares/Third_Party/FreeRTOS/Source/event_groups.c **** 		pxEventBits->uxEventBits |= uxBitsToSet;
 554:Middlewares/Third_Party/FreeRTOS/Source/event_groups.c **** 
 555:Middlewares/Third_Party/FreeRTOS/Source/event_groups.c **** 		/* See if the new bit value should unblock any tasks. */
 556:Middlewares/Third_Party/FreeRTOS/Source/event_groups.c **** 		while( pxListItem != pxListEnd )
 557:Middlewares/Third_Party/FreeRTOS/Source/event_groups.c **** 		{
 558:Middlewares/Third_Party/FreeRTOS/Source/event_groups.c **** 			pxNext = listGET_NEXT( pxListItem );
 559:Middlewares/Third_Party/FreeRTOS/Source/event_groups.c **** 			uxBitsWaitedFor = listGET_LIST_ITEM_VALUE( pxListItem );
 560:Middlewares/Third_Party/FreeRTOS/Source/event_groups.c **** 			xMatchFound = pdFALSE;
 561:Middlewares/Third_Party/FreeRTOS/Source/event_groups.c **** 
 562:Middlewares/Third_Party/FreeRTOS/Source/event_groups.c **** 			/* Split the bits waited for from the control bits. */
 563:Middlewares/Third_Party/FreeRTOS/Source/event_groups.c **** 			uxControlBits = uxBitsWaitedFor & eventEVENT_BITS_CONTROL_BYTES;
 564:Middlewares/Third_Party/FreeRTOS/Source/event_groups.c **** 			uxBitsWaitedFor &= ~eventEVENT_BITS_CONTROL_BYTES;
 565:Middlewares/Third_Party/FreeRTOS/Source/event_groups.c **** 
 566:Middlewares/Third_Party/FreeRTOS/Source/event_groups.c **** 			if( ( uxControlBits & eventWAIT_FOR_ALL_BITS ) == ( EventBits_t ) 0 )
 567:Middlewares/Third_Party/FreeRTOS/Source/event_groups.c **** 			{
 568:Middlewares/Third_Party/FreeRTOS/Source/event_groups.c **** 				/* Just looking for single bit being set. */
 569:Middlewares/Third_Party/FreeRTOS/Source/event_groups.c **** 				if( ( uxBitsWaitedFor & pxEventBits->uxEventBits ) != ( EventBits_t ) 0 )
 570:Middlewares/Third_Party/FreeRTOS/Source/event_groups.c **** 				{
 571:Middlewares/Third_Party/FreeRTOS/Source/event_groups.c **** 					xMatchFound = pdTRUE;
 572:Middlewares/Third_Party/FreeRTOS/Source/event_groups.c **** 				}
 573:Middlewares/Third_Party/FreeRTOS/Source/event_groups.c **** 				else
 574:Middlewares/Third_Party/FreeRTOS/Source/event_groups.c **** 				{
 575:Middlewares/Third_Party/FreeRTOS/Source/event_groups.c **** 					mtCOVERAGE_TEST_MARKER();
 576:Middlewares/Third_Party/FreeRTOS/Source/event_groups.c **** 				}
 577:Middlewares/Third_Party/FreeRTOS/Source/event_groups.c **** 			}
 578:Middlewares/Third_Party/FreeRTOS/Source/event_groups.c **** 			else if( ( uxBitsWaitedFor & pxEventBits->uxEventBits ) == uxBitsWaitedFor )
 579:Middlewares/Third_Party/FreeRTOS/Source/event_groups.c **** 			{
 580:Middlewares/Third_Party/FreeRTOS/Source/event_groups.c **** 				/* All bits are set. */
 581:Middlewares/Third_Party/FreeRTOS/Source/event_groups.c **** 				xMatchFound = pdTRUE;
 582:Middlewares/Third_Party/FreeRTOS/Source/event_groups.c **** 			}
 583:Middlewares/Third_Party/FreeRTOS/Source/event_groups.c **** 			else
 584:Middlewares/Third_Party/FreeRTOS/Source/event_groups.c **** 			{
 585:Middlewares/Third_Party/FreeRTOS/Source/event_groups.c **** 				/* Need all bits to be set, but not all the bits were set. */
 586:Middlewares/Third_Party/FreeRTOS/Source/event_groups.c **** 			}
 587:Middlewares/Third_Party/FreeRTOS/Source/event_groups.c **** 
 588:Middlewares/Third_Party/FreeRTOS/Source/event_groups.c **** 			if( xMatchFound != pdFALSE )
 589:Middlewares/Third_Party/FreeRTOS/Source/event_groups.c **** 			{
 590:Middlewares/Third_Party/FreeRTOS/Source/event_groups.c **** 				/* The bits match.  Should the bits be cleared on exit? */
 591:Middlewares/Third_Party/FreeRTOS/Source/event_groups.c **** 				if( ( uxControlBits & eventCLEAR_EVENTS_ON_EXIT_BIT ) != ( EventBits_t ) 0 )
 592:Middlewares/Third_Party/FreeRTOS/Source/event_groups.c **** 				{
 593:Middlewares/Third_Party/FreeRTOS/Source/event_groups.c **** 					uxBitsToClear |= uxBitsWaitedFor;
 594:Middlewares/Third_Party/FreeRTOS/Source/event_groups.c **** 				}
 595:Middlewares/Third_Party/FreeRTOS/Source/event_groups.c **** 				else
 596:Middlewares/Third_Party/FreeRTOS/Source/event_groups.c **** 				{
 597:Middlewares/Third_Party/FreeRTOS/Source/event_groups.c **** 					mtCOVERAGE_TEST_MARKER();
 598:Middlewares/Third_Party/FreeRTOS/Source/event_groups.c **** 				}
 599:Middlewares/Third_Party/FreeRTOS/Source/event_groups.c **** 
 600:Middlewares/Third_Party/FreeRTOS/Source/event_groups.c **** 				/* Store the actual event flag value in the task's event list
ARM GAS  /var/folders/n1/76bg37b13ls08p1dhb9rhvd40000gn/T//ccOlpsUK.s 			page 12


 601:Middlewares/Third_Party/FreeRTOS/Source/event_groups.c **** 				item before removing the task from the event list.  The
 602:Middlewares/Third_Party/FreeRTOS/Source/event_groups.c **** 				eventUNBLOCKED_DUE_TO_BIT_SET bit is set so the task knows
 603:Middlewares/Third_Party/FreeRTOS/Source/event_groups.c **** 				that is was unblocked due to its required bits matching, rather
 604:Middlewares/Third_Party/FreeRTOS/Source/event_groups.c **** 				than because it timed out. */
 605:Middlewares/Third_Party/FreeRTOS/Source/event_groups.c **** 				( void ) xTaskRemoveFromUnorderedEventList( pxListItem, pxEventBits->uxEventBits | eventUNBLOCK
 606:Middlewares/Third_Party/FreeRTOS/Source/event_groups.c **** 			}
 607:Middlewares/Third_Party/FreeRTOS/Source/event_groups.c **** 
 608:Middlewares/Third_Party/FreeRTOS/Source/event_groups.c **** 			/* Move onto the next list item.  Note pxListItem->pxNext is not
 609:Middlewares/Third_Party/FreeRTOS/Source/event_groups.c **** 			used here as the list item may have been removed from the event list
 610:Middlewares/Third_Party/FreeRTOS/Source/event_groups.c **** 			and inserted into the ready/pending reading list. */
 611:Middlewares/Third_Party/FreeRTOS/Source/event_groups.c **** 			pxListItem = pxNext;
 612:Middlewares/Third_Party/FreeRTOS/Source/event_groups.c **** 		}
 613:Middlewares/Third_Party/FreeRTOS/Source/event_groups.c **** 
 614:Middlewares/Third_Party/FreeRTOS/Source/event_groups.c **** 		/* Clear any bits that matched when the eventCLEAR_EVENTS_ON_EXIT_BIT
 615:Middlewares/Third_Party/FreeRTOS/Source/event_groups.c **** 		bit was set in the control word. */
 616:Middlewares/Third_Party/FreeRTOS/Source/event_groups.c **** 		pxEventBits->uxEventBits &= ~uxBitsToClear;
 617:Middlewares/Third_Party/FreeRTOS/Source/event_groups.c **** 	}
 618:Middlewares/Third_Party/FreeRTOS/Source/event_groups.c **** 	( void ) xTaskResumeAll();
 619:Middlewares/Third_Party/FreeRTOS/Source/event_groups.c **** 
 620:Middlewares/Third_Party/FreeRTOS/Source/event_groups.c **** 	return pxEventBits->uxEventBits;
 621:Middlewares/Third_Party/FreeRTOS/Source/event_groups.c **** }
 622:Middlewares/Third_Party/FreeRTOS/Source/event_groups.c **** /*-----------------------------------------------------------*/
 623:Middlewares/Third_Party/FreeRTOS/Source/event_groups.c **** 
 624:Middlewares/Third_Party/FreeRTOS/Source/event_groups.c **** void vEventGroupDelete( EventGroupHandle_t xEventGroup )
 625:Middlewares/Third_Party/FreeRTOS/Source/event_groups.c **** {
 626:Middlewares/Third_Party/FreeRTOS/Source/event_groups.c **** EventGroup_t *pxEventBits = ( EventGroup_t * ) xEventGroup;
 627:Middlewares/Third_Party/FreeRTOS/Source/event_groups.c **** const List_t *pxTasksWaitingForBits = &( pxEventBits->xTasksWaitingForBits );
 628:Middlewares/Third_Party/FreeRTOS/Source/event_groups.c **** 
 629:Middlewares/Third_Party/FreeRTOS/Source/event_groups.c **** 	vTaskSuspendAll();
 630:Middlewares/Third_Party/FreeRTOS/Source/event_groups.c **** 	{
 631:Middlewares/Third_Party/FreeRTOS/Source/event_groups.c **** 		traceEVENT_GROUP_DELETE( xEventGroup );
 632:Middlewares/Third_Party/FreeRTOS/Source/event_groups.c **** 
 633:Middlewares/Third_Party/FreeRTOS/Source/event_groups.c **** 		while( listCURRENT_LIST_LENGTH( pxTasksWaitingForBits ) > ( UBaseType_t ) 0 )
 634:Middlewares/Third_Party/FreeRTOS/Source/event_groups.c **** 		{
 635:Middlewares/Third_Party/FreeRTOS/Source/event_groups.c **** 			/* Unblock the task, returning 0 as the event list is being deleted
 636:Middlewares/Third_Party/FreeRTOS/Source/event_groups.c **** 			and	cannot therefore have any bits set. */
 637:Middlewares/Third_Party/FreeRTOS/Source/event_groups.c **** 			configASSERT( pxTasksWaitingForBits->xListEnd.pxNext != ( ListItem_t * ) &( pxTasksWaitingForBit
 638:Middlewares/Third_Party/FreeRTOS/Source/event_groups.c **** 			( void ) xTaskRemoveFromUnorderedEventList( pxTasksWaitingForBits->xListEnd.pxNext, eventUNBLOCK
 639:Middlewares/Third_Party/FreeRTOS/Source/event_groups.c **** 		}
 640:Middlewares/Third_Party/FreeRTOS/Source/event_groups.c **** 
 641:Middlewares/Third_Party/FreeRTOS/Source/event_groups.c **** 		#if( ( configSUPPORT_DYNAMIC_ALLOCATION == 1 ) && ( configSUPPORT_STATIC_ALLOCATION == 0 ) )
 642:Middlewares/Third_Party/FreeRTOS/Source/event_groups.c **** 		{
 643:Middlewares/Third_Party/FreeRTOS/Source/event_groups.c **** 			/* The event group can only have been allocated dynamically - free
 644:Middlewares/Third_Party/FreeRTOS/Source/event_groups.c **** 			it again. */
 645:Middlewares/Third_Party/FreeRTOS/Source/event_groups.c **** 			vPortFree( pxEventBits );
 646:Middlewares/Third_Party/FreeRTOS/Source/event_groups.c **** 		}
 647:Middlewares/Third_Party/FreeRTOS/Source/event_groups.c **** 		#elif( ( configSUPPORT_DYNAMIC_ALLOCATION == 1 ) && ( configSUPPORT_STATIC_ALLOCATION == 1 ) )
 648:Middlewares/Third_Party/FreeRTOS/Source/event_groups.c **** 		{
 649:Middlewares/Third_Party/FreeRTOS/Source/event_groups.c **** 			/* The event group could have been allocated statically or
 650:Middlewares/Third_Party/FreeRTOS/Source/event_groups.c **** 			dynamically, so check before attempting to free the memory. */
 651:Middlewares/Third_Party/FreeRTOS/Source/event_groups.c **** 			if( pxEventBits->ucStaticallyAllocated == ( uint8_t ) pdFALSE )
 652:Middlewares/Third_Party/FreeRTOS/Source/event_groups.c **** 			{
 653:Middlewares/Third_Party/FreeRTOS/Source/event_groups.c **** 				vPortFree( pxEventBits );
 654:Middlewares/Third_Party/FreeRTOS/Source/event_groups.c **** 			}
 655:Middlewares/Third_Party/FreeRTOS/Source/event_groups.c **** 			else
 656:Middlewares/Third_Party/FreeRTOS/Source/event_groups.c **** 			{
 657:Middlewares/Third_Party/FreeRTOS/Source/event_groups.c **** 				mtCOVERAGE_TEST_MARKER();
ARM GAS  /var/folders/n1/76bg37b13ls08p1dhb9rhvd40000gn/T//ccOlpsUK.s 			page 13


 658:Middlewares/Third_Party/FreeRTOS/Source/event_groups.c **** 			}
 659:Middlewares/Third_Party/FreeRTOS/Source/event_groups.c **** 		}
 660:Middlewares/Third_Party/FreeRTOS/Source/event_groups.c **** 		#endif /* configSUPPORT_DYNAMIC_ALLOCATION */
 661:Middlewares/Third_Party/FreeRTOS/Source/event_groups.c **** 	}
 662:Middlewares/Third_Party/FreeRTOS/Source/event_groups.c **** 	( void ) xTaskResumeAll();
 663:Middlewares/Third_Party/FreeRTOS/Source/event_groups.c **** }
 664:Middlewares/Third_Party/FreeRTOS/Source/event_groups.c **** /*-----------------------------------------------------------*/
 665:Middlewares/Third_Party/FreeRTOS/Source/event_groups.c **** 
 666:Middlewares/Third_Party/FreeRTOS/Source/event_groups.c **** /* For internal use only - execute a 'set bits' command that was pended from
 667:Middlewares/Third_Party/FreeRTOS/Source/event_groups.c **** an interrupt. */
 668:Middlewares/Third_Party/FreeRTOS/Source/event_groups.c **** void vEventGroupSetBitsCallback( void *pvEventGroup, const uint32_t ulBitsToSet )
 669:Middlewares/Third_Party/FreeRTOS/Source/event_groups.c **** {
 670:Middlewares/Third_Party/FreeRTOS/Source/event_groups.c **** 	( void ) xEventGroupSetBits( pvEventGroup, ( EventBits_t ) ulBitsToSet );
 671:Middlewares/Third_Party/FreeRTOS/Source/event_groups.c **** }
 672:Middlewares/Third_Party/FreeRTOS/Source/event_groups.c **** /*-----------------------------------------------------------*/
 673:Middlewares/Third_Party/FreeRTOS/Source/event_groups.c **** 
 674:Middlewares/Third_Party/FreeRTOS/Source/event_groups.c **** /* For internal use only - execute a 'clear bits' command that was pended from
 675:Middlewares/Third_Party/FreeRTOS/Source/event_groups.c **** an interrupt. */
 676:Middlewares/Third_Party/FreeRTOS/Source/event_groups.c **** void vEventGroupClearBitsCallback( void *pvEventGroup, const uint32_t ulBitsToClear )
 677:Middlewares/Third_Party/FreeRTOS/Source/event_groups.c **** {
 678:Middlewares/Third_Party/FreeRTOS/Source/event_groups.c **** 	( void ) xEventGroupClearBits( pvEventGroup, ( EventBits_t ) ulBitsToClear );
 679:Middlewares/Third_Party/FreeRTOS/Source/event_groups.c **** }
 680:Middlewares/Third_Party/FreeRTOS/Source/event_groups.c **** /*-----------------------------------------------------------*/
 681:Middlewares/Third_Party/FreeRTOS/Source/event_groups.c **** 
 682:Middlewares/Third_Party/FreeRTOS/Source/event_groups.c **** static BaseType_t prvTestWaitCondition( const EventBits_t uxCurrentEventBits, const EventBits_t uxB
 683:Middlewares/Third_Party/FreeRTOS/Source/event_groups.c **** {
  29              		.loc 1 683 1 view -0
  30              		.cfi_startproc
  31              		@ args = 0, pretend = 0, frame = 0
  32              		@ frame_needed = 0, uses_anonymous_args = 0
  33              		@ link register save eliminated.
 684:Middlewares/Third_Party/FreeRTOS/Source/event_groups.c **** BaseType_t xWaitConditionMet = pdFALSE;
  34              		.loc 1 684 1 view .LVU1
 685:Middlewares/Third_Party/FreeRTOS/Source/event_groups.c **** 
 686:Middlewares/Third_Party/FreeRTOS/Source/event_groups.c **** 	if( xWaitForAllBits == pdFALSE )
  35              		.loc 1 686 2 view .LVU2
  36              		.loc 1 686 4 is_stmt 0 view .LVU3
  37 0000 1AB9     		cbnz	r2, .L2
 687:Middlewares/Third_Party/FreeRTOS/Source/event_groups.c **** 	{
 688:Middlewares/Third_Party/FreeRTOS/Source/event_groups.c **** 		/* Task only has to wait for one bit within uxBitsToWaitFor to be
 689:Middlewares/Third_Party/FreeRTOS/Source/event_groups.c **** 		set.  Is one already set? */
 690:Middlewares/Third_Party/FreeRTOS/Source/event_groups.c **** 		if( ( uxCurrentEventBits & uxBitsToWaitFor ) != ( EventBits_t ) 0 )
  38              		.loc 1 690 3 is_stmt 1 view .LVU4
  39              		.loc 1 690 5 is_stmt 0 view .LVU5
  40 0002 0842     		tst	r0, r1
  41 0004 06D1     		bne	.L4
 684:Middlewares/Third_Party/FreeRTOS/Source/event_groups.c **** 
  42              		.loc 1 684 12 view .LVU6
  43 0006 0020     		movs	r0, #0
  44              	.LVL1:
 684:Middlewares/Third_Party/FreeRTOS/Source/event_groups.c **** 
  45              		.loc 1 684 12 view .LVU7
  46 0008 7047     		bx	lr
  47              	.LVL2:
  48              	.L2:
 691:Middlewares/Third_Party/FreeRTOS/Source/event_groups.c **** 		{
 692:Middlewares/Third_Party/FreeRTOS/Source/event_groups.c **** 			xWaitConditionMet = pdTRUE;
ARM GAS  /var/folders/n1/76bg37b13ls08p1dhb9rhvd40000gn/T//ccOlpsUK.s 			page 14


 693:Middlewares/Third_Party/FreeRTOS/Source/event_groups.c **** 		}
 694:Middlewares/Third_Party/FreeRTOS/Source/event_groups.c **** 		else
 695:Middlewares/Third_Party/FreeRTOS/Source/event_groups.c **** 		{
 696:Middlewares/Third_Party/FreeRTOS/Source/event_groups.c **** 			mtCOVERAGE_TEST_MARKER();
 697:Middlewares/Third_Party/FreeRTOS/Source/event_groups.c **** 		}
 698:Middlewares/Third_Party/FreeRTOS/Source/event_groups.c **** 	}
 699:Middlewares/Third_Party/FreeRTOS/Source/event_groups.c **** 	else
 700:Middlewares/Third_Party/FreeRTOS/Source/event_groups.c **** 	{
 701:Middlewares/Third_Party/FreeRTOS/Source/event_groups.c **** 		/* Task has to wait for all the bits in uxBitsToWaitFor to be set.
 702:Middlewares/Third_Party/FreeRTOS/Source/event_groups.c **** 		Are they set already? */
 703:Middlewares/Third_Party/FreeRTOS/Source/event_groups.c **** 		if( ( uxCurrentEventBits & uxBitsToWaitFor ) == uxBitsToWaitFor )
  49              		.loc 1 703 3 is_stmt 1 view .LVU8
  50              		.loc 1 703 5 is_stmt 0 view .LVU9
  51 000a 31EA0003 		bics	r3, r1, r0
  52 000e 03D0     		beq	.L5
 684:Middlewares/Third_Party/FreeRTOS/Source/event_groups.c **** 
  53              		.loc 1 684 12 view .LVU10
  54 0010 0020     		movs	r0, #0
  55              	.LVL3:
 684:Middlewares/Third_Party/FreeRTOS/Source/event_groups.c **** 
  56              		.loc 1 684 12 view .LVU11
  57 0012 7047     		bx	lr
  58              	.LVL4:
  59              	.L4:
 692:Middlewares/Third_Party/FreeRTOS/Source/event_groups.c **** 		}
  60              		.loc 1 692 22 view .LVU12
  61 0014 0120     		movs	r0, #1
  62              	.LVL5:
 692:Middlewares/Third_Party/FreeRTOS/Source/event_groups.c **** 		}
  63              		.loc 1 692 22 view .LVU13
  64 0016 7047     		bx	lr
  65              	.LVL6:
  66              	.L5:
 704:Middlewares/Third_Party/FreeRTOS/Source/event_groups.c **** 		{
 705:Middlewares/Third_Party/FreeRTOS/Source/event_groups.c **** 			xWaitConditionMet = pdTRUE;
  67              		.loc 1 705 22 view .LVU14
  68 0018 0120     		movs	r0, #1
  69              	.LVL7:
 706:Middlewares/Third_Party/FreeRTOS/Source/event_groups.c **** 		}
 707:Middlewares/Third_Party/FreeRTOS/Source/event_groups.c **** 		else
 708:Middlewares/Third_Party/FreeRTOS/Source/event_groups.c **** 		{
 709:Middlewares/Third_Party/FreeRTOS/Source/event_groups.c **** 			mtCOVERAGE_TEST_MARKER();
  70              		.loc 1 709 28 is_stmt 1 view .LVU15
 710:Middlewares/Third_Party/FreeRTOS/Source/event_groups.c **** 		}
 711:Middlewares/Third_Party/FreeRTOS/Source/event_groups.c **** 	}
 712:Middlewares/Third_Party/FreeRTOS/Source/event_groups.c **** 
 713:Middlewares/Third_Party/FreeRTOS/Source/event_groups.c **** 	return xWaitConditionMet;
  71              		.loc 1 713 2 view .LVU16
 714:Middlewares/Third_Party/FreeRTOS/Source/event_groups.c **** }
  72              		.loc 1 714 1 is_stmt 0 view .LVU17
  73 001a 7047     		bx	lr
  74              		.cfi_endproc
  75              	.LFE14:
  77              		.section	.text.xEventGroupCreate,"ax",%progbits
  78              		.align	1
  79              		.global	xEventGroupCreate
  80              		.syntax unified
ARM GAS  /var/folders/n1/76bg37b13ls08p1dhb9rhvd40000gn/T//ccOlpsUK.s 			page 15


  81              		.thumb
  82              		.thumb_func
  83              		.fpu fpv4-sp-d16
  85              	xEventGroupCreate:
  86              	.LFB5:
 175:Middlewares/Third_Party/FreeRTOS/Source/event_groups.c **** 	EventGroup_t *pxEventBits;
  87              		.loc 1 175 2 is_stmt 1 view -0
  88              		.cfi_startproc
  89              		@ args = 0, pretend = 0, frame = 0
  90              		@ frame_needed = 0, uses_anonymous_args = 0
  91 0000 10B5     		push	{r4, lr}
  92              	.LCFI0:
  93              		.cfi_def_cfa_offset 8
  94              		.cfi_offset 4, -8
  95              		.cfi_offset 14, -4
 176:Middlewares/Third_Party/FreeRTOS/Source/event_groups.c **** 
  96              		.loc 1 176 2 view .LVU19
 179:Middlewares/Third_Party/FreeRTOS/Source/event_groups.c **** 
  97              		.loc 1 179 3 view .LVU20
 179:Middlewares/Third_Party/FreeRTOS/Source/event_groups.c **** 
  98              		.loc 1 179 36 is_stmt 0 view .LVU21
  99 0002 1820     		movs	r0, #24
 100 0004 FFF7FEFF 		bl	pvPortMalloc
 101              	.LVL8:
 181:Middlewares/Third_Party/FreeRTOS/Source/event_groups.c **** 		{
 102              		.loc 1 181 3 is_stmt 1 view .LVU22
 181:Middlewares/Third_Party/FreeRTOS/Source/event_groups.c **** 		{
 103              		.loc 1 181 5 is_stmt 0 view .LVU23
 104 0008 0446     		mov	r4, r0
 105 000a 20B1     		cbz	r0, .L6
 183:Middlewares/Third_Party/FreeRTOS/Source/event_groups.c **** 			vListInitialise( &( pxEventBits->xTasksWaitingForBits ) );
 106              		.loc 1 183 4 is_stmt 1 view .LVU24
 183:Middlewares/Third_Party/FreeRTOS/Source/event_groups.c **** 			vListInitialise( &( pxEventBits->xTasksWaitingForBits ) );
 107              		.loc 1 183 29 is_stmt 0 view .LVU25
 108 000c 0023     		movs	r3, #0
 109 000e 40F8043B 		str	r3, [r0], #4
 110              	.LVL9:
 184:Middlewares/Third_Party/FreeRTOS/Source/event_groups.c **** 
 111              		.loc 1 184 4 is_stmt 1 view .LVU26
 112 0012 FFF7FEFF 		bl	vListInitialise
 113              	.LVL10:
 195:Middlewares/Third_Party/FreeRTOS/Source/event_groups.c **** 		}
 114              		.loc 1 195 42 view .LVU27
 199:Middlewares/Third_Party/FreeRTOS/Source/event_groups.c **** 		}
 115              		.loc 1 199 36 view .LVU28
 202:Middlewares/Third_Party/FreeRTOS/Source/event_groups.c **** 	}
 116              		.loc 1 202 3 view .LVU29
 117              	.L6:
 203:Middlewares/Third_Party/FreeRTOS/Source/event_groups.c **** 
 118              		.loc 1 203 2 is_stmt 0 view .LVU30
 119 0016 2046     		mov	r0, r4
 120 0018 10BD     		pop	{r4, pc}
 203:Middlewares/Third_Party/FreeRTOS/Source/event_groups.c **** 
 121              		.loc 1 203 2 view .LVU31
 122              		.cfi_endproc
 123              	.LFE5:
 125              		.section	.text.xEventGroupWaitBits,"ax",%progbits
ARM GAS  /var/folders/n1/76bg37b13ls08p1dhb9rhvd40000gn/T//ccOlpsUK.s 			page 16


 126              		.align	1
 127              		.global	xEventGroupWaitBits
 128              		.syntax unified
 129              		.thumb
 130              		.thumb_func
 131              		.fpu fpv4-sp-d16
 133              	xEventGroupWaitBits:
 134              	.LVL11:
 135              	.LFB7:
 325:Middlewares/Third_Party/FreeRTOS/Source/event_groups.c **** EventGroup_t *pxEventBits = ( EventGroup_t * ) xEventGroup;
 136              		.loc 1 325 1 is_stmt 1 view -0
 137              		.cfi_startproc
 138              		@ args = 4, pretend = 0, frame = 0
 139              		@ frame_needed = 0, uses_anonymous_args = 0
 325:Middlewares/Third_Party/FreeRTOS/Source/event_groups.c **** EventGroup_t *pxEventBits = ( EventGroup_t * ) xEventGroup;
 140              		.loc 1 325 1 is_stmt 0 view .LVU33
 141 0000 2DE9F047 		push	{r4, r5, r6, r7, r8, r9, r10, lr}
 142              	.LCFI1:
 143              		.cfi_def_cfa_offset 32
 144              		.cfi_offset 4, -32
 145              		.cfi_offset 5, -28
 146              		.cfi_offset 6, -24
 147              		.cfi_offset 7, -20
 148              		.cfi_offset 8, -16
 149              		.cfi_offset 9, -12
 150              		.cfi_offset 10, -8
 151              		.cfi_offset 14, -4
 152 0004 DDF82090 		ldr	r9, [sp, #32]
 326:Middlewares/Third_Party/FreeRTOS/Source/event_groups.c **** EventBits_t uxReturn, uxControlBits = 0;
 153              		.loc 1 326 1 is_stmt 1 view .LVU34
 154              	.LVL12:
 327:Middlewares/Third_Party/FreeRTOS/Source/event_groups.c **** BaseType_t xWaitConditionMet, xAlreadyYielded;
 155              		.loc 1 327 1 view .LVU35
 328:Middlewares/Third_Party/FreeRTOS/Source/event_groups.c **** BaseType_t xTimeoutOccurred = pdFALSE;
 156              		.loc 1 328 1 view .LVU36
 329:Middlewares/Third_Party/FreeRTOS/Source/event_groups.c **** 
 157              		.loc 1 329 1 view .LVU37
 333:Middlewares/Third_Party/FreeRTOS/Source/event_groups.c **** 	configASSERT( ( uxBitsToWaitFor & eventEVENT_BITS_CONTROL_BYTES ) == 0 );
 158              		.loc 1 333 2 view .LVU38
 159 0008 60B1     		cbz	r0, .L29
 160 000a 0646     		mov	r6, r0
 333:Middlewares/Third_Party/FreeRTOS/Source/event_groups.c **** 	configASSERT( ( uxBitsToWaitFor & eventEVENT_BITS_CONTROL_BYTES ) == 0 );
 161              		.loc 1 333 29 discriminator 2 view .LVU39
 334:Middlewares/Third_Party/FreeRTOS/Source/event_groups.c **** 	configASSERT( uxBitsToWaitFor != 0 );
 162              		.loc 1 334 2 discriminator 2 view .LVU40
 163 000c 11F07F4A 		ands	r10, r1, #-16777216
 164 0010 11D0     		beq	.L12
 334:Middlewares/Third_Party/FreeRTOS/Source/event_groups.c **** 	configASSERT( uxBitsToWaitFor != 0 );
 165              		.loc 1 334 2 view .LVU41
 166              	.LBB31:
 167              	.LBI31:
 168              		.file 2 "Middlewares/Third_Party/FreeRTOS/Source/portable/GCC/ARM_CM4F/portmacro.h"
   1:Middlewares/Third_Party/FreeRTOS/Source/portable/GCC/ARM_CM4F/portmacro.h **** /*
   2:Middlewares/Third_Party/FreeRTOS/Source/portable/GCC/ARM_CM4F/portmacro.h ****     FreeRTOS V9.0.0 - Copyright (C) 2016 Real Time Engineers Ltd.
   3:Middlewares/Third_Party/FreeRTOS/Source/portable/GCC/ARM_CM4F/portmacro.h ****     All rights reserved
   4:Middlewares/Third_Party/FreeRTOS/Source/portable/GCC/ARM_CM4F/portmacro.h **** 
   5:Middlewares/Third_Party/FreeRTOS/Source/portable/GCC/ARM_CM4F/portmacro.h ****     VISIT http://www.FreeRTOS.org TO ENSURE YOU ARE USING THE LATEST VERSION.
ARM GAS  /var/folders/n1/76bg37b13ls08p1dhb9rhvd40000gn/T//ccOlpsUK.s 			page 17


   6:Middlewares/Third_Party/FreeRTOS/Source/portable/GCC/ARM_CM4F/portmacro.h **** 
   7:Middlewares/Third_Party/FreeRTOS/Source/portable/GCC/ARM_CM4F/portmacro.h ****     This file is part of the FreeRTOS distribution.
   8:Middlewares/Third_Party/FreeRTOS/Source/portable/GCC/ARM_CM4F/portmacro.h **** 
   9:Middlewares/Third_Party/FreeRTOS/Source/portable/GCC/ARM_CM4F/portmacro.h ****     FreeRTOS is free software; you can redistribute it and/or modify it under
  10:Middlewares/Third_Party/FreeRTOS/Source/portable/GCC/ARM_CM4F/portmacro.h ****     the terms of the GNU General Public License (version 2) as published by the
  11:Middlewares/Third_Party/FreeRTOS/Source/portable/GCC/ARM_CM4F/portmacro.h ****     Free Software Foundation >>>> AND MODIFIED BY <<<< the FreeRTOS exception.
  12:Middlewares/Third_Party/FreeRTOS/Source/portable/GCC/ARM_CM4F/portmacro.h **** 
  13:Middlewares/Third_Party/FreeRTOS/Source/portable/GCC/ARM_CM4F/portmacro.h ****     ***************************************************************************
  14:Middlewares/Third_Party/FreeRTOS/Source/portable/GCC/ARM_CM4F/portmacro.h ****     >>!   NOTE: The modification to the GPL is included to allow you to     !<<
  15:Middlewares/Third_Party/FreeRTOS/Source/portable/GCC/ARM_CM4F/portmacro.h ****     >>!   distribute a combined work that includes FreeRTOS without being   !<<
  16:Middlewares/Third_Party/FreeRTOS/Source/portable/GCC/ARM_CM4F/portmacro.h ****     >>!   obliged to provide the source code for proprietary components     !<<
  17:Middlewares/Third_Party/FreeRTOS/Source/portable/GCC/ARM_CM4F/portmacro.h ****     >>!   outside of the FreeRTOS kernel.                                   !<<
  18:Middlewares/Third_Party/FreeRTOS/Source/portable/GCC/ARM_CM4F/portmacro.h ****     ***************************************************************************
  19:Middlewares/Third_Party/FreeRTOS/Source/portable/GCC/ARM_CM4F/portmacro.h **** 
  20:Middlewares/Third_Party/FreeRTOS/Source/portable/GCC/ARM_CM4F/portmacro.h ****     FreeRTOS is distributed in the hope that it will be useful, but WITHOUT ANY
  21:Middlewares/Third_Party/FreeRTOS/Source/portable/GCC/ARM_CM4F/portmacro.h ****     WARRANTY; without even the implied warranty of MERCHANTABILITY or FITNESS
  22:Middlewares/Third_Party/FreeRTOS/Source/portable/GCC/ARM_CM4F/portmacro.h ****     FOR A PARTICULAR PURPOSE.  Full license text is available on the following
  23:Middlewares/Third_Party/FreeRTOS/Source/portable/GCC/ARM_CM4F/portmacro.h ****     link: http://www.freertos.org/a00114.html
  24:Middlewares/Third_Party/FreeRTOS/Source/portable/GCC/ARM_CM4F/portmacro.h **** 
  25:Middlewares/Third_Party/FreeRTOS/Source/portable/GCC/ARM_CM4F/portmacro.h ****     ***************************************************************************
  26:Middlewares/Third_Party/FreeRTOS/Source/portable/GCC/ARM_CM4F/portmacro.h ****      *                                                                       *
  27:Middlewares/Third_Party/FreeRTOS/Source/portable/GCC/ARM_CM4F/portmacro.h ****      *    FreeRTOS provides completely free yet professionally developed,    *
  28:Middlewares/Third_Party/FreeRTOS/Source/portable/GCC/ARM_CM4F/portmacro.h ****      *    robust, strictly quality controlled, supported, and cross          *
  29:Middlewares/Third_Party/FreeRTOS/Source/portable/GCC/ARM_CM4F/portmacro.h ****      *    platform software that is more than just the market leader, it     *
  30:Middlewares/Third_Party/FreeRTOS/Source/portable/GCC/ARM_CM4F/portmacro.h ****      *    is the industry's de facto standard.                               *
  31:Middlewares/Third_Party/FreeRTOS/Source/portable/GCC/ARM_CM4F/portmacro.h ****      *                                                                       *
  32:Middlewares/Third_Party/FreeRTOS/Source/portable/GCC/ARM_CM4F/portmacro.h ****      *    Help yourself get started quickly while simultaneously helping     *
  33:Middlewares/Third_Party/FreeRTOS/Source/portable/GCC/ARM_CM4F/portmacro.h ****      *    to support the FreeRTOS project by purchasing a FreeRTOS           *
  34:Middlewares/Third_Party/FreeRTOS/Source/portable/GCC/ARM_CM4F/portmacro.h ****      *    tutorial book, reference manual, or both:                          *
  35:Middlewares/Third_Party/FreeRTOS/Source/portable/GCC/ARM_CM4F/portmacro.h ****      *    http://www.FreeRTOS.org/Documentation                              *
  36:Middlewares/Third_Party/FreeRTOS/Source/portable/GCC/ARM_CM4F/portmacro.h ****      *                                                                       *
  37:Middlewares/Third_Party/FreeRTOS/Source/portable/GCC/ARM_CM4F/portmacro.h ****     ***************************************************************************
  38:Middlewares/Third_Party/FreeRTOS/Source/portable/GCC/ARM_CM4F/portmacro.h **** 
  39:Middlewares/Third_Party/FreeRTOS/Source/portable/GCC/ARM_CM4F/portmacro.h ****     http://www.FreeRTOS.org/FAQHelp.html - Having a problem?  Start by reading
  40:Middlewares/Third_Party/FreeRTOS/Source/portable/GCC/ARM_CM4F/portmacro.h ****     the FAQ page "My application does not run, what could be wrong?".  Have you
  41:Middlewares/Third_Party/FreeRTOS/Source/portable/GCC/ARM_CM4F/portmacro.h ****     defined configASSERT()?
  42:Middlewares/Third_Party/FreeRTOS/Source/portable/GCC/ARM_CM4F/portmacro.h **** 
  43:Middlewares/Third_Party/FreeRTOS/Source/portable/GCC/ARM_CM4F/portmacro.h ****     http://www.FreeRTOS.org/support - In return for receiving this top quality
  44:Middlewares/Third_Party/FreeRTOS/Source/portable/GCC/ARM_CM4F/portmacro.h ****     embedded software for free we request you assist our global community by
  45:Middlewares/Third_Party/FreeRTOS/Source/portable/GCC/ARM_CM4F/portmacro.h ****     participating in the support forum.
  46:Middlewares/Third_Party/FreeRTOS/Source/portable/GCC/ARM_CM4F/portmacro.h **** 
  47:Middlewares/Third_Party/FreeRTOS/Source/portable/GCC/ARM_CM4F/portmacro.h ****     http://www.FreeRTOS.org/training - Investing in training allows your team to
  48:Middlewares/Third_Party/FreeRTOS/Source/portable/GCC/ARM_CM4F/portmacro.h ****     be as productive as possible as early as possible.  Now you can receive
  49:Middlewares/Third_Party/FreeRTOS/Source/portable/GCC/ARM_CM4F/portmacro.h ****     FreeRTOS training directly from Richard Barry, CEO of Real Time Engineers
  50:Middlewares/Third_Party/FreeRTOS/Source/portable/GCC/ARM_CM4F/portmacro.h ****     Ltd, and the world's leading authority on the world's leading RTOS.
  51:Middlewares/Third_Party/FreeRTOS/Source/portable/GCC/ARM_CM4F/portmacro.h **** 
  52:Middlewares/Third_Party/FreeRTOS/Source/portable/GCC/ARM_CM4F/portmacro.h ****     http://www.FreeRTOS.org/plus - A selection of FreeRTOS ecosystem products,
  53:Middlewares/Third_Party/FreeRTOS/Source/portable/GCC/ARM_CM4F/portmacro.h ****     including FreeRTOS+Trace - an indispensable productivity tool, a DOS
  54:Middlewares/Third_Party/FreeRTOS/Source/portable/GCC/ARM_CM4F/portmacro.h ****     compatible FAT file system, and our tiny thread aware UDP/IP stack.
  55:Middlewares/Third_Party/FreeRTOS/Source/portable/GCC/ARM_CM4F/portmacro.h **** 
  56:Middlewares/Third_Party/FreeRTOS/Source/portable/GCC/ARM_CM4F/portmacro.h ****     http://www.FreeRTOS.org/labs - Where new FreeRTOS products go to incubate.
  57:Middlewares/Third_Party/FreeRTOS/Source/portable/GCC/ARM_CM4F/portmacro.h ****     Come and try FreeRTOS+TCP, our new open source TCP/IP stack for FreeRTOS.
  58:Middlewares/Third_Party/FreeRTOS/Source/portable/GCC/ARM_CM4F/portmacro.h **** 
  59:Middlewares/Third_Party/FreeRTOS/Source/portable/GCC/ARM_CM4F/portmacro.h ****     http://www.OpenRTOS.com - Real Time Engineers ltd. license FreeRTOS to High
  60:Middlewares/Third_Party/FreeRTOS/Source/portable/GCC/ARM_CM4F/portmacro.h ****     Integrity Systems ltd. to sell under the OpenRTOS brand.  Low cost OpenRTOS
  61:Middlewares/Third_Party/FreeRTOS/Source/portable/GCC/ARM_CM4F/portmacro.h ****     licenses offer ticketed support, indemnification and commercial middleware.
  62:Middlewares/Third_Party/FreeRTOS/Source/portable/GCC/ARM_CM4F/portmacro.h **** 
ARM GAS  /var/folders/n1/76bg37b13ls08p1dhb9rhvd40000gn/T//ccOlpsUK.s 			page 18


  63:Middlewares/Third_Party/FreeRTOS/Source/portable/GCC/ARM_CM4F/portmacro.h ****     http://www.SafeRTOS.com - High Integrity Systems also provide a safety
  64:Middlewares/Third_Party/FreeRTOS/Source/portable/GCC/ARM_CM4F/portmacro.h ****     engineered and independently SIL3 certified version for use in safety and
  65:Middlewares/Third_Party/FreeRTOS/Source/portable/GCC/ARM_CM4F/portmacro.h ****     mission critical applications that require provable dependability.
  66:Middlewares/Third_Party/FreeRTOS/Source/portable/GCC/ARM_CM4F/portmacro.h **** 
  67:Middlewares/Third_Party/FreeRTOS/Source/portable/GCC/ARM_CM4F/portmacro.h ****     1 tab == 4 spaces!
  68:Middlewares/Third_Party/FreeRTOS/Source/portable/GCC/ARM_CM4F/portmacro.h **** */
  69:Middlewares/Third_Party/FreeRTOS/Source/portable/GCC/ARM_CM4F/portmacro.h **** 
  70:Middlewares/Third_Party/FreeRTOS/Source/portable/GCC/ARM_CM4F/portmacro.h **** 
  71:Middlewares/Third_Party/FreeRTOS/Source/portable/GCC/ARM_CM4F/portmacro.h **** #ifndef PORTMACRO_H
  72:Middlewares/Third_Party/FreeRTOS/Source/portable/GCC/ARM_CM4F/portmacro.h **** #define PORTMACRO_H
  73:Middlewares/Third_Party/FreeRTOS/Source/portable/GCC/ARM_CM4F/portmacro.h **** 
  74:Middlewares/Third_Party/FreeRTOS/Source/portable/GCC/ARM_CM4F/portmacro.h **** #ifdef __cplusplus
  75:Middlewares/Third_Party/FreeRTOS/Source/portable/GCC/ARM_CM4F/portmacro.h **** extern "C" {
  76:Middlewares/Third_Party/FreeRTOS/Source/portable/GCC/ARM_CM4F/portmacro.h **** #endif
  77:Middlewares/Third_Party/FreeRTOS/Source/portable/GCC/ARM_CM4F/portmacro.h **** 
  78:Middlewares/Third_Party/FreeRTOS/Source/portable/GCC/ARM_CM4F/portmacro.h **** /*-----------------------------------------------------------
  79:Middlewares/Third_Party/FreeRTOS/Source/portable/GCC/ARM_CM4F/portmacro.h ****  * Port specific definitions.
  80:Middlewares/Third_Party/FreeRTOS/Source/portable/GCC/ARM_CM4F/portmacro.h ****  *
  81:Middlewares/Third_Party/FreeRTOS/Source/portable/GCC/ARM_CM4F/portmacro.h ****  * The settings in this file configure FreeRTOS correctly for the
  82:Middlewares/Third_Party/FreeRTOS/Source/portable/GCC/ARM_CM4F/portmacro.h ****  * given hardware and compiler.
  83:Middlewares/Third_Party/FreeRTOS/Source/portable/GCC/ARM_CM4F/portmacro.h ****  *
  84:Middlewares/Third_Party/FreeRTOS/Source/portable/GCC/ARM_CM4F/portmacro.h ****  * These settings should not be altered.
  85:Middlewares/Third_Party/FreeRTOS/Source/portable/GCC/ARM_CM4F/portmacro.h ****  *-----------------------------------------------------------
  86:Middlewares/Third_Party/FreeRTOS/Source/portable/GCC/ARM_CM4F/portmacro.h ****  */
  87:Middlewares/Third_Party/FreeRTOS/Source/portable/GCC/ARM_CM4F/portmacro.h **** 
  88:Middlewares/Third_Party/FreeRTOS/Source/portable/GCC/ARM_CM4F/portmacro.h **** /* Type definitions. */
  89:Middlewares/Third_Party/FreeRTOS/Source/portable/GCC/ARM_CM4F/portmacro.h **** #define portCHAR		char
  90:Middlewares/Third_Party/FreeRTOS/Source/portable/GCC/ARM_CM4F/portmacro.h **** #define portFLOAT		float
  91:Middlewares/Third_Party/FreeRTOS/Source/portable/GCC/ARM_CM4F/portmacro.h **** #define portDOUBLE		double
  92:Middlewares/Third_Party/FreeRTOS/Source/portable/GCC/ARM_CM4F/portmacro.h **** #define portLONG		long
  93:Middlewares/Third_Party/FreeRTOS/Source/portable/GCC/ARM_CM4F/portmacro.h **** #define portSHORT		short
  94:Middlewares/Third_Party/FreeRTOS/Source/portable/GCC/ARM_CM4F/portmacro.h **** #define portSTACK_TYPE	uint32_t
  95:Middlewares/Third_Party/FreeRTOS/Source/portable/GCC/ARM_CM4F/portmacro.h **** #define portBASE_TYPE	long
  96:Middlewares/Third_Party/FreeRTOS/Source/portable/GCC/ARM_CM4F/portmacro.h **** 
  97:Middlewares/Third_Party/FreeRTOS/Source/portable/GCC/ARM_CM4F/portmacro.h **** typedef portSTACK_TYPE StackType_t;
  98:Middlewares/Third_Party/FreeRTOS/Source/portable/GCC/ARM_CM4F/portmacro.h **** typedef long BaseType_t;
  99:Middlewares/Third_Party/FreeRTOS/Source/portable/GCC/ARM_CM4F/portmacro.h **** typedef unsigned long UBaseType_t;
 100:Middlewares/Third_Party/FreeRTOS/Source/portable/GCC/ARM_CM4F/portmacro.h **** 
 101:Middlewares/Third_Party/FreeRTOS/Source/portable/GCC/ARM_CM4F/portmacro.h **** #if( configUSE_16_BIT_TICKS == 1 )
 102:Middlewares/Third_Party/FreeRTOS/Source/portable/GCC/ARM_CM4F/portmacro.h **** 	typedef uint16_t TickType_t;
 103:Middlewares/Third_Party/FreeRTOS/Source/portable/GCC/ARM_CM4F/portmacro.h **** 	#define portMAX_DELAY ( TickType_t ) 0xffff
 104:Middlewares/Third_Party/FreeRTOS/Source/portable/GCC/ARM_CM4F/portmacro.h **** #else
 105:Middlewares/Third_Party/FreeRTOS/Source/portable/GCC/ARM_CM4F/portmacro.h **** 	typedef uint32_t TickType_t;
 106:Middlewares/Third_Party/FreeRTOS/Source/portable/GCC/ARM_CM4F/portmacro.h **** 	#define portMAX_DELAY ( TickType_t ) 0xffffffffUL
 107:Middlewares/Third_Party/FreeRTOS/Source/portable/GCC/ARM_CM4F/portmacro.h **** 
 108:Middlewares/Third_Party/FreeRTOS/Source/portable/GCC/ARM_CM4F/portmacro.h **** 	/* 32-bit tick type on a 32-bit architecture, so reads of the tick count do
 109:Middlewares/Third_Party/FreeRTOS/Source/portable/GCC/ARM_CM4F/portmacro.h **** 	not need to be guarded with a critical section. */
 110:Middlewares/Third_Party/FreeRTOS/Source/portable/GCC/ARM_CM4F/portmacro.h **** 	#define portTICK_TYPE_IS_ATOMIC 1
 111:Middlewares/Third_Party/FreeRTOS/Source/portable/GCC/ARM_CM4F/portmacro.h **** #endif
 112:Middlewares/Third_Party/FreeRTOS/Source/portable/GCC/ARM_CM4F/portmacro.h **** /*-----------------------------------------------------------*/
 113:Middlewares/Third_Party/FreeRTOS/Source/portable/GCC/ARM_CM4F/portmacro.h **** 
 114:Middlewares/Third_Party/FreeRTOS/Source/portable/GCC/ARM_CM4F/portmacro.h **** /* Architecture specifics. */
 115:Middlewares/Third_Party/FreeRTOS/Source/portable/GCC/ARM_CM4F/portmacro.h **** #define portSTACK_GROWTH			( -1 )
 116:Middlewares/Third_Party/FreeRTOS/Source/portable/GCC/ARM_CM4F/portmacro.h **** #define portTICK_PERIOD_MS			( ( TickType_t ) 1000 / configTICK_RATE_HZ )
 117:Middlewares/Third_Party/FreeRTOS/Source/portable/GCC/ARM_CM4F/portmacro.h **** #define portBYTE_ALIGNMENT			8
 118:Middlewares/Third_Party/FreeRTOS/Source/portable/GCC/ARM_CM4F/portmacro.h **** /*-----------------------------------------------------------*/
 119:Middlewares/Third_Party/FreeRTOS/Source/portable/GCC/ARM_CM4F/portmacro.h **** 
ARM GAS  /var/folders/n1/76bg37b13ls08p1dhb9rhvd40000gn/T//ccOlpsUK.s 			page 19


 120:Middlewares/Third_Party/FreeRTOS/Source/portable/GCC/ARM_CM4F/portmacro.h **** /* Scheduler utilities. */
 121:Middlewares/Third_Party/FreeRTOS/Source/portable/GCC/ARM_CM4F/portmacro.h **** #define portYIELD() 															\
 122:Middlewares/Third_Party/FreeRTOS/Source/portable/GCC/ARM_CM4F/portmacro.h **** {																				\
 123:Middlewares/Third_Party/FreeRTOS/Source/portable/GCC/ARM_CM4F/portmacro.h **** 	/* Set a PendSV to request a context switch. */								\
 124:Middlewares/Third_Party/FreeRTOS/Source/portable/GCC/ARM_CM4F/portmacro.h **** 	portNVIC_INT_CTRL_REG = portNVIC_PENDSVSET_BIT;								\
 125:Middlewares/Third_Party/FreeRTOS/Source/portable/GCC/ARM_CM4F/portmacro.h **** 																				\
 126:Middlewares/Third_Party/FreeRTOS/Source/portable/GCC/ARM_CM4F/portmacro.h **** 	/* Barriers are normally not required but do ensure the code is completely	\
 127:Middlewares/Third_Party/FreeRTOS/Source/portable/GCC/ARM_CM4F/portmacro.h **** 	within the specified behaviour for the architecture. */						\
 128:Middlewares/Third_Party/FreeRTOS/Source/portable/GCC/ARM_CM4F/portmacro.h **** 	__asm volatile( "dsb" );													\
 129:Middlewares/Third_Party/FreeRTOS/Source/portable/GCC/ARM_CM4F/portmacro.h **** 	__asm volatile( "isb" );													\
 130:Middlewares/Third_Party/FreeRTOS/Source/portable/GCC/ARM_CM4F/portmacro.h **** }
 131:Middlewares/Third_Party/FreeRTOS/Source/portable/GCC/ARM_CM4F/portmacro.h **** 
 132:Middlewares/Third_Party/FreeRTOS/Source/portable/GCC/ARM_CM4F/portmacro.h **** #define portNVIC_INT_CTRL_REG		( * ( ( volatile uint32_t * ) 0xe000ed04 ) )
 133:Middlewares/Third_Party/FreeRTOS/Source/portable/GCC/ARM_CM4F/portmacro.h **** #define portNVIC_PENDSVSET_BIT		( 1UL << 28UL )
 134:Middlewares/Third_Party/FreeRTOS/Source/portable/GCC/ARM_CM4F/portmacro.h **** #define portEND_SWITCHING_ISR( xSwitchRequired ) if( xSwitchRequired != pdFALSE ) portYIELD()
 135:Middlewares/Third_Party/FreeRTOS/Source/portable/GCC/ARM_CM4F/portmacro.h **** #define portYIELD_FROM_ISR( x ) portEND_SWITCHING_ISR( x )
 136:Middlewares/Third_Party/FreeRTOS/Source/portable/GCC/ARM_CM4F/portmacro.h **** /*-----------------------------------------------------------*/
 137:Middlewares/Third_Party/FreeRTOS/Source/portable/GCC/ARM_CM4F/portmacro.h **** 
 138:Middlewares/Third_Party/FreeRTOS/Source/portable/GCC/ARM_CM4F/portmacro.h **** /* Critical section management. */
 139:Middlewares/Third_Party/FreeRTOS/Source/portable/GCC/ARM_CM4F/portmacro.h **** extern void vPortEnterCritical( void );
 140:Middlewares/Third_Party/FreeRTOS/Source/portable/GCC/ARM_CM4F/portmacro.h **** extern void vPortExitCritical( void );
 141:Middlewares/Third_Party/FreeRTOS/Source/portable/GCC/ARM_CM4F/portmacro.h **** #define portSET_INTERRUPT_MASK_FROM_ISR()		ulPortRaiseBASEPRI()
 142:Middlewares/Third_Party/FreeRTOS/Source/portable/GCC/ARM_CM4F/portmacro.h **** #define portCLEAR_INTERRUPT_MASK_FROM_ISR(x)	vPortSetBASEPRI(x)
 143:Middlewares/Third_Party/FreeRTOS/Source/portable/GCC/ARM_CM4F/portmacro.h **** #define portDISABLE_INTERRUPTS()				vPortRaiseBASEPRI()
 144:Middlewares/Third_Party/FreeRTOS/Source/portable/GCC/ARM_CM4F/portmacro.h **** #define portENABLE_INTERRUPTS()					vPortSetBASEPRI(0)
 145:Middlewares/Third_Party/FreeRTOS/Source/portable/GCC/ARM_CM4F/portmacro.h **** #define portENTER_CRITICAL()					vPortEnterCritical()
 146:Middlewares/Third_Party/FreeRTOS/Source/portable/GCC/ARM_CM4F/portmacro.h **** #define portEXIT_CRITICAL()						vPortExitCritical()
 147:Middlewares/Third_Party/FreeRTOS/Source/portable/GCC/ARM_CM4F/portmacro.h **** 
 148:Middlewares/Third_Party/FreeRTOS/Source/portable/GCC/ARM_CM4F/portmacro.h **** /*-----------------------------------------------------------*/
 149:Middlewares/Third_Party/FreeRTOS/Source/portable/GCC/ARM_CM4F/portmacro.h **** 
 150:Middlewares/Third_Party/FreeRTOS/Source/portable/GCC/ARM_CM4F/portmacro.h **** /* Task function macros as described on the FreeRTOS.org WEB site.  These are
 151:Middlewares/Third_Party/FreeRTOS/Source/portable/GCC/ARM_CM4F/portmacro.h **** not necessary for to use this port.  They are defined so the common demo files
 152:Middlewares/Third_Party/FreeRTOS/Source/portable/GCC/ARM_CM4F/portmacro.h **** (which build with all the ports) will build. */
 153:Middlewares/Third_Party/FreeRTOS/Source/portable/GCC/ARM_CM4F/portmacro.h **** #define portTASK_FUNCTION_PROTO( vFunction, pvParameters ) void vFunction( void *pvParameters )
 154:Middlewares/Third_Party/FreeRTOS/Source/portable/GCC/ARM_CM4F/portmacro.h **** #define portTASK_FUNCTION( vFunction, pvParameters ) void vFunction( void *pvParameters )
 155:Middlewares/Third_Party/FreeRTOS/Source/portable/GCC/ARM_CM4F/portmacro.h **** /*-----------------------------------------------------------*/
 156:Middlewares/Third_Party/FreeRTOS/Source/portable/GCC/ARM_CM4F/portmacro.h **** 
 157:Middlewares/Third_Party/FreeRTOS/Source/portable/GCC/ARM_CM4F/portmacro.h **** /* Tickless idle/low power functionality. */
 158:Middlewares/Third_Party/FreeRTOS/Source/portable/GCC/ARM_CM4F/portmacro.h **** #ifndef portSUPPRESS_TICKS_AND_SLEEP
 159:Middlewares/Third_Party/FreeRTOS/Source/portable/GCC/ARM_CM4F/portmacro.h **** 	extern void vPortSuppressTicksAndSleep( TickType_t xExpectedIdleTime );
 160:Middlewares/Third_Party/FreeRTOS/Source/portable/GCC/ARM_CM4F/portmacro.h **** 	#define portSUPPRESS_TICKS_AND_SLEEP( xExpectedIdleTime ) vPortSuppressTicksAndSleep( xExpectedIdl
 161:Middlewares/Third_Party/FreeRTOS/Source/portable/GCC/ARM_CM4F/portmacro.h **** #endif
 162:Middlewares/Third_Party/FreeRTOS/Source/portable/GCC/ARM_CM4F/portmacro.h **** /*-----------------------------------------------------------*/
 163:Middlewares/Third_Party/FreeRTOS/Source/portable/GCC/ARM_CM4F/portmacro.h **** 
 164:Middlewares/Third_Party/FreeRTOS/Source/portable/GCC/ARM_CM4F/portmacro.h **** /* Architecture specific optimisations. */
 165:Middlewares/Third_Party/FreeRTOS/Source/portable/GCC/ARM_CM4F/portmacro.h **** #ifndef configUSE_PORT_OPTIMISED_TASK_SELECTION
 166:Middlewares/Third_Party/FreeRTOS/Source/portable/GCC/ARM_CM4F/portmacro.h **** 	#define configUSE_PORT_OPTIMISED_TASK_SELECTION 1
 167:Middlewares/Third_Party/FreeRTOS/Source/portable/GCC/ARM_CM4F/portmacro.h **** #endif
 168:Middlewares/Third_Party/FreeRTOS/Source/portable/GCC/ARM_CM4F/portmacro.h **** 
 169:Middlewares/Third_Party/FreeRTOS/Source/portable/GCC/ARM_CM4F/portmacro.h **** #if configUSE_PORT_OPTIMISED_TASK_SELECTION == 1
 170:Middlewares/Third_Party/FreeRTOS/Source/portable/GCC/ARM_CM4F/portmacro.h **** 
 171:Middlewares/Third_Party/FreeRTOS/Source/portable/GCC/ARM_CM4F/portmacro.h **** 	/* Generic helper function. */
 172:Middlewares/Third_Party/FreeRTOS/Source/portable/GCC/ARM_CM4F/portmacro.h **** 	__attribute__( ( always_inline ) ) static inline uint8_t ucPortCountLeadingZeros( uint32_t ulBitma
 173:Middlewares/Third_Party/FreeRTOS/Source/portable/GCC/ARM_CM4F/portmacro.h **** 	{
 174:Middlewares/Third_Party/FreeRTOS/Source/portable/GCC/ARM_CM4F/portmacro.h **** 	uint8_t ucReturn;
 175:Middlewares/Third_Party/FreeRTOS/Source/portable/GCC/ARM_CM4F/portmacro.h **** 
 176:Middlewares/Third_Party/FreeRTOS/Source/portable/GCC/ARM_CM4F/portmacro.h **** 		__asm volatile ( "clz %0, %1" : "=r" ( ucReturn ) : "r" ( ulBitmap ) );
ARM GAS  /var/folders/n1/76bg37b13ls08p1dhb9rhvd40000gn/T//ccOlpsUK.s 			page 20


 177:Middlewares/Third_Party/FreeRTOS/Source/portable/GCC/ARM_CM4F/portmacro.h **** 		return ucReturn;
 178:Middlewares/Third_Party/FreeRTOS/Source/portable/GCC/ARM_CM4F/portmacro.h **** 	}
 179:Middlewares/Third_Party/FreeRTOS/Source/portable/GCC/ARM_CM4F/portmacro.h **** 
 180:Middlewares/Third_Party/FreeRTOS/Source/portable/GCC/ARM_CM4F/portmacro.h **** 	/* Check the configuration. */
 181:Middlewares/Third_Party/FreeRTOS/Source/portable/GCC/ARM_CM4F/portmacro.h **** 	#if( configMAX_PRIORITIES > 32 )
 182:Middlewares/Third_Party/FreeRTOS/Source/portable/GCC/ARM_CM4F/portmacro.h **** 		#error configUSE_PORT_OPTIMISED_TASK_SELECTION can only be set to 1 when configMAX_PRIORITIES is 
 183:Middlewares/Third_Party/FreeRTOS/Source/portable/GCC/ARM_CM4F/portmacro.h **** 	#endif
 184:Middlewares/Third_Party/FreeRTOS/Source/portable/GCC/ARM_CM4F/portmacro.h **** 
 185:Middlewares/Third_Party/FreeRTOS/Source/portable/GCC/ARM_CM4F/portmacro.h **** 	/* Store/clear the ready priorities in a bit map. */
 186:Middlewares/Third_Party/FreeRTOS/Source/portable/GCC/ARM_CM4F/portmacro.h **** 	#define portRECORD_READY_PRIORITY( uxPriority, uxReadyPriorities ) ( uxReadyPriorities ) |= ( 1UL 
 187:Middlewares/Third_Party/FreeRTOS/Source/portable/GCC/ARM_CM4F/portmacro.h **** 	#define portRESET_READY_PRIORITY( uxPriority, uxReadyPriorities ) ( uxReadyPriorities ) &= ~( 1UL 
 188:Middlewares/Third_Party/FreeRTOS/Source/portable/GCC/ARM_CM4F/portmacro.h **** 
 189:Middlewares/Third_Party/FreeRTOS/Source/portable/GCC/ARM_CM4F/portmacro.h **** 	/*-----------------------------------------------------------*/
 190:Middlewares/Third_Party/FreeRTOS/Source/portable/GCC/ARM_CM4F/portmacro.h **** 
 191:Middlewares/Third_Party/FreeRTOS/Source/portable/GCC/ARM_CM4F/portmacro.h **** 	#define portGET_HIGHEST_PRIORITY( uxTopPriority, uxReadyPriorities ) uxTopPriority = ( 31UL - ( ui
 192:Middlewares/Third_Party/FreeRTOS/Source/portable/GCC/ARM_CM4F/portmacro.h **** 
 193:Middlewares/Third_Party/FreeRTOS/Source/portable/GCC/ARM_CM4F/portmacro.h **** #endif /* configUSE_PORT_OPTIMISED_TASK_SELECTION */
 194:Middlewares/Third_Party/FreeRTOS/Source/portable/GCC/ARM_CM4F/portmacro.h **** 
 195:Middlewares/Third_Party/FreeRTOS/Source/portable/GCC/ARM_CM4F/portmacro.h **** /*-----------------------------------------------------------*/
 196:Middlewares/Third_Party/FreeRTOS/Source/portable/GCC/ARM_CM4F/portmacro.h **** 
 197:Middlewares/Third_Party/FreeRTOS/Source/portable/GCC/ARM_CM4F/portmacro.h **** #ifdef configASSERT
 198:Middlewares/Third_Party/FreeRTOS/Source/portable/GCC/ARM_CM4F/portmacro.h **** 	void vPortValidateInterruptPriority( void );
 199:Middlewares/Third_Party/FreeRTOS/Source/portable/GCC/ARM_CM4F/portmacro.h **** 	#define portASSERT_IF_INTERRUPT_PRIORITY_INVALID() 	vPortValidateInterruptPriority()
 200:Middlewares/Third_Party/FreeRTOS/Source/portable/GCC/ARM_CM4F/portmacro.h **** #endif
 201:Middlewares/Third_Party/FreeRTOS/Source/portable/GCC/ARM_CM4F/portmacro.h **** 
 202:Middlewares/Third_Party/FreeRTOS/Source/portable/GCC/ARM_CM4F/portmacro.h **** /* portNOP() is not required by this port. */
 203:Middlewares/Third_Party/FreeRTOS/Source/portable/GCC/ARM_CM4F/portmacro.h **** #define portNOP()
 204:Middlewares/Third_Party/FreeRTOS/Source/portable/GCC/ARM_CM4F/portmacro.h **** 
 205:Middlewares/Third_Party/FreeRTOS/Source/portable/GCC/ARM_CM4F/portmacro.h **** #define portINLINE	__inline
 206:Middlewares/Third_Party/FreeRTOS/Source/portable/GCC/ARM_CM4F/portmacro.h **** 
 207:Middlewares/Third_Party/FreeRTOS/Source/portable/GCC/ARM_CM4F/portmacro.h **** #ifndef portFORCE_INLINE
 208:Middlewares/Third_Party/FreeRTOS/Source/portable/GCC/ARM_CM4F/portmacro.h **** 	#define portFORCE_INLINE inline __attribute__(( always_inline))
 209:Middlewares/Third_Party/FreeRTOS/Source/portable/GCC/ARM_CM4F/portmacro.h **** #endif
 210:Middlewares/Third_Party/FreeRTOS/Source/portable/GCC/ARM_CM4F/portmacro.h **** 
 211:Middlewares/Third_Party/FreeRTOS/Source/portable/GCC/ARM_CM4F/portmacro.h **** portFORCE_INLINE static BaseType_t xPortIsInsideInterrupt( void )
 212:Middlewares/Third_Party/FreeRTOS/Source/portable/GCC/ARM_CM4F/portmacro.h **** {
 213:Middlewares/Third_Party/FreeRTOS/Source/portable/GCC/ARM_CM4F/portmacro.h **** uint32_t ulCurrentInterrupt;
 214:Middlewares/Third_Party/FreeRTOS/Source/portable/GCC/ARM_CM4F/portmacro.h **** BaseType_t xReturn;
 215:Middlewares/Third_Party/FreeRTOS/Source/portable/GCC/ARM_CM4F/portmacro.h **** 
 216:Middlewares/Third_Party/FreeRTOS/Source/portable/GCC/ARM_CM4F/portmacro.h **** 	/* Obtain the number of the currently executing interrupt. */
 217:Middlewares/Third_Party/FreeRTOS/Source/portable/GCC/ARM_CM4F/portmacro.h **** 	__asm volatile( "mrs %0, ipsr" : "=r"( ulCurrentInterrupt ) );
 218:Middlewares/Third_Party/FreeRTOS/Source/portable/GCC/ARM_CM4F/portmacro.h **** 
 219:Middlewares/Third_Party/FreeRTOS/Source/portable/GCC/ARM_CM4F/portmacro.h **** 	if( ulCurrentInterrupt == 0 )
 220:Middlewares/Third_Party/FreeRTOS/Source/portable/GCC/ARM_CM4F/portmacro.h **** 	{
 221:Middlewares/Third_Party/FreeRTOS/Source/portable/GCC/ARM_CM4F/portmacro.h **** 		xReturn = pdFALSE;
 222:Middlewares/Third_Party/FreeRTOS/Source/portable/GCC/ARM_CM4F/portmacro.h **** 	}
 223:Middlewares/Third_Party/FreeRTOS/Source/portable/GCC/ARM_CM4F/portmacro.h **** 	else
 224:Middlewares/Third_Party/FreeRTOS/Source/portable/GCC/ARM_CM4F/portmacro.h **** 	{
 225:Middlewares/Third_Party/FreeRTOS/Source/portable/GCC/ARM_CM4F/portmacro.h **** 		xReturn = pdTRUE;
 226:Middlewares/Third_Party/FreeRTOS/Source/portable/GCC/ARM_CM4F/portmacro.h **** 	}
 227:Middlewares/Third_Party/FreeRTOS/Source/portable/GCC/ARM_CM4F/portmacro.h **** 
 228:Middlewares/Third_Party/FreeRTOS/Source/portable/GCC/ARM_CM4F/portmacro.h **** 	return xReturn;
 229:Middlewares/Third_Party/FreeRTOS/Source/portable/GCC/ARM_CM4F/portmacro.h **** }
 230:Middlewares/Third_Party/FreeRTOS/Source/portable/GCC/ARM_CM4F/portmacro.h **** 
 231:Middlewares/Third_Party/FreeRTOS/Source/portable/GCC/ARM_CM4F/portmacro.h **** /*-----------------------------------------------------------*/
 232:Middlewares/Third_Party/FreeRTOS/Source/portable/GCC/ARM_CM4F/portmacro.h **** 
 233:Middlewares/Third_Party/FreeRTOS/Source/portable/GCC/ARM_CM4F/portmacro.h **** portFORCE_INLINE static void vPortRaiseBASEPRI( void )
ARM GAS  /var/folders/n1/76bg37b13ls08p1dhb9rhvd40000gn/T//ccOlpsUK.s 			page 21


 169              		.loc 2 233 30 view .LVU42
 170              	.LBB32:
 234:Middlewares/Third_Party/FreeRTOS/Source/portable/GCC/ARM_CM4F/portmacro.h **** {
 235:Middlewares/Third_Party/FreeRTOS/Source/portable/GCC/ARM_CM4F/portmacro.h **** uint32_t ulNewBASEPRI;
 171              		.loc 2 235 1 view .LVU43
 236:Middlewares/Third_Party/FreeRTOS/Source/portable/GCC/ARM_CM4F/portmacro.h **** 
 237:Middlewares/Third_Party/FreeRTOS/Source/portable/GCC/ARM_CM4F/portmacro.h **** 	__asm volatile
 172              		.loc 2 237 2 view .LVU44
 173              		.syntax unified
 174              	@ 237 "Middlewares/Third_Party/FreeRTOS/Source/portable/GCC/ARM_CM4F/portmacro.h" 1
 175 0012 4FF05003 			mov r3, #80												
 176 0016 83F31188 		msr basepri, r3											
 177 001a BFF36F8F 		isb														
 178 001e BFF34F8F 		dsb														
 179              	
 180              	@ 0 "" 2
 181              	.LVL13:
 182              		.thumb
 183              		.syntax unified
 184              	.L13:
 185              		.loc 2 237 2 is_stmt 0 view .LVU45
 186              	.LBE32:
 187              	.LBE31:
 334:Middlewares/Third_Party/FreeRTOS/Source/event_groups.c **** 	configASSERT( uxBitsToWaitFor != 0 );
 188              		.loc 1 334 2 is_stmt 1 discriminator 2 view .LVU46
 334:Middlewares/Third_Party/FreeRTOS/Source/event_groups.c **** 	configASSERT( uxBitsToWaitFor != 0 );
 189              		.loc 1 334 2 discriminator 2 view .LVU47
 190 0022 FEE7     		b	.L13
 191              	.LVL14:
 192              	.L29:
 333:Middlewares/Third_Party/FreeRTOS/Source/event_groups.c **** 	configASSERT( ( uxBitsToWaitFor & eventEVENT_BITS_CONTROL_BYTES ) == 0 );
 193              		.loc 1 333 2 view .LVU48
 194              	.LBB33:
 195              	.LBI33:
 233:Middlewares/Third_Party/FreeRTOS/Source/portable/GCC/ARM_CM4F/portmacro.h **** {
 196              		.loc 2 233 30 view .LVU49
 197              	.LBB34:
 235:Middlewares/Third_Party/FreeRTOS/Source/portable/GCC/ARM_CM4F/portmacro.h **** 
 198              		.loc 2 235 1 view .LVU50
 199              		.loc 2 237 2 view .LVU51
 200              		.syntax unified
 201              	@ 237 "Middlewares/Third_Party/FreeRTOS/Source/portable/GCC/ARM_CM4F/portmacro.h" 1
 202 0024 4FF05003 			mov r3, #80												
 203 0028 83F31188 		msr basepri, r3											
 204 002c BFF36F8F 		isb														
 205 0030 BFF34F8F 		dsb														
 206              	
 207              	@ 0 "" 2
 208              	.LVL15:
 209              		.thumb
 210              		.syntax unified
 211              	.L11:
 212              		.loc 2 237 2 is_stmt 0 view .LVU52
 213              	.LBE34:
 214              	.LBE33:
 333:Middlewares/Third_Party/FreeRTOS/Source/event_groups.c **** 	configASSERT( ( uxBitsToWaitFor & eventEVENT_BITS_CONTROL_BYTES ) == 0 );
 215              		.loc 1 333 2 is_stmt 1 discriminator 1 view .LVU53
ARM GAS  /var/folders/n1/76bg37b13ls08p1dhb9rhvd40000gn/T//ccOlpsUK.s 			page 22


 333:Middlewares/Third_Party/FreeRTOS/Source/event_groups.c **** 	configASSERT( ( uxBitsToWaitFor & eventEVENT_BITS_CONTROL_BYTES ) == 0 );
 216              		.loc 1 333 2 discriminator 1 view .LVU54
 217 0034 FEE7     		b	.L11
 218              	.LVL16:
 219              	.L12:
 334:Middlewares/Third_Party/FreeRTOS/Source/event_groups.c **** 	configASSERT( uxBitsToWaitFor != 0 );
 220              		.loc 1 334 74 discriminator 2 view .LVU55
 335:Middlewares/Third_Party/FreeRTOS/Source/event_groups.c **** 	#if ( ( INCLUDE_xTaskGetSchedulerState == 1 ) || ( configUSE_TIMERS == 1 ) )
 221              		.loc 1 335 2 discriminator 2 view .LVU56
 222 0036 41B9     		cbnz	r1, .L14
 335:Middlewares/Third_Party/FreeRTOS/Source/event_groups.c **** 	#if ( ( INCLUDE_xTaskGetSchedulerState == 1 ) || ( configUSE_TIMERS == 1 ) )
 223              		.loc 1 335 2 view .LVU57
 224              	.LBB35:
 225              	.LBI35:
 233:Middlewares/Third_Party/FreeRTOS/Source/portable/GCC/ARM_CM4F/portmacro.h **** {
 226              		.loc 2 233 30 view .LVU58
 227              	.LBB36:
 235:Middlewares/Third_Party/FreeRTOS/Source/portable/GCC/ARM_CM4F/portmacro.h **** 
 228              		.loc 2 235 1 view .LVU59
 229              		.loc 2 237 2 view .LVU60
 230              		.syntax unified
 231              	@ 237 "Middlewares/Third_Party/FreeRTOS/Source/portable/GCC/ARM_CM4F/portmacro.h" 1
 232 0038 4FF05003 			mov r3, #80												
 233 003c 83F31188 		msr basepri, r3											
 234 0040 BFF36F8F 		isb														
 235 0044 BFF34F8F 		dsb														
 236              	
 237              	@ 0 "" 2
 238              	.LVL17:
 239              		.thumb
 240              		.syntax unified
 241              	.L15:
 242              		.loc 2 237 2 is_stmt 0 view .LVU61
 243              	.LBE36:
 244              	.LBE35:
 335:Middlewares/Third_Party/FreeRTOS/Source/event_groups.c **** 	#if ( ( INCLUDE_xTaskGetSchedulerState == 1 ) || ( configUSE_TIMERS == 1 ) )
 245              		.loc 1 335 2 is_stmt 1 discriminator 3 view .LVU62
 335:Middlewares/Third_Party/FreeRTOS/Source/event_groups.c **** 	#if ( ( INCLUDE_xTaskGetSchedulerState == 1 ) || ( configUSE_TIMERS == 1 ) )
 246              		.loc 1 335 2 discriminator 3 view .LVU63
 247 0048 FEE7     		b	.L15
 248              	.LVL18:
 249              	.L14:
 335:Middlewares/Third_Party/FreeRTOS/Source/event_groups.c **** 	#if ( ( INCLUDE_xTaskGetSchedulerState == 1 ) || ( configUSE_TIMERS == 1 ) )
 250              		.loc 1 335 2 is_stmt 0 discriminator 3 view .LVU64
 251 004a 9846     		mov	r8, r3
 252 004c 1746     		mov	r7, r2
 253 004e 0C46     		mov	r4, r1
 335:Middlewares/Third_Party/FreeRTOS/Source/event_groups.c **** 	#if ( ( INCLUDE_xTaskGetSchedulerState == 1 ) || ( configUSE_TIMERS == 1 ) )
 254              		.loc 1 335 38 is_stmt 1 discriminator 2 view .LVU65
 338:Middlewares/Third_Party/FreeRTOS/Source/event_groups.c **** 	}
 255              		.loc 1 338 3 discriminator 2 view .LVU66
 256 0050 FFF7FEFF 		bl	xTaskGetSchedulerState
 257              	.LVL19:
 338:Middlewares/Third_Party/FreeRTOS/Source/event_groups.c **** 	}
 258              		.loc 1 338 3 is_stmt 0 discriminator 2 view .LVU67
 259 0054 58B9     		cbnz	r0, .L16
 338:Middlewares/Third_Party/FreeRTOS/Source/event_groups.c **** 	}
ARM GAS  /var/folders/n1/76bg37b13ls08p1dhb9rhvd40000gn/T//ccOlpsUK.s 			page 23


 260              		.loc 1 338 3 discriminator 2 view .LVU68
 261 0056 B9F1000F 		cmp	r9, #0
 262 005a 08D0     		beq	.L16
 338:Middlewares/Third_Party/FreeRTOS/Source/event_groups.c **** 	}
 263              		.loc 1 338 3 is_stmt 1 view .LVU69
 264              	.LBB37:
 265              	.LBI37:
 233:Middlewares/Third_Party/FreeRTOS/Source/portable/GCC/ARM_CM4F/portmacro.h **** {
 266              		.loc 2 233 30 view .LVU70
 267              	.LBB38:
 235:Middlewares/Third_Party/FreeRTOS/Source/portable/GCC/ARM_CM4F/portmacro.h **** 
 268              		.loc 2 235 1 view .LVU71
 269              		.loc 2 237 2 view .LVU72
 270              		.syntax unified
 271              	@ 237 "Middlewares/Third_Party/FreeRTOS/Source/portable/GCC/ARM_CM4F/portmacro.h" 1
 272 005c 4FF05003 			mov r3, #80												
 273 0060 83F31188 		msr basepri, r3											
 274 0064 BFF36F8F 		isb														
 275 0068 BFF34F8F 		dsb														
 276              	
 277              	@ 0 "" 2
 278              	.LVL20:
 279              		.thumb
 280              		.syntax unified
 281              	.L17:
 282              		.loc 2 237 2 is_stmt 0 view .LVU73
 283              	.LBE38:
 284              	.LBE37:
 338:Middlewares/Third_Party/FreeRTOS/Source/event_groups.c **** 	}
 285              		.loc 1 338 3 is_stmt 1 discriminator 4 view .LVU74
 338:Middlewares/Third_Party/FreeRTOS/Source/event_groups.c **** 	}
 286              		.loc 1 338 3 discriminator 4 view .LVU75
 287 006c FEE7     		b	.L17
 288              	.L16:
 338:Middlewares/Third_Party/FreeRTOS/Source/event_groups.c **** 	}
 289              		.loc 1 338 104 discriminator 8 view .LVU76
 342:Middlewares/Third_Party/FreeRTOS/Source/event_groups.c **** 	{
 290              		.loc 1 342 2 discriminator 8 view .LVU77
 291 006e FFF7FEFF 		bl	vTaskSuspendAll
 292              	.LVL21:
 293              	.LBB39:
 344:Middlewares/Third_Party/FreeRTOS/Source/event_groups.c **** 
 294              		.loc 1 344 3 discriminator 8 view .LVU78
 344:Middlewares/Third_Party/FreeRTOS/Source/event_groups.c **** 
 295              		.loc 1 344 21 is_stmt 0 discriminator 8 view .LVU79
 296 0072 3568     		ldr	r5, [r6]
 297              	.LVL22:
 347:Middlewares/Third_Party/FreeRTOS/Source/event_groups.c **** 
 298              		.loc 1 347 3 is_stmt 1 discriminator 8 view .LVU80
 347:Middlewares/Third_Party/FreeRTOS/Source/event_groups.c **** 
 299              		.loc 1 347 23 is_stmt 0 discriminator 8 view .LVU81
 300 0074 4246     		mov	r2, r8
 301 0076 2146     		mov	r1, r4
 302 0078 2846     		mov	r0, r5
 303 007a FFF7FEFF 		bl	prvTestWaitCondition
 304              	.LVL23:
 349:Middlewares/Third_Party/FreeRTOS/Source/event_groups.c **** 		{
ARM GAS  /var/folders/n1/76bg37b13ls08p1dhb9rhvd40000gn/T//ccOlpsUK.s 			page 24


 305              		.loc 1 349 3 is_stmt 1 discriminator 8 view .LVU82
 349:Middlewares/Third_Party/FreeRTOS/Source/event_groups.c **** 		{
 306              		.loc 1 349 5 is_stmt 0 discriminator 8 view .LVU83
 307 007e E0B1     		cbz	r0, .L18
 353:Middlewares/Third_Party/FreeRTOS/Source/event_groups.c **** 			xTicksToWait = ( TickType_t ) 0;
 308              		.loc 1 353 4 is_stmt 1 view .LVU84
 309              	.LVL24:
 354:Middlewares/Third_Party/FreeRTOS/Source/event_groups.c **** 
 310              		.loc 1 354 4 view .LVU85
 357:Middlewares/Third_Party/FreeRTOS/Source/event_groups.c **** 			{
 311              		.loc 1 357 4 view .LVU86
 357:Middlewares/Third_Party/FreeRTOS/Source/event_groups.c **** 			{
 312              		.loc 1 357 6 is_stmt 0 view .LVU87
 313 0080 17B1     		cbz	r7, .L19
 359:Middlewares/Third_Party/FreeRTOS/Source/event_groups.c **** 			}
 314              		.loc 1 359 5 is_stmt 1 view .LVU88
 359:Middlewares/Third_Party/FreeRTOS/Source/event_groups.c **** 			}
 315              		.loc 1 359 30 is_stmt 0 view .LVU89
 316 0082 25EA0403 		bic	r3, r5, r4
 317 0086 3360     		str	r3, [r6]
 318              	.LVL25:
 319              	.L19:
 406:Middlewares/Third_Party/FreeRTOS/Source/event_groups.c **** 		}
 320              		.loc 1 406 68 is_stmt 1 view .LVU90
 321              	.LBE39:
 409:Middlewares/Third_Party/FreeRTOS/Source/event_groups.c **** 
 322              		.loc 1 409 2 view .LVU91
 409:Middlewares/Third_Party/FreeRTOS/Source/event_groups.c **** 
 323              		.loc 1 409 20 is_stmt 0 view .LVU92
 324 0088 FFF7FEFF 		bl	xTaskResumeAll
 325              	.LVL26:
 411:Middlewares/Third_Party/FreeRTOS/Source/event_groups.c **** 	{
 326              		.loc 1 411 2 is_stmt 1 view .LVU93
 411:Middlewares/Third_Party/FreeRTOS/Source/event_groups.c **** 	{
 327              		.loc 1 411 4 is_stmt 0 view .LVU94
 328 008c BAF1000F 		cmp	r10, #0
 329 0090 10D0     		beq	.L9
 413:Middlewares/Third_Party/FreeRTOS/Source/event_groups.c **** 		{
 330              		.loc 1 413 3 is_stmt 1 view .LVU95
 413:Middlewares/Third_Party/FreeRTOS/Source/event_groups.c **** 		{
 331              		.loc 1 413 5 is_stmt 0 view .LVU96
 332 0092 38B9     		cbnz	r0, .L23
 415:Middlewares/Third_Party/FreeRTOS/Source/event_groups.c **** 		}
 333              		.loc 1 415 4 is_stmt 1 view .LVU97
 334 0094 1C4B     		ldr	r3, .L31
 335 0096 4FF08052 		mov	r2, #268435456
 336 009a 1A60     		str	r2, [r3]
 415:Middlewares/Third_Party/FreeRTOS/Source/event_groups.c **** 		}
 337              		.loc 1 415 4 view .LVU98
 338              		.syntax unified
 339              	@ 415 "Middlewares/Third_Party/FreeRTOS/Source/event_groups.c" 1
 340 009c BFF34F8F 		dsb
 341              	@ 0 "" 2
 415:Middlewares/Third_Party/FreeRTOS/Source/event_groups.c **** 		}
 342              		.loc 1 415 4 view .LVU99
 343              	@ 415 "Middlewares/Third_Party/FreeRTOS/Source/event_groups.c" 1
 344 00a0 BFF36F8F 		isb
ARM GAS  /var/folders/n1/76bg37b13ls08p1dhb9rhvd40000gn/T//ccOlpsUK.s 			page 25


 345              	@ 0 "" 2
 415:Middlewares/Third_Party/FreeRTOS/Source/event_groups.c **** 		}
 346              		.loc 1 415 26 view .LVU100
 347              		.thumb
 348              		.syntax unified
 349              	.L23:
 419:Middlewares/Third_Party/FreeRTOS/Source/event_groups.c **** 		}
 350              		.loc 1 419 28 view .LVU101
 426:Middlewares/Third_Party/FreeRTOS/Source/event_groups.c **** 
 351              		.loc 1 426 3 view .LVU102
 426:Middlewares/Third_Party/FreeRTOS/Source/event_groups.c **** 
 352              		.loc 1 426 14 is_stmt 0 view .LVU103
 353 00a4 FFF7FEFF 		bl	uxTaskResetEventItemValue
 354              	.LVL27:
 426:Middlewares/Third_Party/FreeRTOS/Source/event_groups.c **** 
 355              		.loc 1 426 14 view .LVU104
 356 00a8 0546     		mov	r5, r0
 357              	.LVL28:
 428:Middlewares/Third_Party/FreeRTOS/Source/event_groups.c **** 		{
 358              		.loc 1 428 3 is_stmt 1 view .LVU105
 428:Middlewares/Third_Party/FreeRTOS/Source/event_groups.c **** 		{
 359              		.loc 1 428 5 is_stmt 0 view .LVU106
 360 00aa 10F0007F 		tst	r0, #33554432
 361 00ae 1BD0     		beq	.L30
 362              	.LVL29:
 363              	.L24:
 461:Middlewares/Third_Party/FreeRTOS/Source/event_groups.c **** 
 364              		.loc 1 461 3 is_stmt 1 view .LVU107
 464:Middlewares/Third_Party/FreeRTOS/Source/event_groups.c **** 	}
 365              		.loc 1 464 3 view .LVU108
 464:Middlewares/Third_Party/FreeRTOS/Source/event_groups.c **** 	}
 366              		.loc 1 464 12 is_stmt 0 view .LVU109
 367 00b0 25F07F45 		bic	r5, r5, #-16777216
 368              	.LVL30:
 466:Middlewares/Third_Party/FreeRTOS/Source/event_groups.c **** 
 369              		.loc 1 466 2 is_stmt 1 view .LVU110
 468:Middlewares/Third_Party/FreeRTOS/Source/event_groups.c **** }
 370              		.loc 1 468 2 view .LVU111
 371              	.L9:
 469:Middlewares/Third_Party/FreeRTOS/Source/event_groups.c **** /*-----------------------------------------------------------*/
 372              		.loc 1 469 1 is_stmt 0 view .LVU112
 373 00b4 2846     		mov	r0, r5
 374 00b6 BDE8F087 		pop	{r4, r5, r6, r7, r8, r9, r10, pc}
 375              	.LVL31:
 376              	.L18:
 377              	.LBB40:
 366:Middlewares/Third_Party/FreeRTOS/Source/event_groups.c **** 		{
 378              		.loc 1 366 8 is_stmt 1 view .LVU113
 366:Middlewares/Third_Party/FreeRTOS/Source/event_groups.c **** 		{
 379              		.loc 1 366 10 is_stmt 0 view .LVU114
 380 00ba B9F1000F 		cmp	r9, #0
 381 00be 11D0     		beq	.L26
 378:Middlewares/Third_Party/FreeRTOS/Source/event_groups.c **** 			{
 382              		.loc 1 378 4 is_stmt 1 view .LVU115
 378:Middlewares/Third_Party/FreeRTOS/Source/event_groups.c **** 			{
 383              		.loc 1 378 6 is_stmt 0 view .LVU116
 384 00c0 6FB9     		cbnz	r7, .L27
ARM GAS  /var/folders/n1/76bg37b13ls08p1dhb9rhvd40000gn/T//ccOlpsUK.s 			page 26


 385              	.LBE40:
 327:Middlewares/Third_Party/FreeRTOS/Source/event_groups.c **** BaseType_t xWaitConditionMet, xAlreadyYielded;
 386              		.loc 1 327 23 view .LVU117
 387 00c2 0021     		movs	r1, #0
 388              	.L20:
 389              	.LVL32:
 390              	.LBB41:
 384:Middlewares/Third_Party/FreeRTOS/Source/event_groups.c **** 			}
 391              		.loc 1 384 29 is_stmt 1 view .LVU118
 387:Middlewares/Third_Party/FreeRTOS/Source/event_groups.c **** 			{
 392              		.loc 1 387 4 view .LVU119
 387:Middlewares/Third_Party/FreeRTOS/Source/event_groups.c **** 			{
 393              		.loc 1 387 6 is_stmt 0 view .LVU120
 394 00c4 B8F1000F 		cmp	r8, #0
 395 00c8 01D0     		beq	.L21
 389:Middlewares/Third_Party/FreeRTOS/Source/event_groups.c **** 			}
 396              		.loc 1 389 5 is_stmt 1 view .LVU121
 389:Middlewares/Third_Party/FreeRTOS/Source/event_groups.c **** 			}
 397              		.loc 1 389 19 is_stmt 0 view .LVU122
 398 00ca 41F08061 		orr	r1, r1, #67108864
 399              	.LVL33:
 400              	.L21:
 393:Middlewares/Third_Party/FreeRTOS/Source/event_groups.c **** 			}
 401              		.loc 1 393 29 is_stmt 1 view .LVU123
 399:Middlewares/Third_Party/FreeRTOS/Source/event_groups.c **** 
 402              		.loc 1 399 4 view .LVU124
 403 00ce 4A46     		mov	r2, r9
 404 00d0 2143     		orrs	r1, r1, r4
 405              	.LVL34:
 399:Middlewares/Third_Party/FreeRTOS/Source/event_groups.c **** 
 406              		.loc 1 399 4 is_stmt 0 view .LVU125
 407 00d2 301D     		adds	r0, r6, #4
 408              	.LVL35:
 399:Middlewares/Third_Party/FreeRTOS/Source/event_groups.c **** 
 409              		.loc 1 399 4 view .LVU126
 410 00d4 FFF7FEFF 		bl	vTaskPlaceOnUnorderedEventList
 411              	.LVL36:
 404:Middlewares/Third_Party/FreeRTOS/Source/event_groups.c **** 
 412              		.loc 1 404 4 is_stmt 1 view .LVU127
 399:Middlewares/Third_Party/FreeRTOS/Source/event_groups.c **** 
 413              		.loc 1 399 4 is_stmt 0 view .LVU128
 414 00d8 CA46     		mov	r10, r9
 404:Middlewares/Third_Party/FreeRTOS/Source/event_groups.c **** 
 415              		.loc 1 404 13 view .LVU129
 416 00da 0025     		movs	r5, #0
 417              	.LVL37:
 404:Middlewares/Third_Party/FreeRTOS/Source/event_groups.c **** 
 418              		.loc 1 404 13 view .LVU130
 419 00dc D4E7     		b	.L19
 420              	.LVL38:
 421              	.L27:
 380:Middlewares/Third_Party/FreeRTOS/Source/event_groups.c **** 			}
 422              		.loc 1 380 19 view .LVU131
 423 00de 4FF08071 		mov	r1, #16777216
 424 00e2 EFE7     		b	.L20
 425              	.L26:
 426 00e4 CA46     		mov	r10, r9
ARM GAS  /var/folders/n1/76bg37b13ls08p1dhb9rhvd40000gn/T//ccOlpsUK.s 			page 27


 427 00e6 CFE7     		b	.L19
 428              	.LVL39:
 429              	.L30:
 380:Middlewares/Third_Party/FreeRTOS/Source/event_groups.c **** 			}
 430              		.loc 1 380 19 view .LVU132
 431              	.LBE41:
 430:Middlewares/Third_Party/FreeRTOS/Source/event_groups.c **** 			{
 432              		.loc 1 430 4 is_stmt 1 view .LVU133
 433 00e8 FFF7FEFF 		bl	vPortEnterCritical
 434              	.LVL40:
 433:Middlewares/Third_Party/FreeRTOS/Source/event_groups.c **** 
 435              		.loc 1 433 5 view .LVU134
 433:Middlewares/Third_Party/FreeRTOS/Source/event_groups.c **** 
 436              		.loc 1 433 14 is_stmt 0 view .LVU135
 437 00ec 3568     		ldr	r5, [r6]
 438              	.LVL41:
 437:Middlewares/Third_Party/FreeRTOS/Source/event_groups.c **** 				{
 439              		.loc 1 437 5 is_stmt 1 view .LVU136
 437:Middlewares/Third_Party/FreeRTOS/Source/event_groups.c **** 				{
 440              		.loc 1 437 9 is_stmt 0 view .LVU137
 441 00ee 4246     		mov	r2, r8
 442 00f0 2146     		mov	r1, r4
 443 00f2 2846     		mov	r0, r5
 444 00f4 FFF7FEFF 		bl	prvTestWaitCondition
 445              	.LVL42:
 437:Middlewares/Third_Party/FreeRTOS/Source/event_groups.c **** 				{
 446              		.loc 1 437 7 view .LVU138
 447 00f8 18B1     		cbz	r0, .L25
 439:Middlewares/Third_Party/FreeRTOS/Source/event_groups.c **** 					{
 448              		.loc 1 439 6 is_stmt 1 view .LVU139
 439:Middlewares/Third_Party/FreeRTOS/Source/event_groups.c **** 					{
 449              		.loc 1 439 8 is_stmt 0 view .LVU140
 450 00fa 17B1     		cbz	r7, .L25
 441:Middlewares/Third_Party/FreeRTOS/Source/event_groups.c **** 					}
 451              		.loc 1 441 7 is_stmt 1 view .LVU141
 441:Middlewares/Third_Party/FreeRTOS/Source/event_groups.c **** 					}
 452              		.loc 1 441 32 is_stmt 0 view .LVU142
 453 00fc 25EA0404 		bic	r4, r5, r4
 454              	.LVL43:
 441:Middlewares/Third_Party/FreeRTOS/Source/event_groups.c **** 					}
 455              		.loc 1 441 32 view .LVU143
 456 0100 3460     		str	r4, [r6]
 457              	.L25:
 450:Middlewares/Third_Party/FreeRTOS/Source/event_groups.c **** 				}
 458              		.loc 1 450 30 is_stmt 1 view .LVU144
 453:Middlewares/Third_Party/FreeRTOS/Source/event_groups.c **** 
 459              		.loc 1 453 4 view .LVU145
 460 0102 FFF7FEFF 		bl	vPortExitCritical
 461              	.LVL44:
 456:Middlewares/Third_Party/FreeRTOS/Source/event_groups.c **** 		}
 462              		.loc 1 456 4 view .LVU146
 456:Middlewares/Third_Party/FreeRTOS/Source/event_groups.c **** 		}
 463              		.loc 1 456 4 is_stmt 0 view .LVU147
 464 0106 D3E7     		b	.L24
 465              	.L32:
 466              		.align	2
 467              	.L31:
ARM GAS  /var/folders/n1/76bg37b13ls08p1dhb9rhvd40000gn/T//ccOlpsUK.s 			page 28


 468 0108 04ED00E0 		.word	-536810236
 469              		.cfi_endproc
 470              	.LFE7:
 472              		.section	.text.xEventGroupClearBits,"ax",%progbits
 473              		.align	1
 474              		.global	xEventGroupClearBits
 475              		.syntax unified
 476              		.thumb
 477              		.thumb_func
 478              		.fpu fpv4-sp-d16
 480              	xEventGroupClearBits:
 481              	.LVL45:
 482              	.LFB8:
 473:Middlewares/Third_Party/FreeRTOS/Source/event_groups.c **** EventGroup_t *pxEventBits = ( EventGroup_t * ) xEventGroup;
 483              		.loc 1 473 1 is_stmt 1 view -0
 484              		.cfi_startproc
 485              		@ args = 0, pretend = 0, frame = 0
 486              		@ frame_needed = 0, uses_anonymous_args = 0
 474:Middlewares/Third_Party/FreeRTOS/Source/event_groups.c **** EventBits_t uxReturn;
 487              		.loc 1 474 1 view .LVU149
 475:Middlewares/Third_Party/FreeRTOS/Source/event_groups.c **** 
 488              		.loc 1 475 1 view .LVU150
 479:Middlewares/Third_Party/FreeRTOS/Source/event_groups.c **** 	configASSERT( ( uxBitsToClear & eventEVENT_BITS_CONTROL_BYTES ) == 0 );
 489              		.loc 1 479 2 view .LVU151
 490 0000 68B1     		cbz	r0, .L40
 473:Middlewares/Third_Party/FreeRTOS/Source/event_groups.c **** EventGroup_t *pxEventBits = ( EventGroup_t * ) xEventGroup;
 491              		.loc 1 473 1 is_stmt 0 discriminator 2 view .LVU152
 492 0002 70B5     		push	{r4, r5, r6, lr}
 493              	.LCFI2:
 494              		.cfi_def_cfa_offset 16
 495              		.cfi_offset 4, -16
 496              		.cfi_offset 5, -12
 497              		.cfi_offset 6, -8
 498              		.cfi_offset 14, -4
 499 0004 0546     		mov	r5, r0
 479:Middlewares/Third_Party/FreeRTOS/Source/event_groups.c **** 	configASSERT( ( uxBitsToClear & eventEVENT_BITS_CONTROL_BYTES ) == 0 );
 500              		.loc 1 479 29 is_stmt 1 discriminator 2 view .LVU153
 480:Middlewares/Third_Party/FreeRTOS/Source/event_groups.c **** 
 501              		.loc 1 480 2 discriminator 2 view .LVU154
 502 0006 11F07F4F 		tst	r1, #-16777216
 503 000a 11D0     		beq	.L36
 480:Middlewares/Third_Party/FreeRTOS/Source/event_groups.c **** 
 504              		.loc 1 480 2 view .LVU155
 505              	.LBB42:
 506              	.LBI42:
 233:Middlewares/Third_Party/FreeRTOS/Source/portable/GCC/ARM_CM4F/portmacro.h **** {
 507              		.loc 2 233 30 view .LVU156
 508              	.LBB43:
 235:Middlewares/Third_Party/FreeRTOS/Source/portable/GCC/ARM_CM4F/portmacro.h **** 
 509              		.loc 2 235 1 view .LVU157
 510              		.loc 2 237 2 view .LVU158
 511              		.syntax unified
 512              	@ 237 "Middlewares/Third_Party/FreeRTOS/Source/portable/GCC/ARM_CM4F/portmacro.h" 1
 513 000c 4FF05003 			mov r3, #80												
 514 0010 83F31188 		msr basepri, r3											
 515 0014 BFF36F8F 		isb														
 516 0018 BFF34F8F 		dsb														
ARM GAS  /var/folders/n1/76bg37b13ls08p1dhb9rhvd40000gn/T//ccOlpsUK.s 			page 29


 517              	
 518              	@ 0 "" 2
 519              	.LVL46:
 520              		.thumb
 521              		.syntax unified
 522              	.L37:
 523              		.loc 2 237 2 is_stmt 0 view .LVU159
 524              	.LBE43:
 525              	.LBE42:
 480:Middlewares/Third_Party/FreeRTOS/Source/event_groups.c **** 
 526              		.loc 1 480 2 is_stmt 1 discriminator 2 view .LVU160
 480:Middlewares/Third_Party/FreeRTOS/Source/event_groups.c **** 
 527              		.loc 1 480 2 discriminator 2 view .LVU161
 528 001c FEE7     		b	.L37
 529              	.L40:
 530              	.LCFI3:
 531              		.cfi_def_cfa_offset 0
 532              		.cfi_restore 4
 533              		.cfi_restore 5
 534              		.cfi_restore 6
 535              		.cfi_restore 14
 479:Middlewares/Third_Party/FreeRTOS/Source/event_groups.c **** 	configASSERT( ( uxBitsToClear & eventEVENT_BITS_CONTROL_BYTES ) == 0 );
 536              		.loc 1 479 2 view .LVU162
 537              	.LBB44:
 538              	.LBI44:
 233:Middlewares/Third_Party/FreeRTOS/Source/portable/GCC/ARM_CM4F/portmacro.h **** {
 539              		.loc 2 233 30 view .LVU163
 540              	.LBB45:
 235:Middlewares/Third_Party/FreeRTOS/Source/portable/GCC/ARM_CM4F/portmacro.h **** 
 541              		.loc 2 235 1 view .LVU164
 542              		.loc 2 237 2 view .LVU165
 543              		.syntax unified
 544              	@ 237 "Middlewares/Third_Party/FreeRTOS/Source/portable/GCC/ARM_CM4F/portmacro.h" 1
 545 001e 4FF05003 			mov r3, #80												
 546 0022 83F31188 		msr basepri, r3											
 547 0026 BFF36F8F 		isb														
 548 002a BFF34F8F 		dsb														
 549              	
 550              	@ 0 "" 2
 551              	.LVL47:
 552              		.thumb
 553              		.syntax unified
 554              	.L35:
 555              		.loc 2 237 2 is_stmt 0 view .LVU166
 556              	.LBE45:
 557              	.LBE44:
 479:Middlewares/Third_Party/FreeRTOS/Source/event_groups.c **** 	configASSERT( ( uxBitsToClear & eventEVENT_BITS_CONTROL_BYTES ) == 0 );
 558              		.loc 1 479 2 is_stmt 1 discriminator 1 view .LVU167
 479:Middlewares/Third_Party/FreeRTOS/Source/event_groups.c **** 	configASSERT( ( uxBitsToClear & eventEVENT_BITS_CONTROL_BYTES ) == 0 );
 559              		.loc 1 479 2 discriminator 1 view .LVU168
 560 002e FEE7     		b	.L35
 561              	.L36:
 562              	.LCFI4:
 563              		.cfi_def_cfa_offset 16
 564              		.cfi_offset 4, -16
 565              		.cfi_offset 5, -12
 566              		.cfi_offset 6, -8
ARM GAS  /var/folders/n1/76bg37b13ls08p1dhb9rhvd40000gn/T//ccOlpsUK.s 			page 30


 567              		.cfi_offset 14, -4
 479:Middlewares/Third_Party/FreeRTOS/Source/event_groups.c **** 	configASSERT( ( uxBitsToClear & eventEVENT_BITS_CONTROL_BYTES ) == 0 );
 568              		.loc 1 479 2 is_stmt 0 discriminator 1 view .LVU169
 569 0030 0C46     		mov	r4, r1
 480:Middlewares/Third_Party/FreeRTOS/Source/event_groups.c **** 
 570              		.loc 1 480 72 is_stmt 1 discriminator 2 view .LVU170
 482:Middlewares/Third_Party/FreeRTOS/Source/event_groups.c **** 	{
 571              		.loc 1 482 2 discriminator 2 view .LVU171
 572 0032 FFF7FEFF 		bl	vPortEnterCritical
 573              	.LVL48:
 484:Middlewares/Third_Party/FreeRTOS/Source/event_groups.c **** 
 574              		.loc 1 484 60 discriminator 2 view .LVU172
 488:Middlewares/Third_Party/FreeRTOS/Source/event_groups.c **** 
 575              		.loc 1 488 3 discriminator 2 view .LVU173
 488:Middlewares/Third_Party/FreeRTOS/Source/event_groups.c **** 
 576              		.loc 1 488 12 is_stmt 0 discriminator 2 view .LVU174
 577 0036 2E68     		ldr	r6, [r5]
 578              	.LVL49:
 491:Middlewares/Third_Party/FreeRTOS/Source/event_groups.c **** 	}
 579              		.loc 1 491 3 is_stmt 1 discriminator 2 view .LVU175
 491:Middlewares/Third_Party/FreeRTOS/Source/event_groups.c **** 	}
 580              		.loc 1 491 28 is_stmt 0 discriminator 2 view .LVU176
 581 0038 26EA0404 		bic	r4, r6, r4
 582              	.LVL50:
 491:Middlewares/Third_Party/FreeRTOS/Source/event_groups.c **** 	}
 583              		.loc 1 491 28 discriminator 2 view .LVU177
 584 003c 2C60     		str	r4, [r5]
 493:Middlewares/Third_Party/FreeRTOS/Source/event_groups.c **** 
 585              		.loc 1 493 2 is_stmt 1 discriminator 2 view .LVU178
 586 003e FFF7FEFF 		bl	vPortExitCritical
 587              	.LVL51:
 495:Middlewares/Third_Party/FreeRTOS/Source/event_groups.c **** }
 588              		.loc 1 495 2 discriminator 2 view .LVU179
 496:Middlewares/Third_Party/FreeRTOS/Source/event_groups.c **** /*-----------------------------------------------------------*/
 589              		.loc 1 496 1 is_stmt 0 discriminator 2 view .LVU180
 590 0042 3046     		mov	r0, r6
 591 0044 70BD     		pop	{r4, r5, r6, pc}
 496:Middlewares/Third_Party/FreeRTOS/Source/event_groups.c **** /*-----------------------------------------------------------*/
 592              		.loc 1 496 1 discriminator 2 view .LVU181
 593              		.cfi_endproc
 594              	.LFE8:
 596              		.section	.text.xEventGroupGetBitsFromISR,"ax",%progbits
 597              		.align	1
 598              		.global	xEventGroupGetBitsFromISR
 599              		.syntax unified
 600              		.thumb
 601              		.thumb_func
 602              		.fpu fpv4-sp-d16
 604              	xEventGroupGetBitsFromISR:
 605              	.LVL52:
 606              	.LFB9:
 515:Middlewares/Third_Party/FreeRTOS/Source/event_groups.c **** UBaseType_t uxSavedInterruptStatus;
 607              		.loc 1 515 1 is_stmt 1 view -0
 608              		.cfi_startproc
 609              		@ args = 0, pretend = 0, frame = 0
 610              		@ frame_needed = 0, uses_anonymous_args = 0
 611              		@ link register save eliminated.
ARM GAS  /var/folders/n1/76bg37b13ls08p1dhb9rhvd40000gn/T//ccOlpsUK.s 			page 31


 516:Middlewares/Third_Party/FreeRTOS/Source/event_groups.c **** EventGroup_t *pxEventBits = ( EventGroup_t * ) xEventGroup;
 612              		.loc 1 516 1 view .LVU183
 517:Middlewares/Third_Party/FreeRTOS/Source/event_groups.c **** EventBits_t uxReturn;
 613              		.loc 1 517 1 view .LVU184
 518:Middlewares/Third_Party/FreeRTOS/Source/event_groups.c **** 
 614              		.loc 1 518 1 view .LVU185
 520:Middlewares/Third_Party/FreeRTOS/Source/event_groups.c **** 	{
 615              		.loc 1 520 2 view .LVU186
 616              	.LBB46:
 617              	.LBI46:
 238:Middlewares/Third_Party/FreeRTOS/Source/portable/GCC/ARM_CM4F/portmacro.h **** 	(
 239:Middlewares/Third_Party/FreeRTOS/Source/portable/GCC/ARM_CM4F/portmacro.h **** 		"	mov %0, %1												\n"	\
 240:Middlewares/Third_Party/FreeRTOS/Source/portable/GCC/ARM_CM4F/portmacro.h **** 		"	msr basepri, %0											\n" \
 241:Middlewares/Third_Party/FreeRTOS/Source/portable/GCC/ARM_CM4F/portmacro.h **** 		"	isb														\n" \
 242:Middlewares/Third_Party/FreeRTOS/Source/portable/GCC/ARM_CM4F/portmacro.h **** 		"	dsb														\n" \
 243:Middlewares/Third_Party/FreeRTOS/Source/portable/GCC/ARM_CM4F/portmacro.h **** 		:"=r" (ulNewBASEPRI) : "i" ( configMAX_SYSCALL_INTERRUPT_PRIORITY )
 244:Middlewares/Third_Party/FreeRTOS/Source/portable/GCC/ARM_CM4F/portmacro.h **** 	);
 245:Middlewares/Third_Party/FreeRTOS/Source/portable/GCC/ARM_CM4F/portmacro.h **** }
 246:Middlewares/Third_Party/FreeRTOS/Source/portable/GCC/ARM_CM4F/portmacro.h **** 
 247:Middlewares/Third_Party/FreeRTOS/Source/portable/GCC/ARM_CM4F/portmacro.h **** /*-----------------------------------------------------------*/
 248:Middlewares/Third_Party/FreeRTOS/Source/portable/GCC/ARM_CM4F/portmacro.h **** 
 249:Middlewares/Third_Party/FreeRTOS/Source/portable/GCC/ARM_CM4F/portmacro.h **** portFORCE_INLINE static uint32_t ulPortRaiseBASEPRI( void )
 618              		.loc 2 249 34 view .LVU187
 619              	.LBB47:
 250:Middlewares/Third_Party/FreeRTOS/Source/portable/GCC/ARM_CM4F/portmacro.h **** {
 251:Middlewares/Third_Party/FreeRTOS/Source/portable/GCC/ARM_CM4F/portmacro.h **** uint32_t ulOriginalBASEPRI, ulNewBASEPRI;
 620              		.loc 2 251 1 view .LVU188
 252:Middlewares/Third_Party/FreeRTOS/Source/portable/GCC/ARM_CM4F/portmacro.h **** 
 253:Middlewares/Third_Party/FreeRTOS/Source/portable/GCC/ARM_CM4F/portmacro.h **** 	__asm volatile
 621              		.loc 2 253 2 view .LVU189
 622              		.syntax unified
 623              	@ 253 "Middlewares/Third_Party/FreeRTOS/Source/portable/GCC/ARM_CM4F/portmacro.h" 1
 624 0000 EFF31183 			mrs r3, basepri											
 625 0004 4FF05002 		mov r2, #80												
 626 0008 82F31188 		msr basepri, r2											
 627 000c BFF36F8F 		isb														
 628 0010 BFF34F8F 		dsb														
 629              	
 630              	@ 0 "" 2
 631              	.LVL53:
 254:Middlewares/Third_Party/FreeRTOS/Source/portable/GCC/ARM_CM4F/portmacro.h **** 	(
 255:Middlewares/Third_Party/FreeRTOS/Source/portable/GCC/ARM_CM4F/portmacro.h **** 		"	mrs %0, basepri											\n" \
 256:Middlewares/Third_Party/FreeRTOS/Source/portable/GCC/ARM_CM4F/portmacro.h **** 		"	mov %1, %2												\n"	\
 257:Middlewares/Third_Party/FreeRTOS/Source/portable/GCC/ARM_CM4F/portmacro.h **** 		"	msr basepri, %1											\n" \
 258:Middlewares/Third_Party/FreeRTOS/Source/portable/GCC/ARM_CM4F/portmacro.h **** 		"	isb														\n" \
 259:Middlewares/Third_Party/FreeRTOS/Source/portable/GCC/ARM_CM4F/portmacro.h **** 		"	dsb														\n" \
 260:Middlewares/Third_Party/FreeRTOS/Source/portable/GCC/ARM_CM4F/portmacro.h **** 		:"=r" (ulOriginalBASEPRI), "=r" (ulNewBASEPRI) : "i" ( configMAX_SYSCALL_INTERRUPT_PRIORITY )
 261:Middlewares/Third_Party/FreeRTOS/Source/portable/GCC/ARM_CM4F/portmacro.h **** 	);
 262:Middlewares/Third_Party/FreeRTOS/Source/portable/GCC/ARM_CM4F/portmacro.h **** 
 263:Middlewares/Third_Party/FreeRTOS/Source/portable/GCC/ARM_CM4F/portmacro.h **** 	/* This return will not be reached but is necessary to prevent compiler
 264:Middlewares/Third_Party/FreeRTOS/Source/portable/GCC/ARM_CM4F/portmacro.h **** 	warnings. */
 265:Middlewares/Third_Party/FreeRTOS/Source/portable/GCC/ARM_CM4F/portmacro.h **** 	return ulOriginalBASEPRI;
 632              		.loc 2 265 2 view .LVU190
 633              		.loc 2 265 2 is_stmt 0 view .LVU191
 634              		.thumb
 635              		.syntax unified
 636              	.LBE47:
ARM GAS  /var/folders/n1/76bg37b13ls08p1dhb9rhvd40000gn/T//ccOlpsUK.s 			page 32


 637              	.LBE46:
 522:Middlewares/Third_Party/FreeRTOS/Source/event_groups.c **** 	}
 638              		.loc 1 522 3 is_stmt 1 view .LVU192
 522:Middlewares/Third_Party/FreeRTOS/Source/event_groups.c **** 	}
 639              		.loc 1 522 12 is_stmt 0 view .LVU193
 640 0014 0068     		ldr	r0, [r0]
 641              	.LVL54:
 524:Middlewares/Third_Party/FreeRTOS/Source/event_groups.c **** 
 642              		.loc 1 524 2 is_stmt 1 view .LVU194
 643              	.LBB48:
 644              	.LBI48:
 266:Middlewares/Third_Party/FreeRTOS/Source/portable/GCC/ARM_CM4F/portmacro.h **** }
 267:Middlewares/Third_Party/FreeRTOS/Source/portable/GCC/ARM_CM4F/portmacro.h **** /*-----------------------------------------------------------*/
 268:Middlewares/Third_Party/FreeRTOS/Source/portable/GCC/ARM_CM4F/portmacro.h **** 
 269:Middlewares/Third_Party/FreeRTOS/Source/portable/GCC/ARM_CM4F/portmacro.h **** portFORCE_INLINE static void vPortSetBASEPRI( uint32_t ulNewMaskValue )
 645              		.loc 2 269 30 view .LVU195
 646              	.LBB49:
 270:Middlewares/Third_Party/FreeRTOS/Source/portable/GCC/ARM_CM4F/portmacro.h **** {
 271:Middlewares/Third_Party/FreeRTOS/Source/portable/GCC/ARM_CM4F/portmacro.h **** 	__asm volatile
 647              		.loc 2 271 2 view .LVU196
 648              		.syntax unified
 649              	@ 271 "Middlewares/Third_Party/FreeRTOS/Source/portable/GCC/ARM_CM4F/portmacro.h" 1
 650 0016 83F31188 			msr basepri, r3	
 651              	@ 0 "" 2
 652              	.LVL55:
 653              		.loc 2 271 2 is_stmt 0 view .LVU197
 654              		.thumb
 655              		.syntax unified
 656              	.LBE49:
 657              	.LBE48:
 526:Middlewares/Third_Party/FreeRTOS/Source/event_groups.c **** }
 658              		.loc 1 526 2 is_stmt 1 view .LVU198
 527:Middlewares/Third_Party/FreeRTOS/Source/event_groups.c **** /*-----------------------------------------------------------*/
 659              		.loc 1 527 1 is_stmt 0 view .LVU199
 660 001a 7047     		bx	lr
 661              		.cfi_endproc
 662              	.LFE9:
 664              		.section	.text.xEventGroupSetBits,"ax",%progbits
 665              		.align	1
 666              		.global	xEventGroupSetBits
 667              		.syntax unified
 668              		.thumb
 669              		.thumb_func
 670              		.fpu fpv4-sp-d16
 672              	xEventGroupSetBits:
 673              	.LVL56:
 674              	.LFB10:
 531:Middlewares/Third_Party/FreeRTOS/Source/event_groups.c **** ListItem_t *pxListItem, *pxNext;
 675              		.loc 1 531 1 is_stmt 1 view -0
 676              		.cfi_startproc
 677              		@ args = 0, pretend = 0, frame = 0
 678              		@ frame_needed = 0, uses_anonymous_args = 0
 531:Middlewares/Third_Party/FreeRTOS/Source/event_groups.c **** ListItem_t *pxListItem, *pxNext;
 679              		.loc 1 531 1 is_stmt 0 view .LVU201
 680 0000 F8B5     		push	{r3, r4, r5, r6, r7, lr}
 681              	.LCFI5:
 682              		.cfi_def_cfa_offset 24
ARM GAS  /var/folders/n1/76bg37b13ls08p1dhb9rhvd40000gn/T//ccOlpsUK.s 			page 33


 683              		.cfi_offset 3, -24
 684              		.cfi_offset 4, -20
 685              		.cfi_offset 5, -16
 686              		.cfi_offset 6, -12
 687              		.cfi_offset 7, -8
 688              		.cfi_offset 14, -4
 532:Middlewares/Third_Party/FreeRTOS/Source/event_groups.c **** ListItem_t const *pxListEnd;
 689              		.loc 1 532 1 is_stmt 1 view .LVU202
 533:Middlewares/Third_Party/FreeRTOS/Source/event_groups.c **** List_t *pxList;
 690              		.loc 1 533 1 view .LVU203
 534:Middlewares/Third_Party/FreeRTOS/Source/event_groups.c **** EventBits_t uxBitsToClear = 0, uxBitsWaitedFor, uxControlBits;
 691              		.loc 1 534 1 view .LVU204
 535:Middlewares/Third_Party/FreeRTOS/Source/event_groups.c **** EventGroup_t *pxEventBits = ( EventGroup_t * ) xEventGroup;
 692              		.loc 1 535 1 view .LVU205
 693              	.LVL57:
 536:Middlewares/Third_Party/FreeRTOS/Source/event_groups.c **** BaseType_t xMatchFound = pdFALSE;
 694              		.loc 1 536 1 view .LVU206
 537:Middlewares/Third_Party/FreeRTOS/Source/event_groups.c **** 
 695              		.loc 1 537 1 view .LVU207
 541:Middlewares/Third_Party/FreeRTOS/Source/event_groups.c **** 	configASSERT( ( uxBitsToSet & eventEVENT_BITS_CONTROL_BYTES ) == 0 );
 696              		.loc 1 541 2 view .LVU208
 697 0002 60B1     		cbz	r0, .L54
 698 0004 0446     		mov	r4, r0
 541:Middlewares/Third_Party/FreeRTOS/Source/event_groups.c **** 	configASSERT( ( uxBitsToSet & eventEVENT_BITS_CONTROL_BYTES ) == 0 );
 699              		.loc 1 541 29 discriminator 2 view .LVU209
 542:Middlewares/Third_Party/FreeRTOS/Source/event_groups.c **** 
 700              		.loc 1 542 2 discriminator 2 view .LVU210
 701 0006 11F07F4F 		tst	r1, #-16777216
 702 000a 11D0     		beq	.L45
 542:Middlewares/Third_Party/FreeRTOS/Source/event_groups.c **** 
 703              		.loc 1 542 2 view .LVU211
 704              	.LBB50:
 705              	.LBI50:
 233:Middlewares/Third_Party/FreeRTOS/Source/portable/GCC/ARM_CM4F/portmacro.h **** {
 706              		.loc 2 233 30 view .LVU212
 707              	.LBB51:
 235:Middlewares/Third_Party/FreeRTOS/Source/portable/GCC/ARM_CM4F/portmacro.h **** 
 708              		.loc 2 235 1 view .LVU213
 237:Middlewares/Third_Party/FreeRTOS/Source/portable/GCC/ARM_CM4F/portmacro.h **** 	(
 709              		.loc 2 237 2 view .LVU214
 710              		.syntax unified
 711              	@ 237 "Middlewares/Third_Party/FreeRTOS/Source/portable/GCC/ARM_CM4F/portmacro.h" 1
 712 000c 4FF05003 			mov r3, #80												
 713 0010 83F31188 		msr basepri, r3											
 714 0014 BFF36F8F 		isb														
 715 0018 BFF34F8F 		dsb														
 716              	
 717              	@ 0 "" 2
 718              	.LVL58:
 719              		.thumb
 720              		.syntax unified
 721              	.L46:
 237:Middlewares/Third_Party/FreeRTOS/Source/portable/GCC/ARM_CM4F/portmacro.h **** 	(
 722              		.loc 2 237 2 is_stmt 0 view .LVU215
 723              	.LBE51:
 724              	.LBE50:
 542:Middlewares/Third_Party/FreeRTOS/Source/event_groups.c **** 
ARM GAS  /var/folders/n1/76bg37b13ls08p1dhb9rhvd40000gn/T//ccOlpsUK.s 			page 34


 725              		.loc 1 542 2 is_stmt 1 discriminator 2 view .LVU216
 542:Middlewares/Third_Party/FreeRTOS/Source/event_groups.c **** 
 726              		.loc 1 542 2 discriminator 2 view .LVU217
 727 001c FEE7     		b	.L46
 728              	.L54:
 541:Middlewares/Third_Party/FreeRTOS/Source/event_groups.c **** 	configASSERT( ( uxBitsToSet & eventEVENT_BITS_CONTROL_BYTES ) == 0 );
 729              		.loc 1 541 2 view .LVU218
 730              	.LBB52:
 731              	.LBI52:
 233:Middlewares/Third_Party/FreeRTOS/Source/portable/GCC/ARM_CM4F/portmacro.h **** {
 732              		.loc 2 233 30 view .LVU219
 733              	.LBB53:
 235:Middlewares/Third_Party/FreeRTOS/Source/portable/GCC/ARM_CM4F/portmacro.h **** 
 734              		.loc 2 235 1 view .LVU220
 237:Middlewares/Third_Party/FreeRTOS/Source/portable/GCC/ARM_CM4F/portmacro.h **** 	(
 735              		.loc 2 237 2 view .LVU221
 736              		.syntax unified
 737              	@ 237 "Middlewares/Third_Party/FreeRTOS/Source/portable/GCC/ARM_CM4F/portmacro.h" 1
 738 001e 4FF05003 			mov r3, #80												
 739 0022 83F31188 		msr basepri, r3											
 740 0026 BFF36F8F 		isb														
 741 002a BFF34F8F 		dsb														
 742              	
 743              	@ 0 "" 2
 744              	.LVL59:
 745              		.thumb
 746              		.syntax unified
 747              	.L44:
 237:Middlewares/Third_Party/FreeRTOS/Source/portable/GCC/ARM_CM4F/portmacro.h **** 	(
 748              		.loc 2 237 2 is_stmt 0 view .LVU222
 749              	.LBE53:
 750              	.LBE52:
 541:Middlewares/Third_Party/FreeRTOS/Source/event_groups.c **** 	configASSERT( ( uxBitsToSet & eventEVENT_BITS_CONTROL_BYTES ) == 0 );
 751              		.loc 1 541 2 is_stmt 1 discriminator 1 view .LVU223
 541:Middlewares/Third_Party/FreeRTOS/Source/event_groups.c **** 	configASSERT( ( uxBitsToSet & eventEVENT_BITS_CONTROL_BYTES ) == 0 );
 752              		.loc 1 541 2 discriminator 1 view .LVU224
 753 002e FEE7     		b	.L44
 754              	.L45:
 541:Middlewares/Third_Party/FreeRTOS/Source/event_groups.c **** 	configASSERT( ( uxBitsToSet & eventEVENT_BITS_CONTROL_BYTES ) == 0 );
 755              		.loc 1 541 2 is_stmt 0 discriminator 1 view .LVU225
 756 0030 0D46     		mov	r5, r1
 542:Middlewares/Third_Party/FreeRTOS/Source/event_groups.c **** 
 757              		.loc 1 542 70 is_stmt 1 discriminator 2 view .LVU226
 544:Middlewares/Third_Party/FreeRTOS/Source/event_groups.c **** 	pxListEnd = listGET_END_MARKER( pxList ); /*lint !e826 !e740 The mini list structure is used as th
 758              		.loc 1 544 2 discriminator 2 view .LVU227
 759              	.LVL60:
 545:Middlewares/Third_Party/FreeRTOS/Source/event_groups.c **** 	vTaskSuspendAll();
 760              		.loc 1 545 2 discriminator 2 view .LVU228
 545:Middlewares/Third_Party/FreeRTOS/Source/event_groups.c **** 	vTaskSuspendAll();
 761              		.loc 1 545 12 is_stmt 0 discriminator 2 view .LVU229
 762 0032 00F10C06 		add	r6, r0, #12
 763              	.LVL61:
 546:Middlewares/Third_Party/FreeRTOS/Source/event_groups.c **** 	{
 764              		.loc 1 546 2 is_stmt 1 discriminator 2 view .LVU230
 765 0036 FFF7FEFF 		bl	vTaskSuspendAll
 766              	.LVL62:
 548:Middlewares/Third_Party/FreeRTOS/Source/event_groups.c **** 
ARM GAS  /var/folders/n1/76bg37b13ls08p1dhb9rhvd40000gn/T//ccOlpsUK.s 			page 35


 767              		.loc 1 548 56 discriminator 2 view .LVU231
 550:Middlewares/Third_Party/FreeRTOS/Source/event_groups.c **** 
 768              		.loc 1 550 3 discriminator 2 view .LVU232
 550:Middlewares/Third_Party/FreeRTOS/Source/event_groups.c **** 
 769              		.loc 1 550 14 is_stmt 0 discriminator 2 view .LVU233
 770 003a 2069     		ldr	r0, [r4, #16]
 771              	.LVL63:
 553:Middlewares/Third_Party/FreeRTOS/Source/event_groups.c **** 
 772              		.loc 1 553 3 is_stmt 1 discriminator 2 view .LVU234
 553:Middlewares/Third_Party/FreeRTOS/Source/event_groups.c **** 
 773              		.loc 1 553 28 is_stmt 0 discriminator 2 view .LVU235
 774 003c 2368     		ldr	r3, [r4]
 775 003e 2B43     		orrs	r3, r3, r5
 776 0040 2360     		str	r3, [r4]
 556:Middlewares/Third_Party/FreeRTOS/Source/event_groups.c **** 		{
 777              		.loc 1 556 3 is_stmt 1 discriminator 2 view .LVU236
 535:Middlewares/Third_Party/FreeRTOS/Source/event_groups.c **** EventGroup_t *pxEventBits = ( EventGroup_t * ) xEventGroup;
 778              		.loc 1 535 13 is_stmt 0 discriminator 2 view .LVU237
 779 0042 0025     		movs	r5, #0
 780              	.LVL64:
 556:Middlewares/Third_Party/FreeRTOS/Source/event_groups.c **** 		{
 781              		.loc 1 556 8 discriminator 2 view .LVU238
 782 0044 0AE0     		b	.L47
 783              	.LVL65:
 784              	.L48:
 578:Middlewares/Third_Party/FreeRTOS/Source/event_groups.c **** 			{
 785              		.loc 1 578 9 is_stmt 1 view .LVU239
 578:Middlewares/Third_Party/FreeRTOS/Source/event_groups.c **** 			{
 786              		.loc 1 578 44 is_stmt 0 view .LVU240
 787 0046 2168     		ldr	r1, [r4]
 578:Middlewares/Third_Party/FreeRTOS/Source/event_groups.c **** 			{
 788              		.loc 1 578 11 view .LVU241
 789 0048 33EA0101 		bics	r1, r3, r1
 790 004c 05D1     		bne	.L50
 578:Middlewares/Third_Party/FreeRTOS/Source/event_groups.c **** 			{
 791              		.loc 1 578 11 view .LVU242
 792 004e 11E0     		b	.L49
 793              	.L51:
 597:Middlewares/Third_Party/FreeRTOS/Source/event_groups.c **** 				}
 794              		.loc 1 597 30 is_stmt 1 view .LVU243
 605:Middlewares/Third_Party/FreeRTOS/Source/event_groups.c **** 			}
 795              		.loc 1 605 5 view .LVU244
 605:Middlewares/Third_Party/FreeRTOS/Source/event_groups.c **** 			}
 796              		.loc 1 605 72 is_stmt 0 view .LVU245
 797 0050 2168     		ldr	r1, [r4]
 605:Middlewares/Third_Party/FreeRTOS/Source/event_groups.c **** 			}
 798              		.loc 1 605 14 view .LVU246
 799 0052 41F00071 		orr	r1, r1, #33554432
 800 0056 FFF7FEFF 		bl	xTaskRemoveFromUnorderedEventList
 801              	.LVL66:
 802              	.L50:
 531:Middlewares/Third_Party/FreeRTOS/Source/event_groups.c **** ListItem_t *pxListItem, *pxNext;
 803              		.loc 1 531 1 view .LVU247
 804 005a 3846     		mov	r0, r7
 805              	.LVL67:
 806              	.L47:
 556:Middlewares/Third_Party/FreeRTOS/Source/event_groups.c **** 		{
ARM GAS  /var/folders/n1/76bg37b13ls08p1dhb9rhvd40000gn/T//ccOlpsUK.s 			page 36


 807              		.loc 1 556 8 view .LVU248
 808 005c B042     		cmp	r0, r6
 809 005e 0ED0     		beq	.L55
 558:Middlewares/Third_Party/FreeRTOS/Source/event_groups.c **** 			uxBitsWaitedFor = listGET_LIST_ITEM_VALUE( pxListItem );
 810              		.loc 1 558 4 is_stmt 1 view .LVU249
 558:Middlewares/Third_Party/FreeRTOS/Source/event_groups.c **** 			uxBitsWaitedFor = listGET_LIST_ITEM_VALUE( pxListItem );
 811              		.loc 1 558 11 is_stmt 0 view .LVU250
 812 0060 4768     		ldr	r7, [r0, #4]
 813              	.LVL68:
 559:Middlewares/Third_Party/FreeRTOS/Source/event_groups.c **** 			xMatchFound = pdFALSE;
 814              		.loc 1 559 4 is_stmt 1 view .LVU251
 559:Middlewares/Third_Party/FreeRTOS/Source/event_groups.c **** 			xMatchFound = pdFALSE;
 815              		.loc 1 559 20 is_stmt 0 view .LVU252
 816 0062 0268     		ldr	r2, [r0]
 817              	.LVL69:
 560:Middlewares/Third_Party/FreeRTOS/Source/event_groups.c **** 
 818              		.loc 1 560 4 is_stmt 1 view .LVU253
 563:Middlewares/Third_Party/FreeRTOS/Source/event_groups.c **** 			uxBitsWaitedFor &= ~eventEVENT_BITS_CONTROL_BYTES;
 819              		.loc 1 563 4 view .LVU254
 564:Middlewares/Third_Party/FreeRTOS/Source/event_groups.c **** 
 820              		.loc 1 564 4 view .LVU255
 564:Middlewares/Third_Party/FreeRTOS/Source/event_groups.c **** 
 821              		.loc 1 564 20 is_stmt 0 view .LVU256
 822 0064 22F07F43 		bic	r3, r2, #-16777216
 823              	.LVL70:
 566:Middlewares/Third_Party/FreeRTOS/Source/event_groups.c **** 			{
 824              		.loc 1 566 4 is_stmt 1 view .LVU257
 566:Middlewares/Third_Party/FreeRTOS/Source/event_groups.c **** 			{
 825              		.loc 1 566 6 is_stmt 0 view .LVU258
 826 0068 12F0806F 		tst	r2, #67108864
 827 006c EBD1     		bne	.L48
 569:Middlewares/Third_Party/FreeRTOS/Source/event_groups.c **** 				{
 828              		.loc 1 569 5 is_stmt 1 view .LVU259
 569:Middlewares/Third_Party/FreeRTOS/Source/event_groups.c **** 				{
 829              		.loc 1 569 40 is_stmt 0 view .LVU260
 830 006e 2168     		ldr	r1, [r4]
 569:Middlewares/Third_Party/FreeRTOS/Source/event_groups.c **** 				{
 831              		.loc 1 569 7 view .LVU261
 832 0070 1942     		tst	r1, r3
 833 0072 F2D0     		beq	.L50
 834              	.L49:
 591:Middlewares/Third_Party/FreeRTOS/Source/event_groups.c **** 				{
 835              		.loc 1 591 5 is_stmt 1 view .LVU262
 591:Middlewares/Third_Party/FreeRTOS/Source/event_groups.c **** 				{
 836              		.loc 1 591 7 is_stmt 0 view .LVU263
 837 0074 12F0807F 		tst	r2, #16777216
 838 0078 EAD0     		beq	.L51
 593:Middlewares/Third_Party/FreeRTOS/Source/event_groups.c **** 				}
 839              		.loc 1 593 6 is_stmt 1 view .LVU264
 593:Middlewares/Third_Party/FreeRTOS/Source/event_groups.c **** 				}
 840              		.loc 1 593 20 is_stmt 0 view .LVU265
 841 007a 1D43     		orrs	r5, r5, r3
 842              	.LVL71:
 593:Middlewares/Third_Party/FreeRTOS/Source/event_groups.c **** 				}
 843              		.loc 1 593 20 view .LVU266
 844 007c E8E7     		b	.L51
 845              	.LVL72:
ARM GAS  /var/folders/n1/76bg37b13ls08p1dhb9rhvd40000gn/T//ccOlpsUK.s 			page 37


 846              	.L55:
 616:Middlewares/Third_Party/FreeRTOS/Source/event_groups.c **** 	}
 847              		.loc 1 616 3 is_stmt 1 view .LVU267
 616:Middlewares/Third_Party/FreeRTOS/Source/event_groups.c **** 	}
 848              		.loc 1 616 28 is_stmt 0 view .LVU268
 849 007e 2368     		ldr	r3, [r4]
 850 0080 23EA0503 		bic	r3, r3, r5
 851 0084 2360     		str	r3, [r4]
 618:Middlewares/Third_Party/FreeRTOS/Source/event_groups.c **** 
 852              		.loc 1 618 2 is_stmt 1 view .LVU269
 618:Middlewares/Third_Party/FreeRTOS/Source/event_groups.c **** 
 853              		.loc 1 618 11 is_stmt 0 view .LVU270
 854 0086 FFF7FEFF 		bl	xTaskResumeAll
 855              	.LVL73:
 620:Middlewares/Third_Party/FreeRTOS/Source/event_groups.c **** }
 856              		.loc 1 620 2 is_stmt 1 view .LVU271
 621:Middlewares/Third_Party/FreeRTOS/Source/event_groups.c **** /*-----------------------------------------------------------*/
 857              		.loc 1 621 1 is_stmt 0 view .LVU272
 858 008a 2068     		ldr	r0, [r4]
 859 008c F8BD     		pop	{r3, r4, r5, r6, r7, pc}
 621:Middlewares/Third_Party/FreeRTOS/Source/event_groups.c **** /*-----------------------------------------------------------*/
 860              		.loc 1 621 1 view .LVU273
 861              		.cfi_endproc
 862              	.LFE10:
 864              		.section	.text.xEventGroupSync,"ax",%progbits
 865              		.align	1
 866              		.global	xEventGroupSync
 867              		.syntax unified
 868              		.thumb
 869              		.thumb_func
 870              		.fpu fpv4-sp-d16
 872              	xEventGroupSync:
 873              	.LVL74:
 874              	.LFB6:
 209:Middlewares/Third_Party/FreeRTOS/Source/event_groups.c **** EventBits_t uxOriginalBitValue, uxReturn;
 875              		.loc 1 209 1 is_stmt 1 view -0
 876              		.cfi_startproc
 877              		@ args = 0, pretend = 0, frame = 0
 878              		@ frame_needed = 0, uses_anonymous_args = 0
 210:Middlewares/Third_Party/FreeRTOS/Source/event_groups.c **** EventGroup_t *pxEventBits = ( EventGroup_t * ) xEventGroup;
 879              		.loc 1 210 1 view .LVU275
 211:Middlewares/Third_Party/FreeRTOS/Source/event_groups.c **** BaseType_t xAlreadyYielded;
 880              		.loc 1 211 1 view .LVU276
 212:Middlewares/Third_Party/FreeRTOS/Source/event_groups.c **** BaseType_t xTimeoutOccurred = pdFALSE;
 881              		.loc 1 212 1 view .LVU277
 213:Middlewares/Third_Party/FreeRTOS/Source/event_groups.c **** 
 882              		.loc 1 213 1 view .LVU278
 215:Middlewares/Third_Party/FreeRTOS/Source/event_groups.c **** 	configASSERT( uxBitsToWaitFor != 0 );
 883              		.loc 1 215 2 view .LVU279
 884 0000 12F07F4F 		tst	r2, #-16777216
 885 0004 08D0     		beq	.L57
 215:Middlewares/Third_Party/FreeRTOS/Source/event_groups.c **** 	configASSERT( uxBitsToWaitFor != 0 );
 886              		.loc 1 215 2 view .LVU280
 887              	.LBB54:
 888              	.LBI54:
 233:Middlewares/Third_Party/FreeRTOS/Source/portable/GCC/ARM_CM4F/portmacro.h **** {
 889              		.loc 2 233 30 view .LVU281
ARM GAS  /var/folders/n1/76bg37b13ls08p1dhb9rhvd40000gn/T//ccOlpsUK.s 			page 38


 890              	.LBB55:
 235:Middlewares/Third_Party/FreeRTOS/Source/portable/GCC/ARM_CM4F/portmacro.h **** 
 891              		.loc 2 235 1 view .LVU282
 237:Middlewares/Third_Party/FreeRTOS/Source/portable/GCC/ARM_CM4F/portmacro.h **** 	(
 892              		.loc 2 237 2 view .LVU283
 893              		.syntax unified
 894              	@ 237 "Middlewares/Third_Party/FreeRTOS/Source/portable/GCC/ARM_CM4F/portmacro.h" 1
 895 0006 4FF05003 			mov r3, #80												
 896 000a 83F31188 		msr basepri, r3											
 897 000e BFF36F8F 		isb														
 898 0012 BFF34F8F 		dsb														
 899              	
 900              	@ 0 "" 2
 901              	.LVL75:
 902              		.thumb
 903              		.syntax unified
 904              	.L58:
 237:Middlewares/Third_Party/FreeRTOS/Source/portable/GCC/ARM_CM4F/portmacro.h **** 	(
 905              		.loc 2 237 2 is_stmt 0 view .LVU284
 906              	.LBE55:
 907              	.LBE54:
 215:Middlewares/Third_Party/FreeRTOS/Source/event_groups.c **** 	configASSERT( uxBitsToWaitFor != 0 );
 908              		.loc 1 215 2 is_stmt 1 discriminator 1 view .LVU285
 215:Middlewares/Third_Party/FreeRTOS/Source/event_groups.c **** 	configASSERT( uxBitsToWaitFor != 0 );
 909              		.loc 1 215 2 discriminator 1 view .LVU286
 910 0016 FEE7     		b	.L58
 911              	.LVL76:
 912              	.L57:
 209:Middlewares/Third_Party/FreeRTOS/Source/event_groups.c **** EventBits_t uxOriginalBitValue, uxReturn;
 913              		.loc 1 209 1 is_stmt 0 discriminator 2 view .LVU287
 914 0018 2DE9F041 		push	{r4, r5, r6, r7, r8, lr}
 915              	.LCFI6:
 916              		.cfi_def_cfa_offset 24
 917              		.cfi_offset 4, -24
 918              		.cfi_offset 5, -20
 919              		.cfi_offset 6, -16
 920              		.cfi_offset 7, -12
 921              		.cfi_offset 8, -8
 922              		.cfi_offset 14, -4
 923 001c 0646     		mov	r6, r0
 924 001e 8846     		mov	r8, r1
 925 0020 1546     		mov	r5, r2
 926 0022 1F46     		mov	r7, r3
 215:Middlewares/Third_Party/FreeRTOS/Source/event_groups.c **** 	configASSERT( uxBitsToWaitFor != 0 );
 927              		.loc 1 215 74 is_stmt 1 discriminator 2 view .LVU288
 216:Middlewares/Third_Party/FreeRTOS/Source/event_groups.c **** 	#if ( ( INCLUDE_xTaskGetSchedulerState == 1 ) || ( configUSE_TIMERS == 1 ) )
 928              		.loc 1 216 2 discriminator 2 view .LVU289
 929 0024 42B9     		cbnz	r2, .L59
 216:Middlewares/Third_Party/FreeRTOS/Source/event_groups.c **** 	#if ( ( INCLUDE_xTaskGetSchedulerState == 1 ) || ( configUSE_TIMERS == 1 ) )
 930              		.loc 1 216 2 view .LVU290
 931              	.LBB56:
 932              	.LBI56:
 233:Middlewares/Third_Party/FreeRTOS/Source/portable/GCC/ARM_CM4F/portmacro.h **** {
 933              		.loc 2 233 30 view .LVU291
 934              	.LBB57:
 235:Middlewares/Third_Party/FreeRTOS/Source/portable/GCC/ARM_CM4F/portmacro.h **** 
 935              		.loc 2 235 1 view .LVU292
ARM GAS  /var/folders/n1/76bg37b13ls08p1dhb9rhvd40000gn/T//ccOlpsUK.s 			page 39


 237:Middlewares/Third_Party/FreeRTOS/Source/portable/GCC/ARM_CM4F/portmacro.h **** 	(
 936              		.loc 2 237 2 view .LVU293
 937              		.syntax unified
 938              	@ 237 "Middlewares/Third_Party/FreeRTOS/Source/portable/GCC/ARM_CM4F/portmacro.h" 1
 939 0026 4FF05003 			mov r3, #80												
 940 002a 83F31188 		msr basepri, r3											
 941 002e BFF36F8F 		isb														
 942 0032 BFF34F8F 		dsb														
 943              	
 944              	@ 0 "" 2
 945              	.LVL77:
 946              		.thumb
 947              		.syntax unified
 948              	.L60:
 237:Middlewares/Third_Party/FreeRTOS/Source/portable/GCC/ARM_CM4F/portmacro.h **** 	(
 949              		.loc 2 237 2 is_stmt 0 view .LVU294
 950              	.LBE57:
 951              	.LBE56:
 216:Middlewares/Third_Party/FreeRTOS/Source/event_groups.c **** 	#if ( ( INCLUDE_xTaskGetSchedulerState == 1 ) || ( configUSE_TIMERS == 1 ) )
 952              		.loc 1 216 2 is_stmt 1 discriminator 2 view .LVU295
 216:Middlewares/Third_Party/FreeRTOS/Source/event_groups.c **** 	#if ( ( INCLUDE_xTaskGetSchedulerState == 1 ) || ( configUSE_TIMERS == 1 ) )
 953              		.loc 1 216 2 discriminator 2 view .LVU296
 954 0036 FEE7     		b	.L60
 955              	.LVL78:
 956              	.L59:
 216:Middlewares/Third_Party/FreeRTOS/Source/event_groups.c **** 	#if ( ( INCLUDE_xTaskGetSchedulerState == 1 ) || ( configUSE_TIMERS == 1 ) )
 957              		.loc 1 216 38 discriminator 2 view .LVU297
 219:Middlewares/Third_Party/FreeRTOS/Source/event_groups.c **** 	}
 958              		.loc 1 219 3 discriminator 2 view .LVU298
 959 0038 FFF7FEFF 		bl	xTaskGetSchedulerState
 960              	.LVL79:
 219:Middlewares/Third_Party/FreeRTOS/Source/event_groups.c **** 	}
 961              		.loc 1 219 3 is_stmt 0 discriminator 2 view .LVU299
 962 003c 48B9     		cbnz	r0, .L61
 963 003e 47B1     		cbz	r7, .L61
 219:Middlewares/Third_Party/FreeRTOS/Source/event_groups.c **** 	}
 964              		.loc 1 219 3 is_stmt 1 view .LVU300
 965              	.LBB58:
 966              	.LBI58:
 233:Middlewares/Third_Party/FreeRTOS/Source/portable/GCC/ARM_CM4F/portmacro.h **** {
 967              		.loc 2 233 30 view .LVU301
 968              	.LBB59:
 235:Middlewares/Third_Party/FreeRTOS/Source/portable/GCC/ARM_CM4F/portmacro.h **** 
 969              		.loc 2 235 1 view .LVU302
 237:Middlewares/Third_Party/FreeRTOS/Source/portable/GCC/ARM_CM4F/portmacro.h **** 	(
 970              		.loc 2 237 2 view .LVU303
 971              		.syntax unified
 972              	@ 237 "Middlewares/Third_Party/FreeRTOS/Source/portable/GCC/ARM_CM4F/portmacro.h" 1
 973 0040 4FF05003 			mov r3, #80												
 974 0044 83F31188 		msr basepri, r3											
 975 0048 BFF36F8F 		isb														
 976 004c BFF34F8F 		dsb														
 977              	
 978              	@ 0 "" 2
 979              	.LVL80:
 980              		.thumb
 981              		.syntax unified
ARM GAS  /var/folders/n1/76bg37b13ls08p1dhb9rhvd40000gn/T//ccOlpsUK.s 			page 40


 982              	.L62:
 237:Middlewares/Third_Party/FreeRTOS/Source/portable/GCC/ARM_CM4F/portmacro.h **** 	(
 983              		.loc 2 237 2 is_stmt 0 view .LVU304
 984              	.LBE59:
 985              	.LBE58:
 219:Middlewares/Third_Party/FreeRTOS/Source/event_groups.c **** 	}
 986              		.loc 1 219 3 is_stmt 1 discriminator 3 view .LVU305
 219:Middlewares/Third_Party/FreeRTOS/Source/event_groups.c **** 	}
 987              		.loc 1 219 3 discriminator 3 view .LVU306
 988 0050 FEE7     		b	.L62
 989              	.L61:
 219:Middlewares/Third_Party/FreeRTOS/Source/event_groups.c **** 	}
 990              		.loc 1 219 104 discriminator 8 view .LVU307
 223:Middlewares/Third_Party/FreeRTOS/Source/event_groups.c **** 	{
 991              		.loc 1 223 2 discriminator 8 view .LVU308
 992 0052 FFF7FEFF 		bl	vTaskSuspendAll
 993              	.LVL81:
 225:Middlewares/Third_Party/FreeRTOS/Source/event_groups.c **** 
 994              		.loc 1 225 3 discriminator 8 view .LVU309
 225:Middlewares/Third_Party/FreeRTOS/Source/event_groups.c **** 
 995              		.loc 1 225 22 is_stmt 0 discriminator 8 view .LVU310
 996 0056 3468     		ldr	r4, [r6]
 997              	.LVL82:
 227:Middlewares/Third_Party/FreeRTOS/Source/event_groups.c **** 
 998              		.loc 1 227 3 is_stmt 1 discriminator 8 view .LVU311
 227:Middlewares/Third_Party/FreeRTOS/Source/event_groups.c **** 
 999              		.loc 1 227 12 is_stmt 0 discriminator 8 view .LVU312
 1000 0058 4146     		mov	r1, r8
 1001 005a 3046     		mov	r0, r6
 1002 005c FFF7FEFF 		bl	xEventGroupSetBits
 1003              	.LVL83:
 229:Middlewares/Third_Party/FreeRTOS/Source/event_groups.c **** 		{
 1004              		.loc 1 229 3 is_stmt 1 discriminator 8 view .LVU313
 229:Middlewares/Third_Party/FreeRTOS/Source/event_groups.c **** 		{
 1005              		.loc 1 229 30 is_stmt 0 discriminator 8 view .LVU314
 1006 0060 44EA0804 		orr	r4, r4, r8
 1007              	.LVL84:
 229:Middlewares/Third_Party/FreeRTOS/Source/event_groups.c **** 		{
 1008              		.loc 1 229 5 discriminator 8 view .LVU315
 1009 0064 35EA0403 		bics	r3, r5, r4
 1010 0068 18D0     		beq	.L72
 242:Middlewares/Third_Party/FreeRTOS/Source/event_groups.c **** 			{
 1011              		.loc 1 242 4 is_stmt 1 view .LVU316
 242:Middlewares/Third_Party/FreeRTOS/Source/event_groups.c **** 			{
 1012              		.loc 1 242 6 is_stmt 0 view .LVU317
 1013 006a EFB9     		cbnz	r7, .L73
 261:Middlewares/Third_Party/FreeRTOS/Source/event_groups.c **** 			}
 1014              		.loc 1 261 5 is_stmt 1 view .LVU318
 261:Middlewares/Third_Party/FreeRTOS/Source/event_groups.c **** 			}
 1015              		.loc 1 261 14 is_stmt 0 view .LVU319
 1016 006c 3468     		ldr	r4, [r6]
 1017              	.LVL85:
 1018              	.L64:
 265:Middlewares/Third_Party/FreeRTOS/Source/event_groups.c **** 
 1019              		.loc 1 265 2 is_stmt 1 view .LVU320
 265:Middlewares/Third_Party/FreeRTOS/Source/event_groups.c **** 
 1020              		.loc 1 265 20 is_stmt 0 view .LVU321
ARM GAS  /var/folders/n1/76bg37b13ls08p1dhb9rhvd40000gn/T//ccOlpsUK.s 			page 41


 1021 006e FFF7FEFF 		bl	xTaskResumeAll
 1022              	.LVL86:
 267:Middlewares/Third_Party/FreeRTOS/Source/event_groups.c **** 	{
 1023              		.loc 1 267 2 is_stmt 1 view .LVU322
 267:Middlewares/Third_Party/FreeRTOS/Source/event_groups.c **** 	{
 1024              		.loc 1 267 4 is_stmt 0 view .LVU323
 1025 0072 87B1     		cbz	r7, .L56
 269:Middlewares/Third_Party/FreeRTOS/Source/event_groups.c **** 		{
 1026              		.loc 1 269 3 is_stmt 1 view .LVU324
 269:Middlewares/Third_Party/FreeRTOS/Source/event_groups.c **** 		{
 1027              		.loc 1 269 5 is_stmt 0 view .LVU325
 1028 0074 38B9     		cbnz	r0, .L67
 271:Middlewares/Third_Party/FreeRTOS/Source/event_groups.c **** 		}
 1029              		.loc 1 271 4 is_stmt 1 view .LVU326
 1030 0076 174B     		ldr	r3, .L76
 1031 0078 4FF08052 		mov	r2, #268435456
 1032 007c 1A60     		str	r2, [r3]
 271:Middlewares/Third_Party/FreeRTOS/Source/event_groups.c **** 		}
 1033              		.loc 1 271 4 view .LVU327
 1034              		.syntax unified
 1035              	@ 271 "Middlewares/Third_Party/FreeRTOS/Source/event_groups.c" 1
 1036 007e BFF34F8F 		dsb
 1037              	@ 0 "" 2
 271:Middlewares/Third_Party/FreeRTOS/Source/event_groups.c **** 		}
 1038              		.loc 1 271 4 view .LVU328
 1039              	@ 271 "Middlewares/Third_Party/FreeRTOS/Source/event_groups.c" 1
 1040 0082 BFF36F8F 		isb
 1041              	@ 0 "" 2
 271:Middlewares/Third_Party/FreeRTOS/Source/event_groups.c **** 		}
 1042              		.loc 1 271 26 view .LVU329
 1043              		.thumb
 1044              		.syntax unified
 1045              	.L67:
 275:Middlewares/Third_Party/FreeRTOS/Source/event_groups.c **** 		}
 1046              		.loc 1 275 28 view .LVU330
 282:Middlewares/Third_Party/FreeRTOS/Source/event_groups.c **** 
 1047              		.loc 1 282 3 view .LVU331
 282:Middlewares/Third_Party/FreeRTOS/Source/event_groups.c **** 
 1048              		.loc 1 282 14 is_stmt 0 view .LVU332
 1049 0086 FFF7FEFF 		bl	uxTaskResetEventItemValue
 1050              	.LVL87:
 282:Middlewares/Third_Party/FreeRTOS/Source/event_groups.c **** 
 1051              		.loc 1 282 14 view .LVU333
 1052 008a 0446     		mov	r4, r0
 1053              	.LVL88:
 284:Middlewares/Third_Party/FreeRTOS/Source/event_groups.c **** 		{
 1054              		.loc 1 284 3 is_stmt 1 view .LVU334
 284:Middlewares/Third_Party/FreeRTOS/Source/event_groups.c **** 		{
 1055              		.loc 1 284 5 is_stmt 0 view .LVU335
 1056 008c 10F0007F 		tst	r0, #33554432
 1057 0090 12D0     		beq	.L74
 1058              	.LVL89:
 1059              	.L68:
 311:Middlewares/Third_Party/FreeRTOS/Source/event_groups.c **** 
 1060              		.loc 1 311 3 is_stmt 1 view .LVU336
 315:Middlewares/Third_Party/FreeRTOS/Source/event_groups.c **** 	}
 1061              		.loc 1 315 3 view .LVU337
ARM GAS  /var/folders/n1/76bg37b13ls08p1dhb9rhvd40000gn/T//ccOlpsUK.s 			page 42


 315:Middlewares/Third_Party/FreeRTOS/Source/event_groups.c **** 	}
 1062              		.loc 1 315 12 is_stmt 0 view .LVU338
 1063 0092 24F07F44 		bic	r4, r4, #-16777216
 1064              	.LVL90:
 318:Middlewares/Third_Party/FreeRTOS/Source/event_groups.c **** 
 1065              		.loc 1 318 2 is_stmt 1 view .LVU339
 320:Middlewares/Third_Party/FreeRTOS/Source/event_groups.c **** }
 1066              		.loc 1 320 2 view .LVU340
 1067              	.L56:
 321:Middlewares/Third_Party/FreeRTOS/Source/event_groups.c **** /*-----------------------------------------------------------*/
 1068              		.loc 1 321 1 is_stmt 0 view .LVU341
 1069 0096 2046     		mov	r0, r4
 1070 0098 BDE8F081 		pop	{r4, r5, r6, r7, r8, pc}
 1071              	.LVL91:
 1072              	.L72:
 232:Middlewares/Third_Party/FreeRTOS/Source/event_groups.c **** 
 1073              		.loc 1 232 4 is_stmt 1 view .LVU342
 236:Middlewares/Third_Party/FreeRTOS/Source/event_groups.c **** 
 1074              		.loc 1 236 4 view .LVU343
 236:Middlewares/Third_Party/FreeRTOS/Source/event_groups.c **** 
 1075              		.loc 1 236 29 is_stmt 0 view .LVU344
 1076 009c 3368     		ldr	r3, [r6]
 1077 009e 23EA0503 		bic	r3, r3, r5
 1078 00a2 3360     		str	r3, [r6]
 238:Middlewares/Third_Party/FreeRTOS/Source/event_groups.c **** 		}
 1079              		.loc 1 238 4 is_stmt 1 view .LVU345
 1080              	.LVL92:
 238:Middlewares/Third_Party/FreeRTOS/Source/event_groups.c **** 		}
 1081              		.loc 1 238 17 is_stmt 0 view .LVU346
 1082 00a4 0027     		movs	r7, #0
 1083 00a6 E2E7     		b	.L64
 1084              	.LVL93:
 1085              	.L73:
 244:Middlewares/Third_Party/FreeRTOS/Source/event_groups.c **** 
 1086              		.loc 1 244 77 is_stmt 1 view .LVU347
 249:Middlewares/Third_Party/FreeRTOS/Source/event_groups.c **** 
 1087              		.loc 1 249 5 view .LVU348
 1088 00a8 3A46     		mov	r2, r7
 1089 00aa 45F0A061 		orr	r1, r5, #83886080
 1090 00ae 301D     		adds	r0, r6, #4
 1091 00b0 FFF7FEFF 		bl	vTaskPlaceOnUnorderedEventList
 1092              	.LVL94:
 255:Middlewares/Third_Party/FreeRTOS/Source/event_groups.c **** 			}
 1093              		.loc 1 255 5 view .LVU349
 255:Middlewares/Third_Party/FreeRTOS/Source/event_groups.c **** 			}
 1094              		.loc 1 255 14 is_stmt 0 view .LVU350
 1095 00b4 0024     		movs	r4, #0
 1096 00b6 DAE7     		b	.L64
 1097              	.LVL95:
 1098              	.L74:
 287:Middlewares/Third_Party/FreeRTOS/Source/event_groups.c **** 			{
 1099              		.loc 1 287 4 is_stmt 1 view .LVU351
 1100 00b8 FFF7FEFF 		bl	vPortEnterCritical
 1101              	.LVL96:
 289:Middlewares/Third_Party/FreeRTOS/Source/event_groups.c **** 
 1102              		.loc 1 289 5 view .LVU352
 289:Middlewares/Third_Party/FreeRTOS/Source/event_groups.c **** 
ARM GAS  /var/folders/n1/76bg37b13ls08p1dhb9rhvd40000gn/T//ccOlpsUK.s 			page 43


 1103              		.loc 1 289 14 is_stmt 0 view .LVU353
 1104 00bc 3468     		ldr	r4, [r6]
 1105              	.LVL97:
 295:Middlewares/Third_Party/FreeRTOS/Source/event_groups.c **** 				{
 1106              		.loc 1 295 5 is_stmt 1 view .LVU354
 295:Middlewares/Third_Party/FreeRTOS/Source/event_groups.c **** 				{
 1107              		.loc 1 295 7 is_stmt 0 view .LVU355
 1108 00be 35EA0403 		bics	r3, r5, r4
 1109 00c2 02D0     		beq	.L75
 1110              	.LVL98:
 1111              	.L69:
 301:Middlewares/Third_Party/FreeRTOS/Source/event_groups.c **** 				}
 1112              		.loc 1 301 30 is_stmt 1 view .LVU356
 304:Middlewares/Third_Party/FreeRTOS/Source/event_groups.c **** 
 1113              		.loc 1 304 4 view .LVU357
 1114 00c4 FFF7FEFF 		bl	vPortExitCritical
 1115              	.LVL99:
 306:Middlewares/Third_Party/FreeRTOS/Source/event_groups.c **** 		}
 1116              		.loc 1 306 4 view .LVU358
 306:Middlewares/Third_Party/FreeRTOS/Source/event_groups.c **** 		}
 1117              		.loc 1 306 4 is_stmt 0 view .LVU359
 1118 00c8 E3E7     		b	.L68
 1119              	.LVL100:
 1120              	.L75:
 297:Middlewares/Third_Party/FreeRTOS/Source/event_groups.c **** 				}
 1121              		.loc 1 297 6 is_stmt 1 view .LVU360
 297:Middlewares/Third_Party/FreeRTOS/Source/event_groups.c **** 				}
 1122              		.loc 1 297 31 is_stmt 0 view .LVU361
 1123 00ca 24EA0505 		bic	r5, r4, r5
 1124              	.LVL101:
 297:Middlewares/Third_Party/FreeRTOS/Source/event_groups.c **** 				}
 1125              		.loc 1 297 31 view .LVU362
 1126 00ce 3560     		str	r5, [r6]
 1127 00d0 F8E7     		b	.L69
 1128              	.L77:
 1129 00d2 00BF     		.align	2
 1130              	.L76:
 1131 00d4 04ED00E0 		.word	-536810236
 1132              		.cfi_endproc
 1133              	.LFE6:
 1135              		.section	.text.vEventGroupDelete,"ax",%progbits
 1136              		.align	1
 1137              		.global	vEventGroupDelete
 1138              		.syntax unified
 1139              		.thumb
 1140              		.thumb_func
 1141              		.fpu fpv4-sp-d16
 1143              	vEventGroupDelete:
 1144              	.LVL102:
 1145              	.LFB11:
 625:Middlewares/Third_Party/FreeRTOS/Source/event_groups.c **** EventGroup_t *pxEventBits = ( EventGroup_t * ) xEventGroup;
 1146              		.loc 1 625 1 is_stmt 1 view -0
 1147              		.cfi_startproc
 1148              		@ args = 0, pretend = 0, frame = 0
 1149              		@ frame_needed = 0, uses_anonymous_args = 0
 625:Middlewares/Third_Party/FreeRTOS/Source/event_groups.c **** EventGroup_t *pxEventBits = ( EventGroup_t * ) xEventGroup;
 1150              		.loc 1 625 1 is_stmt 0 view .LVU364
ARM GAS  /var/folders/n1/76bg37b13ls08p1dhb9rhvd40000gn/T//ccOlpsUK.s 			page 44


 1151 0000 10B5     		push	{r4, lr}
 1152              	.LCFI7:
 1153              		.cfi_def_cfa_offset 8
 1154              		.cfi_offset 4, -8
 1155              		.cfi_offset 14, -4
 1156 0002 0446     		mov	r4, r0
 626:Middlewares/Third_Party/FreeRTOS/Source/event_groups.c **** const List_t *pxTasksWaitingForBits = &( pxEventBits->xTasksWaitingForBits );
 1157              		.loc 1 626 1 is_stmt 1 view .LVU365
 1158              	.LVL103:
 627:Middlewares/Third_Party/FreeRTOS/Source/event_groups.c **** 
 1159              		.loc 1 627 1 view .LVU366
 629:Middlewares/Third_Party/FreeRTOS/Source/event_groups.c **** 	{
 1160              		.loc 1 629 2 view .LVU367
 1161 0004 FFF7FEFF 		bl	vTaskSuspendAll
 1162              	.LVL104:
 631:Middlewares/Third_Party/FreeRTOS/Source/event_groups.c **** 
 1163              		.loc 1 631 41 view .LVU368
 633:Middlewares/Third_Party/FreeRTOS/Source/event_groups.c **** 		{
 1164              		.loc 1 633 3 view .LVU369
 1165              	.L79:
 633:Middlewares/Third_Party/FreeRTOS/Source/event_groups.c **** 		{
 1166              		.loc 1 633 10 is_stmt 0 view .LVU370
 1167 0008 6368     		ldr	r3, [r4, #4]
 633:Middlewares/Third_Party/FreeRTOS/Source/event_groups.c **** 		{
 1168              		.loc 1 633 8 view .LVU371
 1169 000a 93B1     		cbz	r3, .L84
 637:Middlewares/Third_Party/FreeRTOS/Source/event_groups.c **** 			( void ) xTaskRemoveFromUnorderedEventList( pxTasksWaitingForBits->xListEnd.pxNext, eventUNBLOCK
 1170              		.loc 1 637 4 is_stmt 1 view .LVU372
 1171 000c 2069     		ldr	r0, [r4, #16]
 1172 000e 04F10C03 		add	r3, r4, #12
 1173 0012 9842     		cmp	r0, r3
 1174 0014 04D0     		beq	.L85
 637:Middlewares/Third_Party/FreeRTOS/Source/event_groups.c **** 			( void ) xTaskRemoveFromUnorderedEventList( pxTasksWaitingForBits->xListEnd.pxNext, eventUNBLOCK
 1175              		.loc 1 637 115 discriminator 2 view .LVU373
 638:Middlewares/Third_Party/FreeRTOS/Source/event_groups.c **** 		}
 1176              		.loc 1 638 4 discriminator 2 view .LVU374
 638:Middlewares/Third_Party/FreeRTOS/Source/event_groups.c **** 		}
 1177              		.loc 1 638 13 is_stmt 0 discriminator 2 view .LVU375
 1178 0016 4FF00071 		mov	r1, #33554432
 1179 001a FFF7FEFF 		bl	xTaskRemoveFromUnorderedEventList
 1180              	.LVL105:
 1181 001e F3E7     		b	.L79
 1182              	.L85:
 637:Middlewares/Third_Party/FreeRTOS/Source/event_groups.c **** 			( void ) xTaskRemoveFromUnorderedEventList( pxTasksWaitingForBits->xListEnd.pxNext, eventUNBLOCK
 1183              		.loc 1 637 4 is_stmt 1 view .LVU376
 1184              	.LBB60:
 1185              	.LBI60:
 233:Middlewares/Third_Party/FreeRTOS/Source/portable/GCC/ARM_CM4F/portmacro.h **** {
 1186              		.loc 2 233 30 view .LVU377
 1187              	.LBB61:
 235:Middlewares/Third_Party/FreeRTOS/Source/portable/GCC/ARM_CM4F/portmacro.h **** 
 1188              		.loc 2 235 1 view .LVU378
 237:Middlewares/Third_Party/FreeRTOS/Source/portable/GCC/ARM_CM4F/portmacro.h **** 	(
 1189              		.loc 2 237 2 view .LVU379
 1190              		.syntax unified
 1191              	@ 237 "Middlewares/Third_Party/FreeRTOS/Source/portable/GCC/ARM_CM4F/portmacro.h" 1
 1192 0020 4FF05003 			mov r3, #80												
ARM GAS  /var/folders/n1/76bg37b13ls08p1dhb9rhvd40000gn/T//ccOlpsUK.s 			page 45


 1193 0024 83F31188 		msr basepri, r3											
 1194 0028 BFF36F8F 		isb														
 1195 002c BFF34F8F 		dsb														
 1196              	
 1197              	@ 0 "" 2
 1198              	.LVL106:
 1199              		.thumb
 1200              		.syntax unified
 1201              	.L81:
 237:Middlewares/Third_Party/FreeRTOS/Source/portable/GCC/ARM_CM4F/portmacro.h **** 	(
 1202              		.loc 2 237 2 is_stmt 0 view .LVU380
 1203              	.LBE61:
 1204              	.LBE60:
 637:Middlewares/Third_Party/FreeRTOS/Source/event_groups.c **** 			( void ) xTaskRemoveFromUnorderedEventList( pxTasksWaitingForBits->xListEnd.pxNext, eventUNBLOCK
 1205              		.loc 1 637 4 is_stmt 1 discriminator 1 view .LVU381
 637:Middlewares/Third_Party/FreeRTOS/Source/event_groups.c **** 			( void ) xTaskRemoveFromUnorderedEventList( pxTasksWaitingForBits->xListEnd.pxNext, eventUNBLOCK
 1206              		.loc 1 637 4 discriminator 1 view .LVU382
 1207 0030 FEE7     		b	.L81
 1208              	.L84:
 645:Middlewares/Third_Party/FreeRTOS/Source/event_groups.c **** 		}
 1209              		.loc 1 645 4 view .LVU383
 1210 0032 2046     		mov	r0, r4
 1211 0034 FFF7FEFF 		bl	vPortFree
 1212              	.LVL107:
 662:Middlewares/Third_Party/FreeRTOS/Source/event_groups.c **** }
 1213              		.loc 1 662 2 view .LVU384
 662:Middlewares/Third_Party/FreeRTOS/Source/event_groups.c **** }
 1214              		.loc 1 662 11 is_stmt 0 view .LVU385
 1215 0038 FFF7FEFF 		bl	xTaskResumeAll
 1216              	.LVL108:
 663:Middlewares/Third_Party/FreeRTOS/Source/event_groups.c **** /*-----------------------------------------------------------*/
 1217              		.loc 1 663 1 view .LVU386
 1218 003c 10BD     		pop	{r4, pc}
 663:Middlewares/Third_Party/FreeRTOS/Source/event_groups.c **** /*-----------------------------------------------------------*/
 1219              		.loc 1 663 1 view .LVU387
 1220              		.cfi_endproc
 1221              	.LFE11:
 1223              		.section	.text.vEventGroupSetBitsCallback,"ax",%progbits
 1224              		.align	1
 1225              		.global	vEventGroupSetBitsCallback
 1226              		.syntax unified
 1227              		.thumb
 1228              		.thumb_func
 1229              		.fpu fpv4-sp-d16
 1231              	vEventGroupSetBitsCallback:
 1232              	.LVL109:
 1233              	.LFB12:
 669:Middlewares/Third_Party/FreeRTOS/Source/event_groups.c **** 	( void ) xEventGroupSetBits( pvEventGroup, ( EventBits_t ) ulBitsToSet );
 1234              		.loc 1 669 1 is_stmt 1 view -0
 1235              		.cfi_startproc
 1236              		@ args = 0, pretend = 0, frame = 0
 1237              		@ frame_needed = 0, uses_anonymous_args = 0
 669:Middlewares/Third_Party/FreeRTOS/Source/event_groups.c **** 	( void ) xEventGroupSetBits( pvEventGroup, ( EventBits_t ) ulBitsToSet );
 1238              		.loc 1 669 1 is_stmt 0 view .LVU389
 1239 0000 08B5     		push	{r3, lr}
 1240              	.LCFI8:
 1241              		.cfi_def_cfa_offset 8
ARM GAS  /var/folders/n1/76bg37b13ls08p1dhb9rhvd40000gn/T//ccOlpsUK.s 			page 46


 1242              		.cfi_offset 3, -8
 1243              		.cfi_offset 14, -4
 670:Middlewares/Third_Party/FreeRTOS/Source/event_groups.c **** }
 1244              		.loc 1 670 2 is_stmt 1 view .LVU390
 670:Middlewares/Third_Party/FreeRTOS/Source/event_groups.c **** }
 1245              		.loc 1 670 11 is_stmt 0 view .LVU391
 1246 0002 FFF7FEFF 		bl	xEventGroupSetBits
 1247              	.LVL110:
 671:Middlewares/Third_Party/FreeRTOS/Source/event_groups.c **** /*-----------------------------------------------------------*/
 1248              		.loc 1 671 1 view .LVU392
 1249 0006 08BD     		pop	{r3, pc}
 1250              		.cfi_endproc
 1251              	.LFE12:
 1253              		.section	.text.vEventGroupClearBitsCallback,"ax",%progbits
 1254              		.align	1
 1255              		.global	vEventGroupClearBitsCallback
 1256              		.syntax unified
 1257              		.thumb
 1258              		.thumb_func
 1259              		.fpu fpv4-sp-d16
 1261              	vEventGroupClearBitsCallback:
 1262              	.LVL111:
 1263              	.LFB13:
 677:Middlewares/Third_Party/FreeRTOS/Source/event_groups.c **** 	( void ) xEventGroupClearBits( pvEventGroup, ( EventBits_t ) ulBitsToClear );
 1264              		.loc 1 677 1 is_stmt 1 view -0
 1265              		.cfi_startproc
 1266              		@ args = 0, pretend = 0, frame = 0
 1267              		@ frame_needed = 0, uses_anonymous_args = 0
 677:Middlewares/Third_Party/FreeRTOS/Source/event_groups.c **** 	( void ) xEventGroupClearBits( pvEventGroup, ( EventBits_t ) ulBitsToClear );
 1268              		.loc 1 677 1 is_stmt 0 view .LVU394
 1269 0000 08B5     		push	{r3, lr}
 1270              	.LCFI9:
 1271              		.cfi_def_cfa_offset 8
 1272              		.cfi_offset 3, -8
 1273              		.cfi_offset 14, -4
 678:Middlewares/Third_Party/FreeRTOS/Source/event_groups.c **** }
 1274              		.loc 1 678 2 is_stmt 1 view .LVU395
 678:Middlewares/Third_Party/FreeRTOS/Source/event_groups.c **** }
 1275              		.loc 1 678 11 is_stmt 0 view .LVU396
 1276 0002 FFF7FEFF 		bl	xEventGroupClearBits
 1277              	.LVL112:
 679:Middlewares/Third_Party/FreeRTOS/Source/event_groups.c **** /*-----------------------------------------------------------*/
 1278              		.loc 1 679 1 view .LVU397
 1279 0006 08BD     		pop	{r3, pc}
 1280              		.cfi_endproc
 1281              	.LFE13:
 1283              		.text
 1284              	.Letext0:
 1285              		.file 3 "/Users/drb/Downloads/gcc-arm-none-eabi-8-2018-q4-major/arm-none-eabi/include/machine/_def
 1286              		.file 4 "/Users/drb/Downloads/gcc-arm-none-eabi-8-2018-q4-major/arm-none-eabi/include/sys/lock.h"
 1287              		.file 5 "/Users/drb/Downloads/gcc-arm-none-eabi-8-2018-q4-major/arm-none-eabi/include/sys/_types.h
 1288              		.file 6 "/Users/drb/Downloads/gcc-arm-none-eabi-8-2018-q4-major/lib/gcc/arm-none-eabi/8.2.1/includ
 1289              		.file 7 "/Users/drb/Downloads/gcc-arm-none-eabi-8-2018-q4-major/arm-none-eabi/include/sys/reent.h"
 1290              		.file 8 "/Users/drb/Downloads/gcc-arm-none-eabi-8-2018-q4-major/arm-none-eabi/include/stdlib.h"
 1291              		.file 9 "/Users/drb/Downloads/gcc-arm-none-eabi-8-2018-q4-major/arm-none-eabi/include/sys/_stdint.
 1292              		.file 10 "Core/Inc/FreeRTOSConfig.h"
 1293              		.file 11 "Middlewares/Third_Party/FreeRTOS/Source/include/list.h"
ARM GAS  /var/folders/n1/76bg37b13ls08p1dhb9rhvd40000gn/T//ccOlpsUK.s 			page 47


 1294              		.file 12 "Middlewares/Third_Party/FreeRTOS/Source/include/event_groups.h"
 1295              		.file 13 "Middlewares/Third_Party/FreeRTOS/Source/include/task.h"
 1296              		.file 14 "Middlewares/Third_Party/FreeRTOS/Source/include/portable.h"
ARM GAS  /var/folders/n1/76bg37b13ls08p1dhb9rhvd40000gn/T//ccOlpsUK.s 			page 48

