ARM GAS  /var/folders/n1/76bg37b13ls08p1dhb9rhvd40000gn/T//cchItYn0.s 			page 1


   1              		.cpu cortex-m4
   2              		.eabi_attribute 27, 1
   3              		.eabi_attribute 28, 1
   4              		.eabi_attribute 20, 1
   5              		.eabi_attribute 21, 1
   6              		.eabi_attribute 23, 3
   7              		.eabi_attribute 24, 1
   8              		.eabi_attribute 25, 1
   9              		.eabi_attribute 26, 1
  10              		.eabi_attribute 30, 1
  11              		.eabi_attribute 34, 1
  12              		.eabi_attribute 18, 4
  13              		.file	"heap_4.c"
  14              		.text
  15              	.Ltext0:
  16              		.cfi_sections	.debug_frame
  17              		.section	.text.prvHeapInit,"ax",%progbits
  18              		.align	1
  19              		.arch armv7e-m
  20              		.syntax unified
  21              		.thumb
  22              		.thumb_func
  23              		.fpu fpv4-sp-d16
  25              	prvHeapInit:
  26              	.LFB10:
  27              		.file 1 "Middlewares/Third_Party/FreeRTOS/Source/portable/MemMang/heap_4.c"
   1:Middlewares/Third_Party/FreeRTOS/Source/portable/MemMang/heap_4.c **** /*
   2:Middlewares/Third_Party/FreeRTOS/Source/portable/MemMang/heap_4.c ****     FreeRTOS V9.0.0 - Copyright (C) 2016 Real Time Engineers Ltd.
   3:Middlewares/Third_Party/FreeRTOS/Source/portable/MemMang/heap_4.c ****     All rights reserved
   4:Middlewares/Third_Party/FreeRTOS/Source/portable/MemMang/heap_4.c **** 
   5:Middlewares/Third_Party/FreeRTOS/Source/portable/MemMang/heap_4.c ****     VISIT http://www.FreeRTOS.org TO ENSURE YOU ARE USING THE LATEST VERSION.
   6:Middlewares/Third_Party/FreeRTOS/Source/portable/MemMang/heap_4.c **** 
   7:Middlewares/Third_Party/FreeRTOS/Source/portable/MemMang/heap_4.c ****     This file is part of the FreeRTOS distribution.
   8:Middlewares/Third_Party/FreeRTOS/Source/portable/MemMang/heap_4.c **** 
   9:Middlewares/Third_Party/FreeRTOS/Source/portable/MemMang/heap_4.c ****     FreeRTOS is free software; you can redistribute it and/or modify it under
  10:Middlewares/Third_Party/FreeRTOS/Source/portable/MemMang/heap_4.c ****     the terms of the GNU General Public License (version 2) as published by the
  11:Middlewares/Third_Party/FreeRTOS/Source/portable/MemMang/heap_4.c ****     Free Software Foundation >>>> AND MODIFIED BY <<<< the FreeRTOS exception.
  12:Middlewares/Third_Party/FreeRTOS/Source/portable/MemMang/heap_4.c **** 
  13:Middlewares/Third_Party/FreeRTOS/Source/portable/MemMang/heap_4.c ****     ***************************************************************************
  14:Middlewares/Third_Party/FreeRTOS/Source/portable/MemMang/heap_4.c ****     >>!   NOTE: The modification to the GPL is included to allow you to     !<<
  15:Middlewares/Third_Party/FreeRTOS/Source/portable/MemMang/heap_4.c ****     >>!   distribute a combined work that includes FreeRTOS without being   !<<
  16:Middlewares/Third_Party/FreeRTOS/Source/portable/MemMang/heap_4.c ****     >>!   obliged to provide the source code for proprietary components     !<<
  17:Middlewares/Third_Party/FreeRTOS/Source/portable/MemMang/heap_4.c ****     >>!   outside of the FreeRTOS kernel.                                   !<<
  18:Middlewares/Third_Party/FreeRTOS/Source/portable/MemMang/heap_4.c ****     ***************************************************************************
  19:Middlewares/Third_Party/FreeRTOS/Source/portable/MemMang/heap_4.c **** 
  20:Middlewares/Third_Party/FreeRTOS/Source/portable/MemMang/heap_4.c ****     FreeRTOS is distributed in the hope that it will be useful, but WITHOUT ANY
  21:Middlewares/Third_Party/FreeRTOS/Source/portable/MemMang/heap_4.c ****     WARRANTY; without even the implied warranty of MERCHANTABILITY or FITNESS
  22:Middlewares/Third_Party/FreeRTOS/Source/portable/MemMang/heap_4.c ****     FOR A PARTICULAR PURPOSE.  Full license text is available on the following
  23:Middlewares/Third_Party/FreeRTOS/Source/portable/MemMang/heap_4.c ****     link: http://www.freertos.org/a00114.html
  24:Middlewares/Third_Party/FreeRTOS/Source/portable/MemMang/heap_4.c **** 
  25:Middlewares/Third_Party/FreeRTOS/Source/portable/MemMang/heap_4.c ****     ***************************************************************************
  26:Middlewares/Third_Party/FreeRTOS/Source/portable/MemMang/heap_4.c ****      *                                                                       *
  27:Middlewares/Third_Party/FreeRTOS/Source/portable/MemMang/heap_4.c ****      *    FreeRTOS provides completely free yet professionally developed,    *
  28:Middlewares/Third_Party/FreeRTOS/Source/portable/MemMang/heap_4.c ****      *    robust, strictly quality controlled, supported, and cross          *
  29:Middlewares/Third_Party/FreeRTOS/Source/portable/MemMang/heap_4.c ****      *    platform software that is more than just the market leader, it     *
  30:Middlewares/Third_Party/FreeRTOS/Source/portable/MemMang/heap_4.c ****      *    is the industry's de facto standard.                               *
  31:Middlewares/Third_Party/FreeRTOS/Source/portable/MemMang/heap_4.c ****      *                                                                       *
ARM GAS  /var/folders/n1/76bg37b13ls08p1dhb9rhvd40000gn/T//cchItYn0.s 			page 2


  32:Middlewares/Third_Party/FreeRTOS/Source/portable/MemMang/heap_4.c ****      *    Help yourself get started quickly while simultaneously helping     *
  33:Middlewares/Third_Party/FreeRTOS/Source/portable/MemMang/heap_4.c ****      *    to support the FreeRTOS project by purchasing a FreeRTOS           *
  34:Middlewares/Third_Party/FreeRTOS/Source/portable/MemMang/heap_4.c ****      *    tutorial book, reference manual, or both:                          *
  35:Middlewares/Third_Party/FreeRTOS/Source/portable/MemMang/heap_4.c ****      *    http://www.FreeRTOS.org/Documentation                              *
  36:Middlewares/Third_Party/FreeRTOS/Source/portable/MemMang/heap_4.c ****      *                                                                       *
  37:Middlewares/Third_Party/FreeRTOS/Source/portable/MemMang/heap_4.c ****     ***************************************************************************
  38:Middlewares/Third_Party/FreeRTOS/Source/portable/MemMang/heap_4.c **** 
  39:Middlewares/Third_Party/FreeRTOS/Source/portable/MemMang/heap_4.c ****     http://www.FreeRTOS.org/FAQHelp.html - Having a problem?  Start by reading
  40:Middlewares/Third_Party/FreeRTOS/Source/portable/MemMang/heap_4.c ****     the FAQ page "My application does not run, what could be wrong?".  Have you
  41:Middlewares/Third_Party/FreeRTOS/Source/portable/MemMang/heap_4.c ****     defined configASSERT()?
  42:Middlewares/Third_Party/FreeRTOS/Source/portable/MemMang/heap_4.c **** 
  43:Middlewares/Third_Party/FreeRTOS/Source/portable/MemMang/heap_4.c ****     http://www.FreeRTOS.org/support - In return for receiving this top quality
  44:Middlewares/Third_Party/FreeRTOS/Source/portable/MemMang/heap_4.c ****     embedded software for free we request you assist our global community by
  45:Middlewares/Third_Party/FreeRTOS/Source/portable/MemMang/heap_4.c ****     participating in the support forum.
  46:Middlewares/Third_Party/FreeRTOS/Source/portable/MemMang/heap_4.c **** 
  47:Middlewares/Third_Party/FreeRTOS/Source/portable/MemMang/heap_4.c ****     http://www.FreeRTOS.org/training - Investing in training allows your team to
  48:Middlewares/Third_Party/FreeRTOS/Source/portable/MemMang/heap_4.c ****     be as productive as possible as early as possible.  Now you can receive
  49:Middlewares/Third_Party/FreeRTOS/Source/portable/MemMang/heap_4.c ****     FreeRTOS training directly from Richard Barry, CEO of Real Time Engineers
  50:Middlewares/Third_Party/FreeRTOS/Source/portable/MemMang/heap_4.c ****     Ltd, and the world's leading authority on the world's leading RTOS.
  51:Middlewares/Third_Party/FreeRTOS/Source/portable/MemMang/heap_4.c **** 
  52:Middlewares/Third_Party/FreeRTOS/Source/portable/MemMang/heap_4.c ****     http://www.FreeRTOS.org/plus - A selection of FreeRTOS ecosystem products,
  53:Middlewares/Third_Party/FreeRTOS/Source/portable/MemMang/heap_4.c ****     including FreeRTOS+Trace - an indispensable productivity tool, a DOS
  54:Middlewares/Third_Party/FreeRTOS/Source/portable/MemMang/heap_4.c ****     compatible FAT file system, and our tiny thread aware UDP/IP stack.
  55:Middlewares/Third_Party/FreeRTOS/Source/portable/MemMang/heap_4.c **** 
  56:Middlewares/Third_Party/FreeRTOS/Source/portable/MemMang/heap_4.c ****     http://www.FreeRTOS.org/labs - Where new FreeRTOS products go to incubate.
  57:Middlewares/Third_Party/FreeRTOS/Source/portable/MemMang/heap_4.c ****     Come and try FreeRTOS+TCP, our new open source TCP/IP stack for FreeRTOS.
  58:Middlewares/Third_Party/FreeRTOS/Source/portable/MemMang/heap_4.c **** 
  59:Middlewares/Third_Party/FreeRTOS/Source/portable/MemMang/heap_4.c ****     http://www.OpenRTOS.com - Real Time Engineers ltd. license FreeRTOS to High
  60:Middlewares/Third_Party/FreeRTOS/Source/portable/MemMang/heap_4.c ****     Integrity Systems ltd. to sell under the OpenRTOS brand.  Low cost OpenRTOS
  61:Middlewares/Third_Party/FreeRTOS/Source/portable/MemMang/heap_4.c ****     licenses offer ticketed support, indemnification and commercial middleware.
  62:Middlewares/Third_Party/FreeRTOS/Source/portable/MemMang/heap_4.c **** 
  63:Middlewares/Third_Party/FreeRTOS/Source/portable/MemMang/heap_4.c ****     http://www.SafeRTOS.com - High Integrity Systems also provide a safety
  64:Middlewares/Third_Party/FreeRTOS/Source/portable/MemMang/heap_4.c ****     engineered and independently SIL3 certified version for use in safety and
  65:Middlewares/Third_Party/FreeRTOS/Source/portable/MemMang/heap_4.c ****     mission critical applications that require provable dependability.
  66:Middlewares/Third_Party/FreeRTOS/Source/portable/MemMang/heap_4.c **** 
  67:Middlewares/Third_Party/FreeRTOS/Source/portable/MemMang/heap_4.c ****     1 tab == 4 spaces!
  68:Middlewares/Third_Party/FreeRTOS/Source/portable/MemMang/heap_4.c **** */
  69:Middlewares/Third_Party/FreeRTOS/Source/portable/MemMang/heap_4.c **** 
  70:Middlewares/Third_Party/FreeRTOS/Source/portable/MemMang/heap_4.c **** /*
  71:Middlewares/Third_Party/FreeRTOS/Source/portable/MemMang/heap_4.c ****  * A sample implementation of pvPortMalloc() and vPortFree() that combines
  72:Middlewares/Third_Party/FreeRTOS/Source/portable/MemMang/heap_4.c ****  * (coalescences) adjacent memory blocks as they are freed, and in so doing
  73:Middlewares/Third_Party/FreeRTOS/Source/portable/MemMang/heap_4.c ****  * limits memory fragmentation.
  74:Middlewares/Third_Party/FreeRTOS/Source/portable/MemMang/heap_4.c ****  *
  75:Middlewares/Third_Party/FreeRTOS/Source/portable/MemMang/heap_4.c ****  * See heap_1.c, heap_2.c and heap_3.c for alternative implementations, and the
  76:Middlewares/Third_Party/FreeRTOS/Source/portable/MemMang/heap_4.c ****  * memory management pages of http://www.FreeRTOS.org for more information.
  77:Middlewares/Third_Party/FreeRTOS/Source/portable/MemMang/heap_4.c ****  */
  78:Middlewares/Third_Party/FreeRTOS/Source/portable/MemMang/heap_4.c **** #include <stdlib.h>
  79:Middlewares/Third_Party/FreeRTOS/Source/portable/MemMang/heap_4.c **** 
  80:Middlewares/Third_Party/FreeRTOS/Source/portable/MemMang/heap_4.c **** /* Defining MPU_WRAPPERS_INCLUDED_FROM_API_FILE prevents task.h from redefining
  81:Middlewares/Third_Party/FreeRTOS/Source/portable/MemMang/heap_4.c **** all the API functions to use the MPU wrappers.  That should only be done when
  82:Middlewares/Third_Party/FreeRTOS/Source/portable/MemMang/heap_4.c **** task.h is included from an application file. */
  83:Middlewares/Third_Party/FreeRTOS/Source/portable/MemMang/heap_4.c **** #define MPU_WRAPPERS_INCLUDED_FROM_API_FILE
  84:Middlewares/Third_Party/FreeRTOS/Source/portable/MemMang/heap_4.c **** 
  85:Middlewares/Third_Party/FreeRTOS/Source/portable/MemMang/heap_4.c **** #include "FreeRTOS.h"
  86:Middlewares/Third_Party/FreeRTOS/Source/portable/MemMang/heap_4.c **** #include "task.h"
  87:Middlewares/Third_Party/FreeRTOS/Source/portable/MemMang/heap_4.c **** 
  88:Middlewares/Third_Party/FreeRTOS/Source/portable/MemMang/heap_4.c **** #undef MPU_WRAPPERS_INCLUDED_FROM_API_FILE
ARM GAS  /var/folders/n1/76bg37b13ls08p1dhb9rhvd40000gn/T//cchItYn0.s 			page 3


  89:Middlewares/Third_Party/FreeRTOS/Source/portable/MemMang/heap_4.c **** 
  90:Middlewares/Third_Party/FreeRTOS/Source/portable/MemMang/heap_4.c **** #if( configSUPPORT_DYNAMIC_ALLOCATION == 0 )
  91:Middlewares/Third_Party/FreeRTOS/Source/portable/MemMang/heap_4.c **** 	#error This file must not be used if configSUPPORT_DYNAMIC_ALLOCATION is 0
  92:Middlewares/Third_Party/FreeRTOS/Source/portable/MemMang/heap_4.c **** #endif
  93:Middlewares/Third_Party/FreeRTOS/Source/portable/MemMang/heap_4.c **** 
  94:Middlewares/Third_Party/FreeRTOS/Source/portable/MemMang/heap_4.c **** /* Block sizes must not get too small. */
  95:Middlewares/Third_Party/FreeRTOS/Source/portable/MemMang/heap_4.c **** #define heapMINIMUM_BLOCK_SIZE	( ( size_t ) ( xHeapStructSize << 1 ) )
  96:Middlewares/Third_Party/FreeRTOS/Source/portable/MemMang/heap_4.c **** 
  97:Middlewares/Third_Party/FreeRTOS/Source/portable/MemMang/heap_4.c **** /* Assumes 8bit bytes! */
  98:Middlewares/Third_Party/FreeRTOS/Source/portable/MemMang/heap_4.c **** #define heapBITS_PER_BYTE		( ( size_t ) 8 )
  99:Middlewares/Third_Party/FreeRTOS/Source/portable/MemMang/heap_4.c **** 
 100:Middlewares/Third_Party/FreeRTOS/Source/portable/MemMang/heap_4.c **** /* Allocate the memory for the heap. */
 101:Middlewares/Third_Party/FreeRTOS/Source/portable/MemMang/heap_4.c **** #if( configAPPLICATION_ALLOCATED_HEAP == 1 )
 102:Middlewares/Third_Party/FreeRTOS/Source/portable/MemMang/heap_4.c **** 	/* The application writer has already defined the array used for the RTOS
 103:Middlewares/Third_Party/FreeRTOS/Source/portable/MemMang/heap_4.c **** 	heap - probably so it can be placed in a special segment or address. */
 104:Middlewares/Third_Party/FreeRTOS/Source/portable/MemMang/heap_4.c **** 	extern uint8_t ucHeap[ configTOTAL_HEAP_SIZE ];
 105:Middlewares/Third_Party/FreeRTOS/Source/portable/MemMang/heap_4.c **** #else
 106:Middlewares/Third_Party/FreeRTOS/Source/portable/MemMang/heap_4.c **** 	static uint8_t ucHeap[ configTOTAL_HEAP_SIZE ];
 107:Middlewares/Third_Party/FreeRTOS/Source/portable/MemMang/heap_4.c **** #endif /* configAPPLICATION_ALLOCATED_HEAP */
 108:Middlewares/Third_Party/FreeRTOS/Source/portable/MemMang/heap_4.c **** 
 109:Middlewares/Third_Party/FreeRTOS/Source/portable/MemMang/heap_4.c **** /* Define the linked list structure.  This is used to link free blocks in order
 110:Middlewares/Third_Party/FreeRTOS/Source/portable/MemMang/heap_4.c **** of their memory address. */
 111:Middlewares/Third_Party/FreeRTOS/Source/portable/MemMang/heap_4.c **** typedef struct A_BLOCK_LINK
 112:Middlewares/Third_Party/FreeRTOS/Source/portable/MemMang/heap_4.c **** {
 113:Middlewares/Third_Party/FreeRTOS/Source/portable/MemMang/heap_4.c **** 	struct A_BLOCK_LINK *pxNextFreeBlock;	/*<< The next free block in the list. */
 114:Middlewares/Third_Party/FreeRTOS/Source/portable/MemMang/heap_4.c **** 	size_t xBlockSize;						/*<< The size of the free block. */
 115:Middlewares/Third_Party/FreeRTOS/Source/portable/MemMang/heap_4.c **** } BlockLink_t;
 116:Middlewares/Third_Party/FreeRTOS/Source/portable/MemMang/heap_4.c **** 
 117:Middlewares/Third_Party/FreeRTOS/Source/portable/MemMang/heap_4.c **** /*-----------------------------------------------------------*/
 118:Middlewares/Third_Party/FreeRTOS/Source/portable/MemMang/heap_4.c **** 
 119:Middlewares/Third_Party/FreeRTOS/Source/portable/MemMang/heap_4.c **** /*
 120:Middlewares/Third_Party/FreeRTOS/Source/portable/MemMang/heap_4.c ****  * Inserts a block of memory that is being freed into the correct position in
 121:Middlewares/Third_Party/FreeRTOS/Source/portable/MemMang/heap_4.c ****  * the list of free memory blocks.  The block being freed will be merged with
 122:Middlewares/Third_Party/FreeRTOS/Source/portable/MemMang/heap_4.c ****  * the block in front it and/or the block behind it if the memory blocks are
 123:Middlewares/Third_Party/FreeRTOS/Source/portable/MemMang/heap_4.c ****  * adjacent to each other.
 124:Middlewares/Third_Party/FreeRTOS/Source/portable/MemMang/heap_4.c ****  */
 125:Middlewares/Third_Party/FreeRTOS/Source/portable/MemMang/heap_4.c **** static void prvInsertBlockIntoFreeList( BlockLink_t *pxBlockToInsert );
 126:Middlewares/Third_Party/FreeRTOS/Source/portable/MemMang/heap_4.c **** 
 127:Middlewares/Third_Party/FreeRTOS/Source/portable/MemMang/heap_4.c **** /*
 128:Middlewares/Third_Party/FreeRTOS/Source/portable/MemMang/heap_4.c ****  * Called automatically to setup the required heap structures the first time
 129:Middlewares/Third_Party/FreeRTOS/Source/portable/MemMang/heap_4.c ****  * pvPortMalloc() is called.
 130:Middlewares/Third_Party/FreeRTOS/Source/portable/MemMang/heap_4.c ****  */
 131:Middlewares/Third_Party/FreeRTOS/Source/portable/MemMang/heap_4.c **** static void prvHeapInit( void );
 132:Middlewares/Third_Party/FreeRTOS/Source/portable/MemMang/heap_4.c **** 
 133:Middlewares/Third_Party/FreeRTOS/Source/portable/MemMang/heap_4.c **** /*-----------------------------------------------------------*/
 134:Middlewares/Third_Party/FreeRTOS/Source/portable/MemMang/heap_4.c **** 
 135:Middlewares/Third_Party/FreeRTOS/Source/portable/MemMang/heap_4.c **** /* The size of the structure placed at the beginning of each allocated memory
 136:Middlewares/Third_Party/FreeRTOS/Source/portable/MemMang/heap_4.c **** block must by correctly byte aligned. */
 137:Middlewares/Third_Party/FreeRTOS/Source/portable/MemMang/heap_4.c **** static const size_t xHeapStructSize	= ( sizeof( BlockLink_t ) + ( ( size_t ) ( portBYTE_ALIGNMENT -
 138:Middlewares/Third_Party/FreeRTOS/Source/portable/MemMang/heap_4.c **** 
 139:Middlewares/Third_Party/FreeRTOS/Source/portable/MemMang/heap_4.c **** /* Create a couple of list links to mark the start and end of the list. */
 140:Middlewares/Third_Party/FreeRTOS/Source/portable/MemMang/heap_4.c **** static BlockLink_t xStart, *pxEnd = NULL;
 141:Middlewares/Third_Party/FreeRTOS/Source/portable/MemMang/heap_4.c **** 
 142:Middlewares/Third_Party/FreeRTOS/Source/portable/MemMang/heap_4.c **** /* Keeps track of the number of free bytes remaining, but says nothing about
 143:Middlewares/Third_Party/FreeRTOS/Source/portable/MemMang/heap_4.c **** fragmentation. */
 144:Middlewares/Third_Party/FreeRTOS/Source/portable/MemMang/heap_4.c **** static size_t xFreeBytesRemaining = 0U;
 145:Middlewares/Third_Party/FreeRTOS/Source/portable/MemMang/heap_4.c **** static size_t xMinimumEverFreeBytesRemaining = 0U;
ARM GAS  /var/folders/n1/76bg37b13ls08p1dhb9rhvd40000gn/T//cchItYn0.s 			page 4


 146:Middlewares/Third_Party/FreeRTOS/Source/portable/MemMang/heap_4.c **** 
 147:Middlewares/Third_Party/FreeRTOS/Source/portable/MemMang/heap_4.c **** /* Gets set to the top bit of an size_t type.  When this bit in the xBlockSize
 148:Middlewares/Third_Party/FreeRTOS/Source/portable/MemMang/heap_4.c **** member of an BlockLink_t structure is set then the block belongs to the
 149:Middlewares/Third_Party/FreeRTOS/Source/portable/MemMang/heap_4.c **** application.  When the bit is free the block is still part of the free heap
 150:Middlewares/Third_Party/FreeRTOS/Source/portable/MemMang/heap_4.c **** space. */
 151:Middlewares/Third_Party/FreeRTOS/Source/portable/MemMang/heap_4.c **** static size_t xBlockAllocatedBit = 0;
 152:Middlewares/Third_Party/FreeRTOS/Source/portable/MemMang/heap_4.c **** 
 153:Middlewares/Third_Party/FreeRTOS/Source/portable/MemMang/heap_4.c **** /*-----------------------------------------------------------*/
 154:Middlewares/Third_Party/FreeRTOS/Source/portable/MemMang/heap_4.c **** 
 155:Middlewares/Third_Party/FreeRTOS/Source/portable/MemMang/heap_4.c **** void *pvPortMalloc( size_t xWantedSize )
 156:Middlewares/Third_Party/FreeRTOS/Source/portable/MemMang/heap_4.c **** {
 157:Middlewares/Third_Party/FreeRTOS/Source/portable/MemMang/heap_4.c **** BlockLink_t *pxBlock, *pxPreviousBlock, *pxNewBlockLink;
 158:Middlewares/Third_Party/FreeRTOS/Source/portable/MemMang/heap_4.c **** void *pvReturn = NULL;
 159:Middlewares/Third_Party/FreeRTOS/Source/portable/MemMang/heap_4.c **** 
 160:Middlewares/Third_Party/FreeRTOS/Source/portable/MemMang/heap_4.c **** 	vTaskSuspendAll();
 161:Middlewares/Third_Party/FreeRTOS/Source/portable/MemMang/heap_4.c **** 	{
 162:Middlewares/Third_Party/FreeRTOS/Source/portable/MemMang/heap_4.c **** 		/* If this is the first call to malloc then the heap will require
 163:Middlewares/Third_Party/FreeRTOS/Source/portable/MemMang/heap_4.c **** 		initialisation to setup the list of free blocks. */
 164:Middlewares/Third_Party/FreeRTOS/Source/portable/MemMang/heap_4.c **** 		if( pxEnd == NULL )
 165:Middlewares/Third_Party/FreeRTOS/Source/portable/MemMang/heap_4.c **** 		{
 166:Middlewares/Third_Party/FreeRTOS/Source/portable/MemMang/heap_4.c **** 			prvHeapInit();
 167:Middlewares/Third_Party/FreeRTOS/Source/portable/MemMang/heap_4.c **** 		}
 168:Middlewares/Third_Party/FreeRTOS/Source/portable/MemMang/heap_4.c **** 		else
 169:Middlewares/Third_Party/FreeRTOS/Source/portable/MemMang/heap_4.c **** 		{
 170:Middlewares/Third_Party/FreeRTOS/Source/portable/MemMang/heap_4.c **** 			mtCOVERAGE_TEST_MARKER();
 171:Middlewares/Third_Party/FreeRTOS/Source/portable/MemMang/heap_4.c **** 		}
 172:Middlewares/Third_Party/FreeRTOS/Source/portable/MemMang/heap_4.c **** 
 173:Middlewares/Third_Party/FreeRTOS/Source/portable/MemMang/heap_4.c **** 		/* Check the requested block size is not so large that the top bit is
 174:Middlewares/Third_Party/FreeRTOS/Source/portable/MemMang/heap_4.c **** 		set.  The top bit of the block size member of the BlockLink_t structure
 175:Middlewares/Third_Party/FreeRTOS/Source/portable/MemMang/heap_4.c **** 		is used to determine who owns the block - the application or the
 176:Middlewares/Third_Party/FreeRTOS/Source/portable/MemMang/heap_4.c **** 		kernel, so it must be free. */
 177:Middlewares/Third_Party/FreeRTOS/Source/portable/MemMang/heap_4.c **** 		if( ( xWantedSize & xBlockAllocatedBit ) == 0 )
 178:Middlewares/Third_Party/FreeRTOS/Source/portable/MemMang/heap_4.c **** 		{
 179:Middlewares/Third_Party/FreeRTOS/Source/portable/MemMang/heap_4.c **** 			/* The wanted size is increased so it can contain a BlockLink_t
 180:Middlewares/Third_Party/FreeRTOS/Source/portable/MemMang/heap_4.c **** 			structure in addition to the requested amount of bytes. */
 181:Middlewares/Third_Party/FreeRTOS/Source/portable/MemMang/heap_4.c **** 			if( xWantedSize > 0 )
 182:Middlewares/Third_Party/FreeRTOS/Source/portable/MemMang/heap_4.c **** 			{
 183:Middlewares/Third_Party/FreeRTOS/Source/portable/MemMang/heap_4.c **** 				xWantedSize += xHeapStructSize;
 184:Middlewares/Third_Party/FreeRTOS/Source/portable/MemMang/heap_4.c **** 
 185:Middlewares/Third_Party/FreeRTOS/Source/portable/MemMang/heap_4.c **** 				/* Ensure that blocks are always aligned to the required number
 186:Middlewares/Third_Party/FreeRTOS/Source/portable/MemMang/heap_4.c **** 				of bytes. */
 187:Middlewares/Third_Party/FreeRTOS/Source/portable/MemMang/heap_4.c **** 				if( ( xWantedSize & portBYTE_ALIGNMENT_MASK ) != 0x00 )
 188:Middlewares/Third_Party/FreeRTOS/Source/portable/MemMang/heap_4.c **** 				{
 189:Middlewares/Third_Party/FreeRTOS/Source/portable/MemMang/heap_4.c **** 					/* Byte alignment required. */
 190:Middlewares/Third_Party/FreeRTOS/Source/portable/MemMang/heap_4.c **** 					xWantedSize += ( portBYTE_ALIGNMENT - ( xWantedSize & portBYTE_ALIGNMENT_MASK ) );
 191:Middlewares/Third_Party/FreeRTOS/Source/portable/MemMang/heap_4.c **** 					configASSERT( ( xWantedSize & portBYTE_ALIGNMENT_MASK ) == 0 );
 192:Middlewares/Third_Party/FreeRTOS/Source/portable/MemMang/heap_4.c **** 				}
 193:Middlewares/Third_Party/FreeRTOS/Source/portable/MemMang/heap_4.c **** 				else
 194:Middlewares/Third_Party/FreeRTOS/Source/portable/MemMang/heap_4.c **** 				{
 195:Middlewares/Third_Party/FreeRTOS/Source/portable/MemMang/heap_4.c **** 					mtCOVERAGE_TEST_MARKER();
 196:Middlewares/Third_Party/FreeRTOS/Source/portable/MemMang/heap_4.c **** 				}
 197:Middlewares/Third_Party/FreeRTOS/Source/portable/MemMang/heap_4.c **** 			}
 198:Middlewares/Third_Party/FreeRTOS/Source/portable/MemMang/heap_4.c **** 			else
 199:Middlewares/Third_Party/FreeRTOS/Source/portable/MemMang/heap_4.c **** 			{
 200:Middlewares/Third_Party/FreeRTOS/Source/portable/MemMang/heap_4.c **** 				mtCOVERAGE_TEST_MARKER();
 201:Middlewares/Third_Party/FreeRTOS/Source/portable/MemMang/heap_4.c **** 			}
 202:Middlewares/Third_Party/FreeRTOS/Source/portable/MemMang/heap_4.c **** 
ARM GAS  /var/folders/n1/76bg37b13ls08p1dhb9rhvd40000gn/T//cchItYn0.s 			page 5


 203:Middlewares/Third_Party/FreeRTOS/Source/portable/MemMang/heap_4.c **** 			if( ( xWantedSize > 0 ) && ( xWantedSize <= xFreeBytesRemaining ) )
 204:Middlewares/Third_Party/FreeRTOS/Source/portable/MemMang/heap_4.c **** 			{
 205:Middlewares/Third_Party/FreeRTOS/Source/portable/MemMang/heap_4.c **** 				/* Traverse the list from the start	(lowest address) block until
 206:Middlewares/Third_Party/FreeRTOS/Source/portable/MemMang/heap_4.c **** 				one	of adequate size is found. */
 207:Middlewares/Third_Party/FreeRTOS/Source/portable/MemMang/heap_4.c **** 				pxPreviousBlock = &xStart;
 208:Middlewares/Third_Party/FreeRTOS/Source/portable/MemMang/heap_4.c **** 				pxBlock = xStart.pxNextFreeBlock;
 209:Middlewares/Third_Party/FreeRTOS/Source/portable/MemMang/heap_4.c **** 				while( ( pxBlock->xBlockSize < xWantedSize ) && ( pxBlock->pxNextFreeBlock != NULL ) )
 210:Middlewares/Third_Party/FreeRTOS/Source/portable/MemMang/heap_4.c **** 				{
 211:Middlewares/Third_Party/FreeRTOS/Source/portable/MemMang/heap_4.c **** 					pxPreviousBlock = pxBlock;
 212:Middlewares/Third_Party/FreeRTOS/Source/portable/MemMang/heap_4.c **** 					pxBlock = pxBlock->pxNextFreeBlock;
 213:Middlewares/Third_Party/FreeRTOS/Source/portable/MemMang/heap_4.c **** 				}
 214:Middlewares/Third_Party/FreeRTOS/Source/portable/MemMang/heap_4.c **** 
 215:Middlewares/Third_Party/FreeRTOS/Source/portable/MemMang/heap_4.c **** 				/* If the end marker was reached then a block of adequate size
 216:Middlewares/Third_Party/FreeRTOS/Source/portable/MemMang/heap_4.c **** 				was	not found. */
 217:Middlewares/Third_Party/FreeRTOS/Source/portable/MemMang/heap_4.c **** 				if( pxBlock != pxEnd )
 218:Middlewares/Third_Party/FreeRTOS/Source/portable/MemMang/heap_4.c **** 				{
 219:Middlewares/Third_Party/FreeRTOS/Source/portable/MemMang/heap_4.c **** 					/* Return the memory space pointed to - jumping over the
 220:Middlewares/Third_Party/FreeRTOS/Source/portable/MemMang/heap_4.c **** 					BlockLink_t structure at its start. */
 221:Middlewares/Third_Party/FreeRTOS/Source/portable/MemMang/heap_4.c **** 					pvReturn = ( void * ) ( ( ( uint8_t * ) pxPreviousBlock->pxNextFreeBlock ) + xHeapStructSize )
 222:Middlewares/Third_Party/FreeRTOS/Source/portable/MemMang/heap_4.c **** 
 223:Middlewares/Third_Party/FreeRTOS/Source/portable/MemMang/heap_4.c **** 					/* This block is being returned for use so must be taken out
 224:Middlewares/Third_Party/FreeRTOS/Source/portable/MemMang/heap_4.c **** 					of the list of free blocks. */
 225:Middlewares/Third_Party/FreeRTOS/Source/portable/MemMang/heap_4.c **** 					pxPreviousBlock->pxNextFreeBlock = pxBlock->pxNextFreeBlock;
 226:Middlewares/Third_Party/FreeRTOS/Source/portable/MemMang/heap_4.c **** 
 227:Middlewares/Third_Party/FreeRTOS/Source/portable/MemMang/heap_4.c **** 					/* If the block is larger than required it can be split into
 228:Middlewares/Third_Party/FreeRTOS/Source/portable/MemMang/heap_4.c **** 					two. */
 229:Middlewares/Third_Party/FreeRTOS/Source/portable/MemMang/heap_4.c **** 					if( ( pxBlock->xBlockSize - xWantedSize ) > heapMINIMUM_BLOCK_SIZE )
 230:Middlewares/Third_Party/FreeRTOS/Source/portable/MemMang/heap_4.c **** 					{
 231:Middlewares/Third_Party/FreeRTOS/Source/portable/MemMang/heap_4.c **** 						/* This block is to be split into two.  Create a new
 232:Middlewares/Third_Party/FreeRTOS/Source/portable/MemMang/heap_4.c **** 						block following the number of bytes requested. The void
 233:Middlewares/Third_Party/FreeRTOS/Source/portable/MemMang/heap_4.c **** 						cast is used to prevent byte alignment warnings from the
 234:Middlewares/Third_Party/FreeRTOS/Source/portable/MemMang/heap_4.c **** 						compiler. */
 235:Middlewares/Third_Party/FreeRTOS/Source/portable/MemMang/heap_4.c **** 						pxNewBlockLink = ( void * ) ( ( ( uint8_t * ) pxBlock ) + xWantedSize );
 236:Middlewares/Third_Party/FreeRTOS/Source/portable/MemMang/heap_4.c **** 						configASSERT( ( ( ( size_t ) pxNewBlockLink ) & portBYTE_ALIGNMENT_MASK ) == 0 );
 237:Middlewares/Third_Party/FreeRTOS/Source/portable/MemMang/heap_4.c **** 
 238:Middlewares/Third_Party/FreeRTOS/Source/portable/MemMang/heap_4.c **** 						/* Calculate the sizes of two blocks split from the
 239:Middlewares/Third_Party/FreeRTOS/Source/portable/MemMang/heap_4.c **** 						single block. */
 240:Middlewares/Third_Party/FreeRTOS/Source/portable/MemMang/heap_4.c **** 						pxNewBlockLink->xBlockSize = pxBlock->xBlockSize - xWantedSize;
 241:Middlewares/Third_Party/FreeRTOS/Source/portable/MemMang/heap_4.c **** 						pxBlock->xBlockSize = xWantedSize;
 242:Middlewares/Third_Party/FreeRTOS/Source/portable/MemMang/heap_4.c **** 
 243:Middlewares/Third_Party/FreeRTOS/Source/portable/MemMang/heap_4.c **** 						/* Insert the new block into the list of free blocks. */
 244:Middlewares/Third_Party/FreeRTOS/Source/portable/MemMang/heap_4.c **** 						prvInsertBlockIntoFreeList( pxNewBlockLink );
 245:Middlewares/Third_Party/FreeRTOS/Source/portable/MemMang/heap_4.c **** 					}
 246:Middlewares/Third_Party/FreeRTOS/Source/portable/MemMang/heap_4.c **** 					else
 247:Middlewares/Third_Party/FreeRTOS/Source/portable/MemMang/heap_4.c **** 					{
 248:Middlewares/Third_Party/FreeRTOS/Source/portable/MemMang/heap_4.c **** 						mtCOVERAGE_TEST_MARKER();
 249:Middlewares/Third_Party/FreeRTOS/Source/portable/MemMang/heap_4.c **** 					}
 250:Middlewares/Third_Party/FreeRTOS/Source/portable/MemMang/heap_4.c **** 
 251:Middlewares/Third_Party/FreeRTOS/Source/portable/MemMang/heap_4.c **** 					xFreeBytesRemaining -= pxBlock->xBlockSize;
 252:Middlewares/Third_Party/FreeRTOS/Source/portable/MemMang/heap_4.c **** 
 253:Middlewares/Third_Party/FreeRTOS/Source/portable/MemMang/heap_4.c **** 					if( xFreeBytesRemaining < xMinimumEverFreeBytesRemaining )
 254:Middlewares/Third_Party/FreeRTOS/Source/portable/MemMang/heap_4.c **** 					{
 255:Middlewares/Third_Party/FreeRTOS/Source/portable/MemMang/heap_4.c **** 						xMinimumEverFreeBytesRemaining = xFreeBytesRemaining;
 256:Middlewares/Third_Party/FreeRTOS/Source/portable/MemMang/heap_4.c **** 					}
 257:Middlewares/Third_Party/FreeRTOS/Source/portable/MemMang/heap_4.c **** 					else
 258:Middlewares/Third_Party/FreeRTOS/Source/portable/MemMang/heap_4.c **** 					{
 259:Middlewares/Third_Party/FreeRTOS/Source/portable/MemMang/heap_4.c **** 						mtCOVERAGE_TEST_MARKER();
ARM GAS  /var/folders/n1/76bg37b13ls08p1dhb9rhvd40000gn/T//cchItYn0.s 			page 6


 260:Middlewares/Third_Party/FreeRTOS/Source/portable/MemMang/heap_4.c **** 					}
 261:Middlewares/Third_Party/FreeRTOS/Source/portable/MemMang/heap_4.c **** 
 262:Middlewares/Third_Party/FreeRTOS/Source/portable/MemMang/heap_4.c **** 					/* The block is being returned - it is allocated and owned
 263:Middlewares/Third_Party/FreeRTOS/Source/portable/MemMang/heap_4.c **** 					by the application and has no "next" block. */
 264:Middlewares/Third_Party/FreeRTOS/Source/portable/MemMang/heap_4.c **** 					pxBlock->xBlockSize |= xBlockAllocatedBit;
 265:Middlewares/Third_Party/FreeRTOS/Source/portable/MemMang/heap_4.c **** 					pxBlock->pxNextFreeBlock = NULL;
 266:Middlewares/Third_Party/FreeRTOS/Source/portable/MemMang/heap_4.c **** 				}
 267:Middlewares/Third_Party/FreeRTOS/Source/portable/MemMang/heap_4.c **** 				else
 268:Middlewares/Third_Party/FreeRTOS/Source/portable/MemMang/heap_4.c **** 				{
 269:Middlewares/Third_Party/FreeRTOS/Source/portable/MemMang/heap_4.c **** 					mtCOVERAGE_TEST_MARKER();
 270:Middlewares/Third_Party/FreeRTOS/Source/portable/MemMang/heap_4.c **** 				}
 271:Middlewares/Third_Party/FreeRTOS/Source/portable/MemMang/heap_4.c **** 			}
 272:Middlewares/Third_Party/FreeRTOS/Source/portable/MemMang/heap_4.c **** 			else
 273:Middlewares/Third_Party/FreeRTOS/Source/portable/MemMang/heap_4.c **** 			{
 274:Middlewares/Third_Party/FreeRTOS/Source/portable/MemMang/heap_4.c **** 				mtCOVERAGE_TEST_MARKER();
 275:Middlewares/Third_Party/FreeRTOS/Source/portable/MemMang/heap_4.c **** 			}
 276:Middlewares/Third_Party/FreeRTOS/Source/portable/MemMang/heap_4.c **** 		}
 277:Middlewares/Third_Party/FreeRTOS/Source/portable/MemMang/heap_4.c **** 		else
 278:Middlewares/Third_Party/FreeRTOS/Source/portable/MemMang/heap_4.c **** 		{
 279:Middlewares/Third_Party/FreeRTOS/Source/portable/MemMang/heap_4.c **** 			mtCOVERAGE_TEST_MARKER();
 280:Middlewares/Third_Party/FreeRTOS/Source/portable/MemMang/heap_4.c **** 		}
 281:Middlewares/Third_Party/FreeRTOS/Source/portable/MemMang/heap_4.c **** 
 282:Middlewares/Third_Party/FreeRTOS/Source/portable/MemMang/heap_4.c **** 		traceMALLOC( pvReturn, xWantedSize );
 283:Middlewares/Third_Party/FreeRTOS/Source/portable/MemMang/heap_4.c **** 	}
 284:Middlewares/Third_Party/FreeRTOS/Source/portable/MemMang/heap_4.c **** 	( void ) xTaskResumeAll();
 285:Middlewares/Third_Party/FreeRTOS/Source/portable/MemMang/heap_4.c **** 
 286:Middlewares/Third_Party/FreeRTOS/Source/portable/MemMang/heap_4.c **** 	#if( configUSE_MALLOC_FAILED_HOOK == 1 )
 287:Middlewares/Third_Party/FreeRTOS/Source/portable/MemMang/heap_4.c **** 	{
 288:Middlewares/Third_Party/FreeRTOS/Source/portable/MemMang/heap_4.c **** 		if( pvReturn == NULL )
 289:Middlewares/Third_Party/FreeRTOS/Source/portable/MemMang/heap_4.c **** 		{
 290:Middlewares/Third_Party/FreeRTOS/Source/portable/MemMang/heap_4.c **** 			extern void vApplicationMallocFailedHook( void );
 291:Middlewares/Third_Party/FreeRTOS/Source/portable/MemMang/heap_4.c **** 			vApplicationMallocFailedHook();
 292:Middlewares/Third_Party/FreeRTOS/Source/portable/MemMang/heap_4.c **** 		}
 293:Middlewares/Third_Party/FreeRTOS/Source/portable/MemMang/heap_4.c **** 		else
 294:Middlewares/Third_Party/FreeRTOS/Source/portable/MemMang/heap_4.c **** 		{
 295:Middlewares/Third_Party/FreeRTOS/Source/portable/MemMang/heap_4.c **** 			mtCOVERAGE_TEST_MARKER();
 296:Middlewares/Third_Party/FreeRTOS/Source/portable/MemMang/heap_4.c **** 		}
 297:Middlewares/Third_Party/FreeRTOS/Source/portable/MemMang/heap_4.c **** 	}
 298:Middlewares/Third_Party/FreeRTOS/Source/portable/MemMang/heap_4.c **** 	#endif
 299:Middlewares/Third_Party/FreeRTOS/Source/portable/MemMang/heap_4.c **** 
 300:Middlewares/Third_Party/FreeRTOS/Source/portable/MemMang/heap_4.c **** 	configASSERT( ( ( ( size_t ) pvReturn ) & ( size_t ) portBYTE_ALIGNMENT_MASK ) == 0 );
 301:Middlewares/Third_Party/FreeRTOS/Source/portable/MemMang/heap_4.c **** 	return pvReturn;
 302:Middlewares/Third_Party/FreeRTOS/Source/portable/MemMang/heap_4.c **** }
 303:Middlewares/Third_Party/FreeRTOS/Source/portable/MemMang/heap_4.c **** /*-----------------------------------------------------------*/
 304:Middlewares/Third_Party/FreeRTOS/Source/portable/MemMang/heap_4.c **** 
 305:Middlewares/Third_Party/FreeRTOS/Source/portable/MemMang/heap_4.c **** void vPortFree( void *pv )
 306:Middlewares/Third_Party/FreeRTOS/Source/portable/MemMang/heap_4.c **** {
 307:Middlewares/Third_Party/FreeRTOS/Source/portable/MemMang/heap_4.c **** uint8_t *puc = ( uint8_t * ) pv;
 308:Middlewares/Third_Party/FreeRTOS/Source/portable/MemMang/heap_4.c **** BlockLink_t *pxLink;
 309:Middlewares/Third_Party/FreeRTOS/Source/portable/MemMang/heap_4.c **** 
 310:Middlewares/Third_Party/FreeRTOS/Source/portable/MemMang/heap_4.c **** 	if( pv != NULL )
 311:Middlewares/Third_Party/FreeRTOS/Source/portable/MemMang/heap_4.c **** 	{
 312:Middlewares/Third_Party/FreeRTOS/Source/portable/MemMang/heap_4.c **** 		/* The memory being freed will have an BlockLink_t structure immediately
 313:Middlewares/Third_Party/FreeRTOS/Source/portable/MemMang/heap_4.c **** 		before it. */
 314:Middlewares/Third_Party/FreeRTOS/Source/portable/MemMang/heap_4.c **** 		puc -= xHeapStructSize;
 315:Middlewares/Third_Party/FreeRTOS/Source/portable/MemMang/heap_4.c **** 
 316:Middlewares/Third_Party/FreeRTOS/Source/portable/MemMang/heap_4.c **** 		/* This casting is to keep the compiler from issuing warnings. */
ARM GAS  /var/folders/n1/76bg37b13ls08p1dhb9rhvd40000gn/T//cchItYn0.s 			page 7


 317:Middlewares/Third_Party/FreeRTOS/Source/portable/MemMang/heap_4.c **** 		pxLink = ( void * ) puc;
 318:Middlewares/Third_Party/FreeRTOS/Source/portable/MemMang/heap_4.c **** 
 319:Middlewares/Third_Party/FreeRTOS/Source/portable/MemMang/heap_4.c **** 		/* Check the block is actually allocated. */
 320:Middlewares/Third_Party/FreeRTOS/Source/portable/MemMang/heap_4.c **** 		configASSERT( ( pxLink->xBlockSize & xBlockAllocatedBit ) != 0 );
 321:Middlewares/Third_Party/FreeRTOS/Source/portable/MemMang/heap_4.c **** 		configASSERT( pxLink->pxNextFreeBlock == NULL );
 322:Middlewares/Third_Party/FreeRTOS/Source/portable/MemMang/heap_4.c **** 
 323:Middlewares/Third_Party/FreeRTOS/Source/portable/MemMang/heap_4.c **** 		if( ( pxLink->xBlockSize & xBlockAllocatedBit ) != 0 )
 324:Middlewares/Third_Party/FreeRTOS/Source/portable/MemMang/heap_4.c **** 		{
 325:Middlewares/Third_Party/FreeRTOS/Source/portable/MemMang/heap_4.c **** 			if( pxLink->pxNextFreeBlock == NULL )
 326:Middlewares/Third_Party/FreeRTOS/Source/portable/MemMang/heap_4.c **** 			{
 327:Middlewares/Third_Party/FreeRTOS/Source/portable/MemMang/heap_4.c **** 				/* The block is being returned to the heap - it is no longer
 328:Middlewares/Third_Party/FreeRTOS/Source/portable/MemMang/heap_4.c **** 				allocated. */
 329:Middlewares/Third_Party/FreeRTOS/Source/portable/MemMang/heap_4.c **** 				pxLink->xBlockSize &= ~xBlockAllocatedBit;
 330:Middlewares/Third_Party/FreeRTOS/Source/portable/MemMang/heap_4.c **** 
 331:Middlewares/Third_Party/FreeRTOS/Source/portable/MemMang/heap_4.c **** 				vTaskSuspendAll();
 332:Middlewares/Third_Party/FreeRTOS/Source/portable/MemMang/heap_4.c **** 				{
 333:Middlewares/Third_Party/FreeRTOS/Source/portable/MemMang/heap_4.c **** 					/* Add this block to the list of free blocks. */
 334:Middlewares/Third_Party/FreeRTOS/Source/portable/MemMang/heap_4.c **** 					xFreeBytesRemaining += pxLink->xBlockSize;
 335:Middlewares/Third_Party/FreeRTOS/Source/portable/MemMang/heap_4.c **** 					traceFREE( pv, pxLink->xBlockSize );
 336:Middlewares/Third_Party/FreeRTOS/Source/portable/MemMang/heap_4.c **** 					prvInsertBlockIntoFreeList( ( ( BlockLink_t * ) pxLink ) );
 337:Middlewares/Third_Party/FreeRTOS/Source/portable/MemMang/heap_4.c **** 				}
 338:Middlewares/Third_Party/FreeRTOS/Source/portable/MemMang/heap_4.c **** 				( void ) xTaskResumeAll();
 339:Middlewares/Third_Party/FreeRTOS/Source/portable/MemMang/heap_4.c **** 			}
 340:Middlewares/Third_Party/FreeRTOS/Source/portable/MemMang/heap_4.c **** 			else
 341:Middlewares/Third_Party/FreeRTOS/Source/portable/MemMang/heap_4.c **** 			{
 342:Middlewares/Third_Party/FreeRTOS/Source/portable/MemMang/heap_4.c **** 				mtCOVERAGE_TEST_MARKER();
 343:Middlewares/Third_Party/FreeRTOS/Source/portable/MemMang/heap_4.c **** 			}
 344:Middlewares/Third_Party/FreeRTOS/Source/portable/MemMang/heap_4.c **** 		}
 345:Middlewares/Third_Party/FreeRTOS/Source/portable/MemMang/heap_4.c **** 		else
 346:Middlewares/Third_Party/FreeRTOS/Source/portable/MemMang/heap_4.c **** 		{
 347:Middlewares/Third_Party/FreeRTOS/Source/portable/MemMang/heap_4.c **** 			mtCOVERAGE_TEST_MARKER();
 348:Middlewares/Third_Party/FreeRTOS/Source/portable/MemMang/heap_4.c **** 		}
 349:Middlewares/Third_Party/FreeRTOS/Source/portable/MemMang/heap_4.c **** 	}
 350:Middlewares/Third_Party/FreeRTOS/Source/portable/MemMang/heap_4.c **** }
 351:Middlewares/Third_Party/FreeRTOS/Source/portable/MemMang/heap_4.c **** /*-----------------------------------------------------------*/
 352:Middlewares/Third_Party/FreeRTOS/Source/portable/MemMang/heap_4.c **** 
 353:Middlewares/Third_Party/FreeRTOS/Source/portable/MemMang/heap_4.c **** size_t xPortGetFreeHeapSize( void )
 354:Middlewares/Third_Party/FreeRTOS/Source/portable/MemMang/heap_4.c **** {
 355:Middlewares/Third_Party/FreeRTOS/Source/portable/MemMang/heap_4.c **** 	return xFreeBytesRemaining;
 356:Middlewares/Third_Party/FreeRTOS/Source/portable/MemMang/heap_4.c **** }
 357:Middlewares/Third_Party/FreeRTOS/Source/portable/MemMang/heap_4.c **** /*-----------------------------------------------------------*/
 358:Middlewares/Third_Party/FreeRTOS/Source/portable/MemMang/heap_4.c **** 
 359:Middlewares/Third_Party/FreeRTOS/Source/portable/MemMang/heap_4.c **** size_t xPortGetMinimumEverFreeHeapSize( void )
 360:Middlewares/Third_Party/FreeRTOS/Source/portable/MemMang/heap_4.c **** {
 361:Middlewares/Third_Party/FreeRTOS/Source/portable/MemMang/heap_4.c **** 	return xMinimumEverFreeBytesRemaining;
 362:Middlewares/Third_Party/FreeRTOS/Source/portable/MemMang/heap_4.c **** }
 363:Middlewares/Third_Party/FreeRTOS/Source/portable/MemMang/heap_4.c **** /*-----------------------------------------------------------*/
 364:Middlewares/Third_Party/FreeRTOS/Source/portable/MemMang/heap_4.c **** 
 365:Middlewares/Third_Party/FreeRTOS/Source/portable/MemMang/heap_4.c **** void vPortInitialiseBlocks( void )
 366:Middlewares/Third_Party/FreeRTOS/Source/portable/MemMang/heap_4.c **** {
 367:Middlewares/Third_Party/FreeRTOS/Source/portable/MemMang/heap_4.c **** 	/* This just exists to keep the linker quiet. */
 368:Middlewares/Third_Party/FreeRTOS/Source/portable/MemMang/heap_4.c **** }
 369:Middlewares/Third_Party/FreeRTOS/Source/portable/MemMang/heap_4.c **** /*-----------------------------------------------------------*/
 370:Middlewares/Third_Party/FreeRTOS/Source/portable/MemMang/heap_4.c **** 
 371:Middlewares/Third_Party/FreeRTOS/Source/portable/MemMang/heap_4.c **** static void prvHeapInit( void )
 372:Middlewares/Third_Party/FreeRTOS/Source/portable/MemMang/heap_4.c **** {
  28              		.loc 1 372 1 view -0
ARM GAS  /var/folders/n1/76bg37b13ls08p1dhb9rhvd40000gn/T//cchItYn0.s 			page 8


  29              		.cfi_startproc
  30              		@ args = 0, pretend = 0, frame = 0
  31              		@ frame_needed = 0, uses_anonymous_args = 0
  32              		@ link register save eliminated.
 373:Middlewares/Third_Party/FreeRTOS/Source/portable/MemMang/heap_4.c **** BlockLink_t *pxFirstFreeBlock;
  33              		.loc 1 373 1 view .LVU1
 374:Middlewares/Third_Party/FreeRTOS/Source/portable/MemMang/heap_4.c **** uint8_t *pucAlignedHeap;
  34              		.loc 1 374 1 view .LVU2
 375:Middlewares/Third_Party/FreeRTOS/Source/portable/MemMang/heap_4.c **** size_t uxAddress;
  35              		.loc 1 375 1 view .LVU3
 376:Middlewares/Third_Party/FreeRTOS/Source/portable/MemMang/heap_4.c **** size_t xTotalHeapSize = configTOTAL_HEAP_SIZE;
  36              		.loc 1 376 1 view .LVU4
  37              	.LVL0:
 377:Middlewares/Third_Party/FreeRTOS/Source/portable/MemMang/heap_4.c **** 
 378:Middlewares/Third_Party/FreeRTOS/Source/portable/MemMang/heap_4.c **** 	/* Ensure the heap starts on a correctly aligned boundary. */
 379:Middlewares/Third_Party/FreeRTOS/Source/portable/MemMang/heap_4.c **** 	uxAddress = ( size_t ) ucHeap;
  38              		.loc 1 379 2 view .LVU5
  39              		.loc 1 379 12 is_stmt 0 view .LVU6
  40 0000 124A     		ldr	r2, .L4
  41              	.LVL1:
 380:Middlewares/Third_Party/FreeRTOS/Source/portable/MemMang/heap_4.c **** 
 381:Middlewares/Third_Party/FreeRTOS/Source/portable/MemMang/heap_4.c **** 	if( ( uxAddress & portBYTE_ALIGNMENT_MASK ) != 0 )
  42              		.loc 1 381 2 is_stmt 1 view .LVU7
  43              		.loc 1 381 4 is_stmt 0 view .LVU8
  44 0002 12F0070F 		tst	r2, #7
  45 0006 07D0     		beq	.L3
 382:Middlewares/Third_Party/FreeRTOS/Source/portable/MemMang/heap_4.c **** 	{
 383:Middlewares/Third_Party/FreeRTOS/Source/portable/MemMang/heap_4.c **** 		uxAddress += ( portBYTE_ALIGNMENT - 1 );
  46              		.loc 1 383 3 is_stmt 1 view .LVU9
  47              		.loc 1 383 13 is_stmt 0 view .LVU10
  48 0008 D11D     		adds	r1, r2, #7
  49              	.LVL2:
 384:Middlewares/Third_Party/FreeRTOS/Source/portable/MemMang/heap_4.c **** 		uxAddress &= ~( ( size_t ) portBYTE_ALIGNMENT_MASK );
  50              		.loc 1 384 3 is_stmt 1 view .LVU11
  51              		.loc 1 384 13 is_stmt 0 view .LVU12
  52 000a 21F00701 		bic	r1, r1, #7
  53              	.LVL3:
 385:Middlewares/Third_Party/FreeRTOS/Source/portable/MemMang/heap_4.c **** 		xTotalHeapSize -= uxAddress - ( size_t ) ucHeap;
  54              		.loc 1 385 3 is_stmt 1 view .LVU13
  55              		.loc 1 385 18 is_stmt 0 view .LVU14
  56 000e C1F57053 		rsb	r3, r1, #15360
  57 0012 1344     		add	r3, r3, r2
  58              	.LVL4:
 384:Middlewares/Third_Party/FreeRTOS/Source/portable/MemMang/heap_4.c **** 		uxAddress &= ~( ( size_t ) portBYTE_ALIGNMENT_MASK );
  59              		.loc 1 384 13 view .LVU15
  60 0014 0A46     		mov	r2, r1
  61 0016 01E0     		b	.L2
  62              	.LVL5:
  63              	.L3:
 376:Middlewares/Third_Party/FreeRTOS/Source/portable/MemMang/heap_4.c **** 
  64              		.loc 1 376 8 view .LVU16
  65 0018 4FF47053 		mov	r3, #15360
  66              	.LVL6:
  67              	.L2:
 386:Middlewares/Third_Party/FreeRTOS/Source/portable/MemMang/heap_4.c **** 	}
 387:Middlewares/Third_Party/FreeRTOS/Source/portable/MemMang/heap_4.c **** 
 388:Middlewares/Third_Party/FreeRTOS/Source/portable/MemMang/heap_4.c **** 	pucAlignedHeap = ( uint8_t * ) uxAddress;
ARM GAS  /var/folders/n1/76bg37b13ls08p1dhb9rhvd40000gn/T//cchItYn0.s 			page 9


  68              		.loc 1 388 2 is_stmt 1 view .LVU17
 389:Middlewares/Third_Party/FreeRTOS/Source/portable/MemMang/heap_4.c **** 
 390:Middlewares/Third_Party/FreeRTOS/Source/portable/MemMang/heap_4.c **** 	/* xStart is used to hold a pointer to the first item in the list of free
 391:Middlewares/Third_Party/FreeRTOS/Source/portable/MemMang/heap_4.c **** 	blocks.  The void cast is used to prevent compiler warnings. */
 392:Middlewares/Third_Party/FreeRTOS/Source/portable/MemMang/heap_4.c **** 	xStart.pxNextFreeBlock = ( void * ) pucAlignedHeap;
  69              		.loc 1 392 2 view .LVU18
  70              		.loc 1 392 25 is_stmt 0 view .LVU19
  71 001c 0C48     		ldr	r0, .L4+4
  72 001e 0260     		str	r2, [r0]
 393:Middlewares/Third_Party/FreeRTOS/Source/portable/MemMang/heap_4.c **** 	xStart.xBlockSize = ( size_t ) 0;
  73              		.loc 1 393 2 is_stmt 1 view .LVU20
  74              		.loc 1 393 20 is_stmt 0 view .LVU21
  75 0020 0021     		movs	r1, #0
  76 0022 4160     		str	r1, [r0, #4]
 394:Middlewares/Third_Party/FreeRTOS/Source/portable/MemMang/heap_4.c **** 
 395:Middlewares/Third_Party/FreeRTOS/Source/portable/MemMang/heap_4.c **** 	/* pxEnd is used to mark the end of the list of free blocks and is inserted
 396:Middlewares/Third_Party/FreeRTOS/Source/portable/MemMang/heap_4.c **** 	at the end of the heap space. */
 397:Middlewares/Third_Party/FreeRTOS/Source/portable/MemMang/heap_4.c **** 	uxAddress = ( ( size_t ) pucAlignedHeap ) + xTotalHeapSize;
  77              		.loc 1 397 2 is_stmt 1 view .LVU22
  78              		.loc 1 397 12 is_stmt 0 view .LVU23
  79 0024 1344     		add	r3, r3, r2
  80              	.LVL7:
 398:Middlewares/Third_Party/FreeRTOS/Source/portable/MemMang/heap_4.c **** 	uxAddress -= xHeapStructSize;
  81              		.loc 1 398 2 is_stmt 1 view .LVU24
  82              		.loc 1 398 12 is_stmt 0 view .LVU25
  83 0026 083B     		subs	r3, r3, #8
  84              	.LVL8:
 399:Middlewares/Third_Party/FreeRTOS/Source/portable/MemMang/heap_4.c **** 	uxAddress &= ~( ( size_t ) portBYTE_ALIGNMENT_MASK );
  85              		.loc 1 399 2 is_stmt 1 view .LVU26
  86              		.loc 1 399 12 is_stmt 0 view .LVU27
  87 0028 23F00703 		bic	r3, r3, #7
  88              	.LVL9:
 400:Middlewares/Third_Party/FreeRTOS/Source/portable/MemMang/heap_4.c **** 	pxEnd = ( void * ) uxAddress;
  89              		.loc 1 400 2 is_stmt 1 view .LVU28
  90              		.loc 1 400 8 is_stmt 0 view .LVU29
  91 002c 0948     		ldr	r0, .L4+8
  92 002e 0360     		str	r3, [r0]
 401:Middlewares/Third_Party/FreeRTOS/Source/portable/MemMang/heap_4.c **** 	pxEnd->xBlockSize = 0;
  93              		.loc 1 401 2 is_stmt 1 view .LVU30
  94              		.loc 1 401 20 is_stmt 0 view .LVU31
  95 0030 5960     		str	r1, [r3, #4]
 402:Middlewares/Third_Party/FreeRTOS/Source/portable/MemMang/heap_4.c **** 	pxEnd->pxNextFreeBlock = NULL;
  96              		.loc 1 402 2 is_stmt 1 view .LVU32
  97              		.loc 1 402 25 is_stmt 0 view .LVU33
  98 0032 1960     		str	r1, [r3]
 403:Middlewares/Third_Party/FreeRTOS/Source/portable/MemMang/heap_4.c **** 
 404:Middlewares/Third_Party/FreeRTOS/Source/portable/MemMang/heap_4.c **** 	/* To start with there is a single free block that is sized to take up the
 405:Middlewares/Third_Party/FreeRTOS/Source/portable/MemMang/heap_4.c **** 	entire heap space, minus the space taken by pxEnd. */
 406:Middlewares/Third_Party/FreeRTOS/Source/portable/MemMang/heap_4.c **** 	pxFirstFreeBlock = ( void * ) pucAlignedHeap;
  99              		.loc 1 406 2 is_stmt 1 view .LVU34
 100              	.LVL10:
 407:Middlewares/Third_Party/FreeRTOS/Source/portable/MemMang/heap_4.c **** 	pxFirstFreeBlock->xBlockSize = uxAddress - ( size_t ) pxFirstFreeBlock;
 101              		.loc 1 407 2 view .LVU35
 102              		.loc 1 407 43 is_stmt 0 view .LVU36
 103 0034 991A     		subs	r1, r3, r2
 104              		.loc 1 407 31 view .LVU37
 105 0036 5160     		str	r1, [r2, #4]
ARM GAS  /var/folders/n1/76bg37b13ls08p1dhb9rhvd40000gn/T//cchItYn0.s 			page 10


 408:Middlewares/Third_Party/FreeRTOS/Source/portable/MemMang/heap_4.c **** 	pxFirstFreeBlock->pxNextFreeBlock = pxEnd;
 106              		.loc 1 408 2 is_stmt 1 view .LVU38
 107              		.loc 1 408 36 is_stmt 0 view .LVU39
 108 0038 1360     		str	r3, [r2]
 409:Middlewares/Third_Party/FreeRTOS/Source/portable/MemMang/heap_4.c **** 
 410:Middlewares/Third_Party/FreeRTOS/Source/portable/MemMang/heap_4.c **** 	/* Only one block exists - and it covers the entire usable heap space. */
 411:Middlewares/Third_Party/FreeRTOS/Source/portable/MemMang/heap_4.c **** 	xMinimumEverFreeBytesRemaining = pxFirstFreeBlock->xBlockSize;
 109              		.loc 1 411 2 is_stmt 1 view .LVU40
 110              		.loc 1 411 33 is_stmt 0 view .LVU41
 111 003a 074B     		ldr	r3, .L4+12
 112              	.LVL11:
 113              		.loc 1 411 33 view .LVU42
 114 003c 1960     		str	r1, [r3]
 412:Middlewares/Third_Party/FreeRTOS/Source/portable/MemMang/heap_4.c **** 	xFreeBytesRemaining = pxFirstFreeBlock->xBlockSize;
 115              		.loc 1 412 2 is_stmt 1 view .LVU43
 116              		.loc 1 412 22 is_stmt 0 view .LVU44
 117 003e 074B     		ldr	r3, .L4+16
 118 0040 1960     		str	r1, [r3]
 413:Middlewares/Third_Party/FreeRTOS/Source/portable/MemMang/heap_4.c **** 
 414:Middlewares/Third_Party/FreeRTOS/Source/portable/MemMang/heap_4.c **** 	/* Work out the position of the top bit in a size_t variable. */
 415:Middlewares/Third_Party/FreeRTOS/Source/portable/MemMang/heap_4.c **** 	xBlockAllocatedBit = ( ( size_t ) 1 ) << ( ( sizeof( size_t ) * heapBITS_PER_BYTE ) - 1 );
 119              		.loc 1 415 2 is_stmt 1 view .LVU45
 120              		.loc 1 415 21 is_stmt 0 view .LVU46
 121 0042 074B     		ldr	r3, .L4+20
 122 0044 4FF00042 		mov	r2, #-2147483648
 123              	.LVL12:
 124              		.loc 1 415 21 view .LVU47
 125 0048 1A60     		str	r2, [r3]
 416:Middlewares/Third_Party/FreeRTOS/Source/portable/MemMang/heap_4.c **** }
 126              		.loc 1 416 1 view .LVU48
 127 004a 7047     		bx	lr
 128              	.L5:
 129              		.align	2
 130              	.L4:
 131 004c 00000000 		.word	ucHeap
 132 0050 00000000 		.word	.LANCHOR0
 133 0054 00000000 		.word	.LANCHOR1
 134 0058 00000000 		.word	.LANCHOR2
 135 005c 00000000 		.word	.LANCHOR3
 136 0060 00000000 		.word	.LANCHOR4
 137              		.cfi_endproc
 138              	.LFE10:
 140              		.section	.text.prvInsertBlockIntoFreeList,"ax",%progbits
 141              		.align	1
 142              		.syntax unified
 143              		.thumb
 144              		.thumb_func
 145              		.fpu fpv4-sp-d16
 147              	prvInsertBlockIntoFreeList:
 148              	.LVL13:
 149              	.LFB11:
 417:Middlewares/Third_Party/FreeRTOS/Source/portable/MemMang/heap_4.c **** /*-----------------------------------------------------------*/
 418:Middlewares/Third_Party/FreeRTOS/Source/portable/MemMang/heap_4.c **** 
 419:Middlewares/Third_Party/FreeRTOS/Source/portable/MemMang/heap_4.c **** static void prvInsertBlockIntoFreeList( BlockLink_t *pxBlockToInsert )
 420:Middlewares/Third_Party/FreeRTOS/Source/portable/MemMang/heap_4.c **** {
 150              		.loc 1 420 1 is_stmt 1 view -0
 151              		.cfi_startproc
ARM GAS  /var/folders/n1/76bg37b13ls08p1dhb9rhvd40000gn/T//cchItYn0.s 			page 11


 152              		@ args = 0, pretend = 0, frame = 0
 153              		@ frame_needed = 0, uses_anonymous_args = 0
 154              		@ link register save eliminated.
 155              		.loc 1 420 1 is_stmt 0 view .LVU50
 156 0000 10B4     		push	{r4}
 157              	.LCFI0:
 158              		.cfi_def_cfa_offset 4
 159              		.cfi_offset 4, -4
 421:Middlewares/Third_Party/FreeRTOS/Source/portable/MemMang/heap_4.c **** BlockLink_t *pxIterator;
 160              		.loc 1 421 1 is_stmt 1 view .LVU51
 422:Middlewares/Third_Party/FreeRTOS/Source/portable/MemMang/heap_4.c **** uint8_t *puc;
 161              		.loc 1 422 1 view .LVU52
 423:Middlewares/Third_Party/FreeRTOS/Source/portable/MemMang/heap_4.c **** 
 424:Middlewares/Third_Party/FreeRTOS/Source/portable/MemMang/heap_4.c **** 	/* Iterate through the list until a block is found that has a higher address
 425:Middlewares/Third_Party/FreeRTOS/Source/portable/MemMang/heap_4.c **** 	than the block being inserted. */
 426:Middlewares/Third_Party/FreeRTOS/Source/portable/MemMang/heap_4.c **** 	for( pxIterator = &xStart; pxIterator->pxNextFreeBlock < pxBlockToInsert; pxIterator = pxIterator-
 162              		.loc 1 426 2 view .LVU53
 163              	.LVL14:
 164              		.loc 1 426 18 is_stmt 0 view .LVU54
 165 0002 134A     		ldr	r2, .L17
 166              		.loc 1 426 2 view .LVU55
 167 0004 00E0     		b	.L7
 168              	.LVL15:
 169              	.L13:
 170              		.loc 1 426 87 view .LVU56
 171 0006 1A46     		mov	r2, r3
 172              	.LVL16:
 173              	.L7:
 174              		.loc 1 426 39 discriminator 1 view .LVU57
 175 0008 1368     		ldr	r3, [r2]
 176              		.loc 1 426 2 discriminator 1 view .LVU58
 177 000a 8342     		cmp	r3, r0
 178 000c FBD3     		bcc	.L13
 427:Middlewares/Third_Party/FreeRTOS/Source/portable/MemMang/heap_4.c **** 	{
 428:Middlewares/Third_Party/FreeRTOS/Source/portable/MemMang/heap_4.c **** 		/* Nothing to do here, just iterate to the right position. */
 429:Middlewares/Third_Party/FreeRTOS/Source/portable/MemMang/heap_4.c **** 	}
 430:Middlewares/Third_Party/FreeRTOS/Source/portable/MemMang/heap_4.c **** 
 431:Middlewares/Third_Party/FreeRTOS/Source/portable/MemMang/heap_4.c **** 	/* Do the block being inserted, and the block it is being inserted after
 432:Middlewares/Third_Party/FreeRTOS/Source/portable/MemMang/heap_4.c **** 	make a contiguous block of memory? */
 433:Middlewares/Third_Party/FreeRTOS/Source/portable/MemMang/heap_4.c **** 	puc = ( uint8_t * ) pxIterator;
 179              		.loc 1 433 2 is_stmt 1 view .LVU59
 180              	.LVL17:
 434:Middlewares/Third_Party/FreeRTOS/Source/portable/MemMang/heap_4.c **** 	if( ( puc + pxIterator->xBlockSize ) == ( uint8_t * ) pxBlockToInsert )
 181              		.loc 1 434 2 view .LVU60
 182              		.loc 1 434 24 is_stmt 0 view .LVU61
 183 000e 5168     		ldr	r1, [r2, #4]
 184              		.loc 1 434 12 view .LVU62
 185 0010 5418     		adds	r4, r2, r1
 186              		.loc 1 434 4 view .LVU63
 187 0012 8442     		cmp	r4, r0
 188 0014 0AD0     		beq	.L15
 189              	.L8:
 435:Middlewares/Third_Party/FreeRTOS/Source/portable/MemMang/heap_4.c **** 	{
 436:Middlewares/Third_Party/FreeRTOS/Source/portable/MemMang/heap_4.c **** 		pxIterator->xBlockSize += pxBlockToInsert->xBlockSize;
 437:Middlewares/Third_Party/FreeRTOS/Source/portable/MemMang/heap_4.c **** 		pxBlockToInsert = pxIterator;
 438:Middlewares/Third_Party/FreeRTOS/Source/portable/MemMang/heap_4.c **** 	}
 439:Middlewares/Third_Party/FreeRTOS/Source/portable/MemMang/heap_4.c **** 	else
ARM GAS  /var/folders/n1/76bg37b13ls08p1dhb9rhvd40000gn/T//cchItYn0.s 			page 12


 440:Middlewares/Third_Party/FreeRTOS/Source/portable/MemMang/heap_4.c **** 	{
 441:Middlewares/Third_Party/FreeRTOS/Source/portable/MemMang/heap_4.c **** 		mtCOVERAGE_TEST_MARKER();
 190              		.loc 1 441 27 is_stmt 1 view .LVU64
 442:Middlewares/Third_Party/FreeRTOS/Source/portable/MemMang/heap_4.c **** 	}
 443:Middlewares/Third_Party/FreeRTOS/Source/portable/MemMang/heap_4.c **** 
 444:Middlewares/Third_Party/FreeRTOS/Source/portable/MemMang/heap_4.c **** 	/* Do the block being inserted, and the block it is being inserted before
 445:Middlewares/Third_Party/FreeRTOS/Source/portable/MemMang/heap_4.c **** 	make a contiguous block of memory? */
 446:Middlewares/Third_Party/FreeRTOS/Source/portable/MemMang/heap_4.c **** 	puc = ( uint8_t * ) pxBlockToInsert;
 191              		.loc 1 446 2 view .LVU65
 192              	.LVL18:
 447:Middlewares/Third_Party/FreeRTOS/Source/portable/MemMang/heap_4.c **** 	if( ( puc + pxBlockToInsert->xBlockSize ) == ( uint8_t * ) pxIterator->pxNextFreeBlock )
 193              		.loc 1 447 2 view .LVU66
 194              		.loc 1 447 29 is_stmt 0 view .LVU67
 195 0016 4168     		ldr	r1, [r0, #4]
 196              		.loc 1 447 12 view .LVU68
 197 0018 4418     		adds	r4, r0, r1
 198              		.loc 1 447 4 view .LVU69
 199 001a A342     		cmp	r3, r4
 200 001c 0BD0     		beq	.L16
 448:Middlewares/Third_Party/FreeRTOS/Source/portable/MemMang/heap_4.c **** 	{
 449:Middlewares/Third_Party/FreeRTOS/Source/portable/MemMang/heap_4.c **** 		if( pxIterator->pxNextFreeBlock != pxEnd )
 450:Middlewares/Third_Party/FreeRTOS/Source/portable/MemMang/heap_4.c **** 		{
 451:Middlewares/Third_Party/FreeRTOS/Source/portable/MemMang/heap_4.c **** 			/* Form one big block from the two blocks. */
 452:Middlewares/Third_Party/FreeRTOS/Source/portable/MemMang/heap_4.c **** 			pxBlockToInsert->xBlockSize += pxIterator->pxNextFreeBlock->xBlockSize;
 453:Middlewares/Third_Party/FreeRTOS/Source/portable/MemMang/heap_4.c **** 			pxBlockToInsert->pxNextFreeBlock = pxIterator->pxNextFreeBlock->pxNextFreeBlock;
 454:Middlewares/Third_Party/FreeRTOS/Source/portable/MemMang/heap_4.c **** 		}
 455:Middlewares/Third_Party/FreeRTOS/Source/portable/MemMang/heap_4.c **** 		else
 456:Middlewares/Third_Party/FreeRTOS/Source/portable/MemMang/heap_4.c **** 		{
 457:Middlewares/Third_Party/FreeRTOS/Source/portable/MemMang/heap_4.c **** 			pxBlockToInsert->pxNextFreeBlock = pxEnd;
 458:Middlewares/Third_Party/FreeRTOS/Source/portable/MemMang/heap_4.c **** 		}
 459:Middlewares/Third_Party/FreeRTOS/Source/portable/MemMang/heap_4.c **** 	}
 460:Middlewares/Third_Party/FreeRTOS/Source/portable/MemMang/heap_4.c **** 	else
 461:Middlewares/Third_Party/FreeRTOS/Source/portable/MemMang/heap_4.c **** 	{
 462:Middlewares/Third_Party/FreeRTOS/Source/portable/MemMang/heap_4.c **** 		pxBlockToInsert->pxNextFreeBlock = pxIterator->pxNextFreeBlock;
 201              		.loc 1 462 3 is_stmt 1 view .LVU70
 202              		.loc 1 462 36 is_stmt 0 view .LVU71
 203 001e 0360     		str	r3, [r0]
 204              	.L11:
 463:Middlewares/Third_Party/FreeRTOS/Source/portable/MemMang/heap_4.c **** 	}
 464:Middlewares/Third_Party/FreeRTOS/Source/portable/MemMang/heap_4.c **** 
 465:Middlewares/Third_Party/FreeRTOS/Source/portable/MemMang/heap_4.c **** 	/* If the block being inserted plugged a gab, so was merged with the block
 466:Middlewares/Third_Party/FreeRTOS/Source/portable/MemMang/heap_4.c **** 	before and the block after, then it's pxNextFreeBlock pointer will have
 467:Middlewares/Third_Party/FreeRTOS/Source/portable/MemMang/heap_4.c **** 	already been set, and should not be set here as that would make it point
 468:Middlewares/Third_Party/FreeRTOS/Source/portable/MemMang/heap_4.c **** 	to itself. */
 469:Middlewares/Third_Party/FreeRTOS/Source/portable/MemMang/heap_4.c **** 	if( pxIterator != pxBlockToInsert )
 205              		.loc 1 469 2 is_stmt 1 view .LVU72
 206              		.loc 1 469 4 is_stmt 0 view .LVU73
 207 0020 9042     		cmp	r0, r2
 208 0022 00D0     		beq	.L6
 470:Middlewares/Third_Party/FreeRTOS/Source/portable/MemMang/heap_4.c **** 	{
 471:Middlewares/Third_Party/FreeRTOS/Source/portable/MemMang/heap_4.c **** 		pxIterator->pxNextFreeBlock = pxBlockToInsert;
 209              		.loc 1 471 3 is_stmt 1 view .LVU74
 210              		.loc 1 471 31 is_stmt 0 view .LVU75
 211 0024 1060     		str	r0, [r2]
 472:Middlewares/Third_Party/FreeRTOS/Source/portable/MemMang/heap_4.c **** 	}
 473:Middlewares/Third_Party/FreeRTOS/Source/portable/MemMang/heap_4.c **** 	else
 474:Middlewares/Third_Party/FreeRTOS/Source/portable/MemMang/heap_4.c **** 	{
ARM GAS  /var/folders/n1/76bg37b13ls08p1dhb9rhvd40000gn/T//cchItYn0.s 			page 13


 475:Middlewares/Third_Party/FreeRTOS/Source/portable/MemMang/heap_4.c **** 		mtCOVERAGE_TEST_MARKER();
 212              		.loc 1 475 27 is_stmt 1 view .LVU76
 213              	.L6:
 476:Middlewares/Third_Party/FreeRTOS/Source/portable/MemMang/heap_4.c **** 	}
 477:Middlewares/Third_Party/FreeRTOS/Source/portable/MemMang/heap_4.c **** }
 214              		.loc 1 477 1 is_stmt 0 view .LVU77
 215 0026 5DF8044B 		ldr	r4, [sp], #4
 216              	.LCFI1:
 217              		.cfi_remember_state
 218              		.cfi_restore 4
 219              		.cfi_def_cfa_offset 0
 220 002a 7047     		bx	lr
 221              	.LVL19:
 222              	.L15:
 223              	.LCFI2:
 224              		.cfi_restore_state
 436:Middlewares/Third_Party/FreeRTOS/Source/portable/MemMang/heap_4.c **** 		pxBlockToInsert = pxIterator;
 225              		.loc 1 436 3 is_stmt 1 view .LVU78
 436:Middlewares/Third_Party/FreeRTOS/Source/portable/MemMang/heap_4.c **** 		pxBlockToInsert = pxIterator;
 226              		.loc 1 436 44 is_stmt 0 view .LVU79
 227 002c 4068     		ldr	r0, [r0, #4]
 228              	.LVL20:
 436:Middlewares/Third_Party/FreeRTOS/Source/portable/MemMang/heap_4.c **** 		pxBlockToInsert = pxIterator;
 229              		.loc 1 436 26 view .LVU80
 230 002e 0144     		add	r1, r1, r0
 231 0030 5160     		str	r1, [r2, #4]
 437:Middlewares/Third_Party/FreeRTOS/Source/portable/MemMang/heap_4.c **** 	}
 232              		.loc 1 437 3 is_stmt 1 view .LVU81
 233              	.LVL21:
 437:Middlewares/Third_Party/FreeRTOS/Source/portable/MemMang/heap_4.c **** 	}
 234              		.loc 1 437 19 is_stmt 0 view .LVU82
 235 0032 1046     		mov	r0, r2
 236 0034 EFE7     		b	.L8
 237              	.LVL22:
 238              	.L16:
 449:Middlewares/Third_Party/FreeRTOS/Source/portable/MemMang/heap_4.c **** 		{
 239              		.loc 1 449 3 is_stmt 1 view .LVU83
 449:Middlewares/Third_Party/FreeRTOS/Source/portable/MemMang/heap_4.c **** 		{
 240              		.loc 1 449 35 is_stmt 0 view .LVU84
 241 0036 074C     		ldr	r4, .L17+4
 242 0038 2468     		ldr	r4, [r4]
 449:Middlewares/Third_Party/FreeRTOS/Source/portable/MemMang/heap_4.c **** 		{
 243              		.loc 1 449 5 view .LVU85
 244 003a A342     		cmp	r3, r4
 245 003c 06D0     		beq	.L10
 452:Middlewares/Third_Party/FreeRTOS/Source/portable/MemMang/heap_4.c **** 			pxBlockToInsert->pxNextFreeBlock = pxIterator->pxNextFreeBlock->pxNextFreeBlock;
 246              		.loc 1 452 4 is_stmt 1 view .LVU86
 452:Middlewares/Third_Party/FreeRTOS/Source/portable/MemMang/heap_4.c **** 			pxBlockToInsert->pxNextFreeBlock = pxIterator->pxNextFreeBlock->pxNextFreeBlock;
 247              		.loc 1 452 62 is_stmt 0 view .LVU87
 248 003e 5B68     		ldr	r3, [r3, #4]
 452:Middlewares/Third_Party/FreeRTOS/Source/portable/MemMang/heap_4.c **** 			pxBlockToInsert->pxNextFreeBlock = pxIterator->pxNextFreeBlock->pxNextFreeBlock;
 249              		.loc 1 452 32 view .LVU88
 250 0040 1944     		add	r1, r1, r3
 251 0042 4160     		str	r1, [r0, #4]
 453:Middlewares/Third_Party/FreeRTOS/Source/portable/MemMang/heap_4.c **** 		}
 252              		.loc 1 453 4 is_stmt 1 view .LVU89
 453:Middlewares/Third_Party/FreeRTOS/Source/portable/MemMang/heap_4.c **** 		}
ARM GAS  /var/folders/n1/76bg37b13ls08p1dhb9rhvd40000gn/T//cchItYn0.s 			page 14


 253              		.loc 1 453 49 is_stmt 0 view .LVU90
 254 0044 1368     		ldr	r3, [r2]
 453:Middlewares/Third_Party/FreeRTOS/Source/portable/MemMang/heap_4.c **** 		}
 255              		.loc 1 453 66 view .LVU91
 256 0046 1B68     		ldr	r3, [r3]
 453:Middlewares/Third_Party/FreeRTOS/Source/portable/MemMang/heap_4.c **** 		}
 257              		.loc 1 453 37 view .LVU92
 258 0048 0360     		str	r3, [r0]
 259 004a E9E7     		b	.L11
 260              	.L10:
 457:Middlewares/Third_Party/FreeRTOS/Source/portable/MemMang/heap_4.c **** 		}
 261              		.loc 1 457 4 is_stmt 1 view .LVU93
 457:Middlewares/Third_Party/FreeRTOS/Source/portable/MemMang/heap_4.c **** 		}
 262              		.loc 1 457 37 is_stmt 0 view .LVU94
 263 004c 0460     		str	r4, [r0]
 264 004e E7E7     		b	.L11
 265              	.L18:
 266              		.align	2
 267              	.L17:
 268 0050 00000000 		.word	.LANCHOR0
 269 0054 00000000 		.word	.LANCHOR1
 270              		.cfi_endproc
 271              	.LFE11:
 273              		.section	.text.pvPortMalloc,"ax",%progbits
 274              		.align	1
 275              		.global	pvPortMalloc
 276              		.syntax unified
 277              		.thumb
 278              		.thumb_func
 279              		.fpu fpv4-sp-d16
 281              	pvPortMalloc:
 282              	.LVL23:
 283              	.LFB5:
 156:Middlewares/Third_Party/FreeRTOS/Source/portable/MemMang/heap_4.c **** BlockLink_t *pxBlock, *pxPreviousBlock, *pxNewBlockLink;
 284              		.loc 1 156 1 is_stmt 1 view -0
 285              		.cfi_startproc
 286              		@ args = 0, pretend = 0, frame = 0
 287              		@ frame_needed = 0, uses_anonymous_args = 0
 156:Middlewares/Third_Party/FreeRTOS/Source/portable/MemMang/heap_4.c **** BlockLink_t *pxBlock, *pxPreviousBlock, *pxNewBlockLink;
 288              		.loc 1 156 1 is_stmt 0 view .LVU96
 289 0000 70B5     		push	{r4, r5, r6, lr}
 290              	.LCFI3:
 291              		.cfi_def_cfa_offset 16
 292              		.cfi_offset 4, -16
 293              		.cfi_offset 5, -12
 294              		.cfi_offset 6, -8
 295              		.cfi_offset 14, -4
 296 0002 0446     		mov	r4, r0
 157:Middlewares/Third_Party/FreeRTOS/Source/portable/MemMang/heap_4.c **** void *pvReturn = NULL;
 297              		.loc 1 157 1 is_stmt 1 view .LVU97
 158:Middlewares/Third_Party/FreeRTOS/Source/portable/MemMang/heap_4.c **** 
 298              		.loc 1 158 1 view .LVU98
 299              	.LVL24:
 160:Middlewares/Third_Party/FreeRTOS/Source/portable/MemMang/heap_4.c **** 	{
 300              		.loc 1 160 2 view .LVU99
 301 0004 FFF7FEFF 		bl	vTaskSuspendAll
 302              	.LVL25:
ARM GAS  /var/folders/n1/76bg37b13ls08p1dhb9rhvd40000gn/T//cchItYn0.s 			page 15


 164:Middlewares/Third_Party/FreeRTOS/Source/portable/MemMang/heap_4.c **** 		{
 303              		.loc 1 164 3 view .LVU100
 164:Middlewares/Third_Party/FreeRTOS/Source/portable/MemMang/heap_4.c **** 		{
 304              		.loc 1 164 13 is_stmt 0 view .LVU101
 305 0008 3A4B     		ldr	r3, .L39
 306 000a 1B68     		ldr	r3, [r3]
 164:Middlewares/Third_Party/FreeRTOS/Source/portable/MemMang/heap_4.c **** 		{
 307              		.loc 1 164 5 view .LVU102
 308 000c BBB1     		cbz	r3, .L38
 309              	.L20:
 170:Middlewares/Third_Party/FreeRTOS/Source/portable/MemMang/heap_4.c **** 		}
 310              		.loc 1 170 28 is_stmt 1 view .LVU103
 177:Middlewares/Third_Party/FreeRTOS/Source/portable/MemMang/heap_4.c **** 		{
 311              		.loc 1 177 3 view .LVU104
 177:Middlewares/Third_Party/FreeRTOS/Source/portable/MemMang/heap_4.c **** 		{
 312              		.loc 1 177 21 is_stmt 0 view .LVU105
 313 000e 3A4B     		ldr	r3, .L39+4
 314 0010 1B68     		ldr	r3, [r3]
 177:Middlewares/Third_Party/FreeRTOS/Source/portable/MemMang/heap_4.c **** 		{
 315              		.loc 1 177 5 view .LVU106
 316 0012 1C42     		tst	r4, r3
 317 0014 56D1     		bne	.L32
 181:Middlewares/Third_Party/FreeRTOS/Source/portable/MemMang/heap_4.c **** 			{
 318              		.loc 1 181 4 is_stmt 1 view .LVU107
 181:Middlewares/Third_Party/FreeRTOS/Source/portable/MemMang/heap_4.c **** 			{
 319              		.loc 1 181 6 is_stmt 0 view .LVU108
 320 0016 ACB1     		cbz	r4, .L22
 183:Middlewares/Third_Party/FreeRTOS/Source/portable/MemMang/heap_4.c **** 
 321              		.loc 1 183 5 is_stmt 1 view .LVU109
 183:Middlewares/Third_Party/FreeRTOS/Source/portable/MemMang/heap_4.c **** 
 322              		.loc 1 183 17 is_stmt 0 view .LVU110
 323 0018 0834     		adds	r4, r4, #8
 324              	.LVL26:
 187:Middlewares/Third_Party/FreeRTOS/Source/portable/MemMang/heap_4.c **** 				{
 325              		.loc 1 187 5 is_stmt 1 view .LVU111
 187:Middlewares/Third_Party/FreeRTOS/Source/portable/MemMang/heap_4.c **** 				{
 326              		.loc 1 187 7 is_stmt 0 view .LVU112
 327 001a 14F0070F 		tst	r4, #7
 328 001e 11D0     		beq	.L22
 190:Middlewares/Third_Party/FreeRTOS/Source/portable/MemMang/heap_4.c **** 					configASSERT( ( xWantedSize & portBYTE_ALIGNMENT_MASK ) == 0 );
 329              		.loc 1 190 6 is_stmt 1 view .LVU113
 190:Middlewares/Third_Party/FreeRTOS/Source/portable/MemMang/heap_4.c **** 					configASSERT( ( xWantedSize & portBYTE_ALIGNMENT_MASK ) == 0 );
 330              		.loc 1 190 18 is_stmt 0 view .LVU114
 331 0020 24F00704 		bic	r4, r4, #7
 332              	.LVL27:
 190:Middlewares/Third_Party/FreeRTOS/Source/portable/MemMang/heap_4.c **** 					configASSERT( ( xWantedSize & portBYTE_ALIGNMENT_MASK ) == 0 );
 333              		.loc 1 190 18 view .LVU115
 334 0024 0834     		adds	r4, r4, #8
 335              	.LVL28:
 191:Middlewares/Third_Party/FreeRTOS/Source/portable/MemMang/heap_4.c **** 				}
 336              		.loc 1 191 6 is_stmt 1 view .LVU116
 337 0026 04F00703 		and	r3, r4, #7
 338 002a 5BB1     		cbz	r3, .L22
 191:Middlewares/Third_Party/FreeRTOS/Source/portable/MemMang/heap_4.c **** 				}
 339              		.loc 1 191 6 view .LVU117
 340              	.LBB12:
 341              	.LBI12:
ARM GAS  /var/folders/n1/76bg37b13ls08p1dhb9rhvd40000gn/T//cchItYn0.s 			page 16


 342              		.file 2 "Middlewares/Third_Party/FreeRTOS/Source/portable/GCC/ARM_CM4F/portmacro.h"
   1:Middlewares/Third_Party/FreeRTOS/Source/portable/GCC/ARM_CM4F/portmacro.h **** /*
   2:Middlewares/Third_Party/FreeRTOS/Source/portable/GCC/ARM_CM4F/portmacro.h ****     FreeRTOS V9.0.0 - Copyright (C) 2016 Real Time Engineers Ltd.
   3:Middlewares/Third_Party/FreeRTOS/Source/portable/GCC/ARM_CM4F/portmacro.h ****     All rights reserved
   4:Middlewares/Third_Party/FreeRTOS/Source/portable/GCC/ARM_CM4F/portmacro.h **** 
   5:Middlewares/Third_Party/FreeRTOS/Source/portable/GCC/ARM_CM4F/portmacro.h ****     VISIT http://www.FreeRTOS.org TO ENSURE YOU ARE USING THE LATEST VERSION.
   6:Middlewares/Third_Party/FreeRTOS/Source/portable/GCC/ARM_CM4F/portmacro.h **** 
   7:Middlewares/Third_Party/FreeRTOS/Source/portable/GCC/ARM_CM4F/portmacro.h ****     This file is part of the FreeRTOS distribution.
   8:Middlewares/Third_Party/FreeRTOS/Source/portable/GCC/ARM_CM4F/portmacro.h **** 
   9:Middlewares/Third_Party/FreeRTOS/Source/portable/GCC/ARM_CM4F/portmacro.h ****     FreeRTOS is free software; you can redistribute it and/or modify it under
  10:Middlewares/Third_Party/FreeRTOS/Source/portable/GCC/ARM_CM4F/portmacro.h ****     the terms of the GNU General Public License (version 2) as published by the
  11:Middlewares/Third_Party/FreeRTOS/Source/portable/GCC/ARM_CM4F/portmacro.h ****     Free Software Foundation >>>> AND MODIFIED BY <<<< the FreeRTOS exception.
  12:Middlewares/Third_Party/FreeRTOS/Source/portable/GCC/ARM_CM4F/portmacro.h **** 
  13:Middlewares/Third_Party/FreeRTOS/Source/portable/GCC/ARM_CM4F/portmacro.h ****     ***************************************************************************
  14:Middlewares/Third_Party/FreeRTOS/Source/portable/GCC/ARM_CM4F/portmacro.h ****     >>!   NOTE: The modification to the GPL is included to allow you to     !<<
  15:Middlewares/Third_Party/FreeRTOS/Source/portable/GCC/ARM_CM4F/portmacro.h ****     >>!   distribute a combined work that includes FreeRTOS without being   !<<
  16:Middlewares/Third_Party/FreeRTOS/Source/portable/GCC/ARM_CM4F/portmacro.h ****     >>!   obliged to provide the source code for proprietary components     !<<
  17:Middlewares/Third_Party/FreeRTOS/Source/portable/GCC/ARM_CM4F/portmacro.h ****     >>!   outside of the FreeRTOS kernel.                                   !<<
  18:Middlewares/Third_Party/FreeRTOS/Source/portable/GCC/ARM_CM4F/portmacro.h ****     ***************************************************************************
  19:Middlewares/Third_Party/FreeRTOS/Source/portable/GCC/ARM_CM4F/portmacro.h **** 
  20:Middlewares/Third_Party/FreeRTOS/Source/portable/GCC/ARM_CM4F/portmacro.h ****     FreeRTOS is distributed in the hope that it will be useful, but WITHOUT ANY
  21:Middlewares/Third_Party/FreeRTOS/Source/portable/GCC/ARM_CM4F/portmacro.h ****     WARRANTY; without even the implied warranty of MERCHANTABILITY or FITNESS
  22:Middlewares/Third_Party/FreeRTOS/Source/portable/GCC/ARM_CM4F/portmacro.h ****     FOR A PARTICULAR PURPOSE.  Full license text is available on the following
  23:Middlewares/Third_Party/FreeRTOS/Source/portable/GCC/ARM_CM4F/portmacro.h ****     link: http://www.freertos.org/a00114.html
  24:Middlewares/Third_Party/FreeRTOS/Source/portable/GCC/ARM_CM4F/portmacro.h **** 
  25:Middlewares/Third_Party/FreeRTOS/Source/portable/GCC/ARM_CM4F/portmacro.h ****     ***************************************************************************
  26:Middlewares/Third_Party/FreeRTOS/Source/portable/GCC/ARM_CM4F/portmacro.h ****      *                                                                       *
  27:Middlewares/Third_Party/FreeRTOS/Source/portable/GCC/ARM_CM4F/portmacro.h ****      *    FreeRTOS provides completely free yet professionally developed,    *
  28:Middlewares/Third_Party/FreeRTOS/Source/portable/GCC/ARM_CM4F/portmacro.h ****      *    robust, strictly quality controlled, supported, and cross          *
  29:Middlewares/Third_Party/FreeRTOS/Source/portable/GCC/ARM_CM4F/portmacro.h ****      *    platform software that is more than just the market leader, it     *
  30:Middlewares/Third_Party/FreeRTOS/Source/portable/GCC/ARM_CM4F/portmacro.h ****      *    is the industry's de facto standard.                               *
  31:Middlewares/Third_Party/FreeRTOS/Source/portable/GCC/ARM_CM4F/portmacro.h ****      *                                                                       *
  32:Middlewares/Third_Party/FreeRTOS/Source/portable/GCC/ARM_CM4F/portmacro.h ****      *    Help yourself get started quickly while simultaneously helping     *
  33:Middlewares/Third_Party/FreeRTOS/Source/portable/GCC/ARM_CM4F/portmacro.h ****      *    to support the FreeRTOS project by purchasing a FreeRTOS           *
  34:Middlewares/Third_Party/FreeRTOS/Source/portable/GCC/ARM_CM4F/portmacro.h ****      *    tutorial book, reference manual, or both:                          *
  35:Middlewares/Third_Party/FreeRTOS/Source/portable/GCC/ARM_CM4F/portmacro.h ****      *    http://www.FreeRTOS.org/Documentation                              *
  36:Middlewares/Third_Party/FreeRTOS/Source/portable/GCC/ARM_CM4F/portmacro.h ****      *                                                                       *
  37:Middlewares/Third_Party/FreeRTOS/Source/portable/GCC/ARM_CM4F/portmacro.h ****     ***************************************************************************
  38:Middlewares/Third_Party/FreeRTOS/Source/portable/GCC/ARM_CM4F/portmacro.h **** 
  39:Middlewares/Third_Party/FreeRTOS/Source/portable/GCC/ARM_CM4F/portmacro.h ****     http://www.FreeRTOS.org/FAQHelp.html - Having a problem?  Start by reading
  40:Middlewares/Third_Party/FreeRTOS/Source/portable/GCC/ARM_CM4F/portmacro.h ****     the FAQ page "My application does not run, what could be wrong?".  Have you
  41:Middlewares/Third_Party/FreeRTOS/Source/portable/GCC/ARM_CM4F/portmacro.h ****     defined configASSERT()?
  42:Middlewares/Third_Party/FreeRTOS/Source/portable/GCC/ARM_CM4F/portmacro.h **** 
  43:Middlewares/Third_Party/FreeRTOS/Source/portable/GCC/ARM_CM4F/portmacro.h ****     http://www.FreeRTOS.org/support - In return for receiving this top quality
  44:Middlewares/Third_Party/FreeRTOS/Source/portable/GCC/ARM_CM4F/portmacro.h ****     embedded software for free we request you assist our global community by
  45:Middlewares/Third_Party/FreeRTOS/Source/portable/GCC/ARM_CM4F/portmacro.h ****     participating in the support forum.
  46:Middlewares/Third_Party/FreeRTOS/Source/portable/GCC/ARM_CM4F/portmacro.h **** 
  47:Middlewares/Third_Party/FreeRTOS/Source/portable/GCC/ARM_CM4F/portmacro.h ****     http://www.FreeRTOS.org/training - Investing in training allows your team to
  48:Middlewares/Third_Party/FreeRTOS/Source/portable/GCC/ARM_CM4F/portmacro.h ****     be as productive as possible as early as possible.  Now you can receive
  49:Middlewares/Third_Party/FreeRTOS/Source/portable/GCC/ARM_CM4F/portmacro.h ****     FreeRTOS training directly from Richard Barry, CEO of Real Time Engineers
  50:Middlewares/Third_Party/FreeRTOS/Source/portable/GCC/ARM_CM4F/portmacro.h ****     Ltd, and the world's leading authority on the world's leading RTOS.
  51:Middlewares/Third_Party/FreeRTOS/Source/portable/GCC/ARM_CM4F/portmacro.h **** 
  52:Middlewares/Third_Party/FreeRTOS/Source/portable/GCC/ARM_CM4F/portmacro.h ****     http://www.FreeRTOS.org/plus - A selection of FreeRTOS ecosystem products,
  53:Middlewares/Third_Party/FreeRTOS/Source/portable/GCC/ARM_CM4F/portmacro.h ****     including FreeRTOS+Trace - an indispensable productivity tool, a DOS
  54:Middlewares/Third_Party/FreeRTOS/Source/portable/GCC/ARM_CM4F/portmacro.h ****     compatible FAT file system, and our tiny thread aware UDP/IP stack.
  55:Middlewares/Third_Party/FreeRTOS/Source/portable/GCC/ARM_CM4F/portmacro.h **** 
  56:Middlewares/Third_Party/FreeRTOS/Source/portable/GCC/ARM_CM4F/portmacro.h ****     http://www.FreeRTOS.org/labs - Where new FreeRTOS products go to incubate.
ARM GAS  /var/folders/n1/76bg37b13ls08p1dhb9rhvd40000gn/T//cchItYn0.s 			page 17


  57:Middlewares/Third_Party/FreeRTOS/Source/portable/GCC/ARM_CM4F/portmacro.h ****     Come and try FreeRTOS+TCP, our new open source TCP/IP stack for FreeRTOS.
  58:Middlewares/Third_Party/FreeRTOS/Source/portable/GCC/ARM_CM4F/portmacro.h **** 
  59:Middlewares/Third_Party/FreeRTOS/Source/portable/GCC/ARM_CM4F/portmacro.h ****     http://www.OpenRTOS.com - Real Time Engineers ltd. license FreeRTOS to High
  60:Middlewares/Third_Party/FreeRTOS/Source/portable/GCC/ARM_CM4F/portmacro.h ****     Integrity Systems ltd. to sell under the OpenRTOS brand.  Low cost OpenRTOS
  61:Middlewares/Third_Party/FreeRTOS/Source/portable/GCC/ARM_CM4F/portmacro.h ****     licenses offer ticketed support, indemnification and commercial middleware.
  62:Middlewares/Third_Party/FreeRTOS/Source/portable/GCC/ARM_CM4F/portmacro.h **** 
  63:Middlewares/Third_Party/FreeRTOS/Source/portable/GCC/ARM_CM4F/portmacro.h ****     http://www.SafeRTOS.com - High Integrity Systems also provide a safety
  64:Middlewares/Third_Party/FreeRTOS/Source/portable/GCC/ARM_CM4F/portmacro.h ****     engineered and independently SIL3 certified version for use in safety and
  65:Middlewares/Third_Party/FreeRTOS/Source/portable/GCC/ARM_CM4F/portmacro.h ****     mission critical applications that require provable dependability.
  66:Middlewares/Third_Party/FreeRTOS/Source/portable/GCC/ARM_CM4F/portmacro.h **** 
  67:Middlewares/Third_Party/FreeRTOS/Source/portable/GCC/ARM_CM4F/portmacro.h ****     1 tab == 4 spaces!
  68:Middlewares/Third_Party/FreeRTOS/Source/portable/GCC/ARM_CM4F/portmacro.h **** */
  69:Middlewares/Third_Party/FreeRTOS/Source/portable/GCC/ARM_CM4F/portmacro.h **** 
  70:Middlewares/Third_Party/FreeRTOS/Source/portable/GCC/ARM_CM4F/portmacro.h **** 
  71:Middlewares/Third_Party/FreeRTOS/Source/portable/GCC/ARM_CM4F/portmacro.h **** #ifndef PORTMACRO_H
  72:Middlewares/Third_Party/FreeRTOS/Source/portable/GCC/ARM_CM4F/portmacro.h **** #define PORTMACRO_H
  73:Middlewares/Third_Party/FreeRTOS/Source/portable/GCC/ARM_CM4F/portmacro.h **** 
  74:Middlewares/Third_Party/FreeRTOS/Source/portable/GCC/ARM_CM4F/portmacro.h **** #ifdef __cplusplus
  75:Middlewares/Third_Party/FreeRTOS/Source/portable/GCC/ARM_CM4F/portmacro.h **** extern "C" {
  76:Middlewares/Third_Party/FreeRTOS/Source/portable/GCC/ARM_CM4F/portmacro.h **** #endif
  77:Middlewares/Third_Party/FreeRTOS/Source/portable/GCC/ARM_CM4F/portmacro.h **** 
  78:Middlewares/Third_Party/FreeRTOS/Source/portable/GCC/ARM_CM4F/portmacro.h **** /*-----------------------------------------------------------
  79:Middlewares/Third_Party/FreeRTOS/Source/portable/GCC/ARM_CM4F/portmacro.h ****  * Port specific definitions.
  80:Middlewares/Third_Party/FreeRTOS/Source/portable/GCC/ARM_CM4F/portmacro.h ****  *
  81:Middlewares/Third_Party/FreeRTOS/Source/portable/GCC/ARM_CM4F/portmacro.h ****  * The settings in this file configure FreeRTOS correctly for the
  82:Middlewares/Third_Party/FreeRTOS/Source/portable/GCC/ARM_CM4F/portmacro.h ****  * given hardware and compiler.
  83:Middlewares/Third_Party/FreeRTOS/Source/portable/GCC/ARM_CM4F/portmacro.h ****  *
  84:Middlewares/Third_Party/FreeRTOS/Source/portable/GCC/ARM_CM4F/portmacro.h ****  * These settings should not be altered.
  85:Middlewares/Third_Party/FreeRTOS/Source/portable/GCC/ARM_CM4F/portmacro.h ****  *-----------------------------------------------------------
  86:Middlewares/Third_Party/FreeRTOS/Source/portable/GCC/ARM_CM4F/portmacro.h ****  */
  87:Middlewares/Third_Party/FreeRTOS/Source/portable/GCC/ARM_CM4F/portmacro.h **** 
  88:Middlewares/Third_Party/FreeRTOS/Source/portable/GCC/ARM_CM4F/portmacro.h **** /* Type definitions. */
  89:Middlewares/Third_Party/FreeRTOS/Source/portable/GCC/ARM_CM4F/portmacro.h **** #define portCHAR		char
  90:Middlewares/Third_Party/FreeRTOS/Source/portable/GCC/ARM_CM4F/portmacro.h **** #define portFLOAT		float
  91:Middlewares/Third_Party/FreeRTOS/Source/portable/GCC/ARM_CM4F/portmacro.h **** #define portDOUBLE		double
  92:Middlewares/Third_Party/FreeRTOS/Source/portable/GCC/ARM_CM4F/portmacro.h **** #define portLONG		long
  93:Middlewares/Third_Party/FreeRTOS/Source/portable/GCC/ARM_CM4F/portmacro.h **** #define portSHORT		short
  94:Middlewares/Third_Party/FreeRTOS/Source/portable/GCC/ARM_CM4F/portmacro.h **** #define portSTACK_TYPE	uint32_t
  95:Middlewares/Third_Party/FreeRTOS/Source/portable/GCC/ARM_CM4F/portmacro.h **** #define portBASE_TYPE	long
  96:Middlewares/Third_Party/FreeRTOS/Source/portable/GCC/ARM_CM4F/portmacro.h **** 
  97:Middlewares/Third_Party/FreeRTOS/Source/portable/GCC/ARM_CM4F/portmacro.h **** typedef portSTACK_TYPE StackType_t;
  98:Middlewares/Third_Party/FreeRTOS/Source/portable/GCC/ARM_CM4F/portmacro.h **** typedef long BaseType_t;
  99:Middlewares/Third_Party/FreeRTOS/Source/portable/GCC/ARM_CM4F/portmacro.h **** typedef unsigned long UBaseType_t;
 100:Middlewares/Third_Party/FreeRTOS/Source/portable/GCC/ARM_CM4F/portmacro.h **** 
 101:Middlewares/Third_Party/FreeRTOS/Source/portable/GCC/ARM_CM4F/portmacro.h **** #if( configUSE_16_BIT_TICKS == 1 )
 102:Middlewares/Third_Party/FreeRTOS/Source/portable/GCC/ARM_CM4F/portmacro.h **** 	typedef uint16_t TickType_t;
 103:Middlewares/Third_Party/FreeRTOS/Source/portable/GCC/ARM_CM4F/portmacro.h **** 	#define portMAX_DELAY ( TickType_t ) 0xffff
 104:Middlewares/Third_Party/FreeRTOS/Source/portable/GCC/ARM_CM4F/portmacro.h **** #else
 105:Middlewares/Third_Party/FreeRTOS/Source/portable/GCC/ARM_CM4F/portmacro.h **** 	typedef uint32_t TickType_t;
 106:Middlewares/Third_Party/FreeRTOS/Source/portable/GCC/ARM_CM4F/portmacro.h **** 	#define portMAX_DELAY ( TickType_t ) 0xffffffffUL
 107:Middlewares/Third_Party/FreeRTOS/Source/portable/GCC/ARM_CM4F/portmacro.h **** 
 108:Middlewares/Third_Party/FreeRTOS/Source/portable/GCC/ARM_CM4F/portmacro.h **** 	/* 32-bit tick type on a 32-bit architecture, so reads of the tick count do
 109:Middlewares/Third_Party/FreeRTOS/Source/portable/GCC/ARM_CM4F/portmacro.h **** 	not need to be guarded with a critical section. */
 110:Middlewares/Third_Party/FreeRTOS/Source/portable/GCC/ARM_CM4F/portmacro.h **** 	#define portTICK_TYPE_IS_ATOMIC 1
 111:Middlewares/Third_Party/FreeRTOS/Source/portable/GCC/ARM_CM4F/portmacro.h **** #endif
 112:Middlewares/Third_Party/FreeRTOS/Source/portable/GCC/ARM_CM4F/portmacro.h **** /*-----------------------------------------------------------*/
 113:Middlewares/Third_Party/FreeRTOS/Source/portable/GCC/ARM_CM4F/portmacro.h **** 
ARM GAS  /var/folders/n1/76bg37b13ls08p1dhb9rhvd40000gn/T//cchItYn0.s 			page 18


 114:Middlewares/Third_Party/FreeRTOS/Source/portable/GCC/ARM_CM4F/portmacro.h **** /* Architecture specifics. */
 115:Middlewares/Third_Party/FreeRTOS/Source/portable/GCC/ARM_CM4F/portmacro.h **** #define portSTACK_GROWTH			( -1 )
 116:Middlewares/Third_Party/FreeRTOS/Source/portable/GCC/ARM_CM4F/portmacro.h **** #define portTICK_PERIOD_MS			( ( TickType_t ) 1000 / configTICK_RATE_HZ )
 117:Middlewares/Third_Party/FreeRTOS/Source/portable/GCC/ARM_CM4F/portmacro.h **** #define portBYTE_ALIGNMENT			8
 118:Middlewares/Third_Party/FreeRTOS/Source/portable/GCC/ARM_CM4F/portmacro.h **** /*-----------------------------------------------------------*/
 119:Middlewares/Third_Party/FreeRTOS/Source/portable/GCC/ARM_CM4F/portmacro.h **** 
 120:Middlewares/Third_Party/FreeRTOS/Source/portable/GCC/ARM_CM4F/portmacro.h **** /* Scheduler utilities. */
 121:Middlewares/Third_Party/FreeRTOS/Source/portable/GCC/ARM_CM4F/portmacro.h **** #define portYIELD() 															\
 122:Middlewares/Third_Party/FreeRTOS/Source/portable/GCC/ARM_CM4F/portmacro.h **** {																				\
 123:Middlewares/Third_Party/FreeRTOS/Source/portable/GCC/ARM_CM4F/portmacro.h **** 	/* Set a PendSV to request a context switch. */								\
 124:Middlewares/Third_Party/FreeRTOS/Source/portable/GCC/ARM_CM4F/portmacro.h **** 	portNVIC_INT_CTRL_REG = portNVIC_PENDSVSET_BIT;								\
 125:Middlewares/Third_Party/FreeRTOS/Source/portable/GCC/ARM_CM4F/portmacro.h **** 																				\
 126:Middlewares/Third_Party/FreeRTOS/Source/portable/GCC/ARM_CM4F/portmacro.h **** 	/* Barriers are normally not required but do ensure the code is completely	\
 127:Middlewares/Third_Party/FreeRTOS/Source/portable/GCC/ARM_CM4F/portmacro.h **** 	within the specified behaviour for the architecture. */						\
 128:Middlewares/Third_Party/FreeRTOS/Source/portable/GCC/ARM_CM4F/portmacro.h **** 	__asm volatile( "dsb" );													\
 129:Middlewares/Third_Party/FreeRTOS/Source/portable/GCC/ARM_CM4F/portmacro.h **** 	__asm volatile( "isb" );													\
 130:Middlewares/Third_Party/FreeRTOS/Source/portable/GCC/ARM_CM4F/portmacro.h **** }
 131:Middlewares/Third_Party/FreeRTOS/Source/portable/GCC/ARM_CM4F/portmacro.h **** 
 132:Middlewares/Third_Party/FreeRTOS/Source/portable/GCC/ARM_CM4F/portmacro.h **** #define portNVIC_INT_CTRL_REG		( * ( ( volatile uint32_t * ) 0xe000ed04 ) )
 133:Middlewares/Third_Party/FreeRTOS/Source/portable/GCC/ARM_CM4F/portmacro.h **** #define portNVIC_PENDSVSET_BIT		( 1UL << 28UL )
 134:Middlewares/Third_Party/FreeRTOS/Source/portable/GCC/ARM_CM4F/portmacro.h **** #define portEND_SWITCHING_ISR( xSwitchRequired ) if( xSwitchRequired != pdFALSE ) portYIELD()
 135:Middlewares/Third_Party/FreeRTOS/Source/portable/GCC/ARM_CM4F/portmacro.h **** #define portYIELD_FROM_ISR( x ) portEND_SWITCHING_ISR( x )
 136:Middlewares/Third_Party/FreeRTOS/Source/portable/GCC/ARM_CM4F/portmacro.h **** /*-----------------------------------------------------------*/
 137:Middlewares/Third_Party/FreeRTOS/Source/portable/GCC/ARM_CM4F/portmacro.h **** 
 138:Middlewares/Third_Party/FreeRTOS/Source/portable/GCC/ARM_CM4F/portmacro.h **** /* Critical section management. */
 139:Middlewares/Third_Party/FreeRTOS/Source/portable/GCC/ARM_CM4F/portmacro.h **** extern void vPortEnterCritical( void );
 140:Middlewares/Third_Party/FreeRTOS/Source/portable/GCC/ARM_CM4F/portmacro.h **** extern void vPortExitCritical( void );
 141:Middlewares/Third_Party/FreeRTOS/Source/portable/GCC/ARM_CM4F/portmacro.h **** #define portSET_INTERRUPT_MASK_FROM_ISR()		ulPortRaiseBASEPRI()
 142:Middlewares/Third_Party/FreeRTOS/Source/portable/GCC/ARM_CM4F/portmacro.h **** #define portCLEAR_INTERRUPT_MASK_FROM_ISR(x)	vPortSetBASEPRI(x)
 143:Middlewares/Third_Party/FreeRTOS/Source/portable/GCC/ARM_CM4F/portmacro.h **** #define portDISABLE_INTERRUPTS()				vPortRaiseBASEPRI()
 144:Middlewares/Third_Party/FreeRTOS/Source/portable/GCC/ARM_CM4F/portmacro.h **** #define portENABLE_INTERRUPTS()					vPortSetBASEPRI(0)
 145:Middlewares/Third_Party/FreeRTOS/Source/portable/GCC/ARM_CM4F/portmacro.h **** #define portENTER_CRITICAL()					vPortEnterCritical()
 146:Middlewares/Third_Party/FreeRTOS/Source/portable/GCC/ARM_CM4F/portmacro.h **** #define portEXIT_CRITICAL()						vPortExitCritical()
 147:Middlewares/Third_Party/FreeRTOS/Source/portable/GCC/ARM_CM4F/portmacro.h **** 
 148:Middlewares/Third_Party/FreeRTOS/Source/portable/GCC/ARM_CM4F/portmacro.h **** /*-----------------------------------------------------------*/
 149:Middlewares/Third_Party/FreeRTOS/Source/portable/GCC/ARM_CM4F/portmacro.h **** 
 150:Middlewares/Third_Party/FreeRTOS/Source/portable/GCC/ARM_CM4F/portmacro.h **** /* Task function macros as described on the FreeRTOS.org WEB site.  These are
 151:Middlewares/Third_Party/FreeRTOS/Source/portable/GCC/ARM_CM4F/portmacro.h **** not necessary for to use this port.  They are defined so the common demo files
 152:Middlewares/Third_Party/FreeRTOS/Source/portable/GCC/ARM_CM4F/portmacro.h **** (which build with all the ports) will build. */
 153:Middlewares/Third_Party/FreeRTOS/Source/portable/GCC/ARM_CM4F/portmacro.h **** #define portTASK_FUNCTION_PROTO( vFunction, pvParameters ) void vFunction( void *pvParameters )
 154:Middlewares/Third_Party/FreeRTOS/Source/portable/GCC/ARM_CM4F/portmacro.h **** #define portTASK_FUNCTION( vFunction, pvParameters ) void vFunction( void *pvParameters )
 155:Middlewares/Third_Party/FreeRTOS/Source/portable/GCC/ARM_CM4F/portmacro.h **** /*-----------------------------------------------------------*/
 156:Middlewares/Third_Party/FreeRTOS/Source/portable/GCC/ARM_CM4F/portmacro.h **** 
 157:Middlewares/Third_Party/FreeRTOS/Source/portable/GCC/ARM_CM4F/portmacro.h **** /* Tickless idle/low power functionality. */
 158:Middlewares/Third_Party/FreeRTOS/Source/portable/GCC/ARM_CM4F/portmacro.h **** #ifndef portSUPPRESS_TICKS_AND_SLEEP
 159:Middlewares/Third_Party/FreeRTOS/Source/portable/GCC/ARM_CM4F/portmacro.h **** 	extern void vPortSuppressTicksAndSleep( TickType_t xExpectedIdleTime );
 160:Middlewares/Third_Party/FreeRTOS/Source/portable/GCC/ARM_CM4F/portmacro.h **** 	#define portSUPPRESS_TICKS_AND_SLEEP( xExpectedIdleTime ) vPortSuppressTicksAndSleep( xExpectedIdl
 161:Middlewares/Third_Party/FreeRTOS/Source/portable/GCC/ARM_CM4F/portmacro.h **** #endif
 162:Middlewares/Third_Party/FreeRTOS/Source/portable/GCC/ARM_CM4F/portmacro.h **** /*-----------------------------------------------------------*/
 163:Middlewares/Third_Party/FreeRTOS/Source/portable/GCC/ARM_CM4F/portmacro.h **** 
 164:Middlewares/Third_Party/FreeRTOS/Source/portable/GCC/ARM_CM4F/portmacro.h **** /* Architecture specific optimisations. */
 165:Middlewares/Third_Party/FreeRTOS/Source/portable/GCC/ARM_CM4F/portmacro.h **** #ifndef configUSE_PORT_OPTIMISED_TASK_SELECTION
 166:Middlewares/Third_Party/FreeRTOS/Source/portable/GCC/ARM_CM4F/portmacro.h **** 	#define configUSE_PORT_OPTIMISED_TASK_SELECTION 1
 167:Middlewares/Third_Party/FreeRTOS/Source/portable/GCC/ARM_CM4F/portmacro.h **** #endif
 168:Middlewares/Third_Party/FreeRTOS/Source/portable/GCC/ARM_CM4F/portmacro.h **** 
 169:Middlewares/Third_Party/FreeRTOS/Source/portable/GCC/ARM_CM4F/portmacro.h **** #if configUSE_PORT_OPTIMISED_TASK_SELECTION == 1
 170:Middlewares/Third_Party/FreeRTOS/Source/portable/GCC/ARM_CM4F/portmacro.h **** 
ARM GAS  /var/folders/n1/76bg37b13ls08p1dhb9rhvd40000gn/T//cchItYn0.s 			page 19


 171:Middlewares/Third_Party/FreeRTOS/Source/portable/GCC/ARM_CM4F/portmacro.h **** 	/* Generic helper function. */
 172:Middlewares/Third_Party/FreeRTOS/Source/portable/GCC/ARM_CM4F/portmacro.h **** 	__attribute__( ( always_inline ) ) static inline uint8_t ucPortCountLeadingZeros( uint32_t ulBitma
 173:Middlewares/Third_Party/FreeRTOS/Source/portable/GCC/ARM_CM4F/portmacro.h **** 	{
 174:Middlewares/Third_Party/FreeRTOS/Source/portable/GCC/ARM_CM4F/portmacro.h **** 	uint8_t ucReturn;
 175:Middlewares/Third_Party/FreeRTOS/Source/portable/GCC/ARM_CM4F/portmacro.h **** 
 176:Middlewares/Third_Party/FreeRTOS/Source/portable/GCC/ARM_CM4F/portmacro.h **** 		__asm volatile ( "clz %0, %1" : "=r" ( ucReturn ) : "r" ( ulBitmap ) );
 177:Middlewares/Third_Party/FreeRTOS/Source/portable/GCC/ARM_CM4F/portmacro.h **** 		return ucReturn;
 178:Middlewares/Third_Party/FreeRTOS/Source/portable/GCC/ARM_CM4F/portmacro.h **** 	}
 179:Middlewares/Third_Party/FreeRTOS/Source/portable/GCC/ARM_CM4F/portmacro.h **** 
 180:Middlewares/Third_Party/FreeRTOS/Source/portable/GCC/ARM_CM4F/portmacro.h **** 	/* Check the configuration. */
 181:Middlewares/Third_Party/FreeRTOS/Source/portable/GCC/ARM_CM4F/portmacro.h **** 	#if( configMAX_PRIORITIES > 32 )
 182:Middlewares/Third_Party/FreeRTOS/Source/portable/GCC/ARM_CM4F/portmacro.h **** 		#error configUSE_PORT_OPTIMISED_TASK_SELECTION can only be set to 1 when configMAX_PRIORITIES is 
 183:Middlewares/Third_Party/FreeRTOS/Source/portable/GCC/ARM_CM4F/portmacro.h **** 	#endif
 184:Middlewares/Third_Party/FreeRTOS/Source/portable/GCC/ARM_CM4F/portmacro.h **** 
 185:Middlewares/Third_Party/FreeRTOS/Source/portable/GCC/ARM_CM4F/portmacro.h **** 	/* Store/clear the ready priorities in a bit map. */
 186:Middlewares/Third_Party/FreeRTOS/Source/portable/GCC/ARM_CM4F/portmacro.h **** 	#define portRECORD_READY_PRIORITY( uxPriority, uxReadyPriorities ) ( uxReadyPriorities ) |= ( 1UL 
 187:Middlewares/Third_Party/FreeRTOS/Source/portable/GCC/ARM_CM4F/portmacro.h **** 	#define portRESET_READY_PRIORITY( uxPriority, uxReadyPriorities ) ( uxReadyPriorities ) &= ~( 1UL 
 188:Middlewares/Third_Party/FreeRTOS/Source/portable/GCC/ARM_CM4F/portmacro.h **** 
 189:Middlewares/Third_Party/FreeRTOS/Source/portable/GCC/ARM_CM4F/portmacro.h **** 	/*-----------------------------------------------------------*/
 190:Middlewares/Third_Party/FreeRTOS/Source/portable/GCC/ARM_CM4F/portmacro.h **** 
 191:Middlewares/Third_Party/FreeRTOS/Source/portable/GCC/ARM_CM4F/portmacro.h **** 	#define portGET_HIGHEST_PRIORITY( uxTopPriority, uxReadyPriorities ) uxTopPriority = ( 31UL - ( ui
 192:Middlewares/Third_Party/FreeRTOS/Source/portable/GCC/ARM_CM4F/portmacro.h **** 
 193:Middlewares/Third_Party/FreeRTOS/Source/portable/GCC/ARM_CM4F/portmacro.h **** #endif /* configUSE_PORT_OPTIMISED_TASK_SELECTION */
 194:Middlewares/Third_Party/FreeRTOS/Source/portable/GCC/ARM_CM4F/portmacro.h **** 
 195:Middlewares/Third_Party/FreeRTOS/Source/portable/GCC/ARM_CM4F/portmacro.h **** /*-----------------------------------------------------------*/
 196:Middlewares/Third_Party/FreeRTOS/Source/portable/GCC/ARM_CM4F/portmacro.h **** 
 197:Middlewares/Third_Party/FreeRTOS/Source/portable/GCC/ARM_CM4F/portmacro.h **** #ifdef configASSERT
 198:Middlewares/Third_Party/FreeRTOS/Source/portable/GCC/ARM_CM4F/portmacro.h **** 	void vPortValidateInterruptPriority( void );
 199:Middlewares/Third_Party/FreeRTOS/Source/portable/GCC/ARM_CM4F/portmacro.h **** 	#define portASSERT_IF_INTERRUPT_PRIORITY_INVALID() 	vPortValidateInterruptPriority()
 200:Middlewares/Third_Party/FreeRTOS/Source/portable/GCC/ARM_CM4F/portmacro.h **** #endif
 201:Middlewares/Third_Party/FreeRTOS/Source/portable/GCC/ARM_CM4F/portmacro.h **** 
 202:Middlewares/Third_Party/FreeRTOS/Source/portable/GCC/ARM_CM4F/portmacro.h **** /* portNOP() is not required by this port. */
 203:Middlewares/Third_Party/FreeRTOS/Source/portable/GCC/ARM_CM4F/portmacro.h **** #define portNOP()
 204:Middlewares/Third_Party/FreeRTOS/Source/portable/GCC/ARM_CM4F/portmacro.h **** 
 205:Middlewares/Third_Party/FreeRTOS/Source/portable/GCC/ARM_CM4F/portmacro.h **** #define portINLINE	__inline
 206:Middlewares/Third_Party/FreeRTOS/Source/portable/GCC/ARM_CM4F/portmacro.h **** 
 207:Middlewares/Third_Party/FreeRTOS/Source/portable/GCC/ARM_CM4F/portmacro.h **** #ifndef portFORCE_INLINE
 208:Middlewares/Third_Party/FreeRTOS/Source/portable/GCC/ARM_CM4F/portmacro.h **** 	#define portFORCE_INLINE inline __attribute__(( always_inline))
 209:Middlewares/Third_Party/FreeRTOS/Source/portable/GCC/ARM_CM4F/portmacro.h **** #endif
 210:Middlewares/Third_Party/FreeRTOS/Source/portable/GCC/ARM_CM4F/portmacro.h **** 
 211:Middlewares/Third_Party/FreeRTOS/Source/portable/GCC/ARM_CM4F/portmacro.h **** portFORCE_INLINE static BaseType_t xPortIsInsideInterrupt( void )
 212:Middlewares/Third_Party/FreeRTOS/Source/portable/GCC/ARM_CM4F/portmacro.h **** {
 213:Middlewares/Third_Party/FreeRTOS/Source/portable/GCC/ARM_CM4F/portmacro.h **** uint32_t ulCurrentInterrupt;
 214:Middlewares/Third_Party/FreeRTOS/Source/portable/GCC/ARM_CM4F/portmacro.h **** BaseType_t xReturn;
 215:Middlewares/Third_Party/FreeRTOS/Source/portable/GCC/ARM_CM4F/portmacro.h **** 
 216:Middlewares/Third_Party/FreeRTOS/Source/portable/GCC/ARM_CM4F/portmacro.h **** 	/* Obtain the number of the currently executing interrupt. */
 217:Middlewares/Third_Party/FreeRTOS/Source/portable/GCC/ARM_CM4F/portmacro.h **** 	__asm volatile( "mrs %0, ipsr" : "=r"( ulCurrentInterrupt ) );
 218:Middlewares/Third_Party/FreeRTOS/Source/portable/GCC/ARM_CM4F/portmacro.h **** 
 219:Middlewares/Third_Party/FreeRTOS/Source/portable/GCC/ARM_CM4F/portmacro.h **** 	if( ulCurrentInterrupt == 0 )
 220:Middlewares/Third_Party/FreeRTOS/Source/portable/GCC/ARM_CM4F/portmacro.h **** 	{
 221:Middlewares/Third_Party/FreeRTOS/Source/portable/GCC/ARM_CM4F/portmacro.h **** 		xReturn = pdFALSE;
 222:Middlewares/Third_Party/FreeRTOS/Source/portable/GCC/ARM_CM4F/portmacro.h **** 	}
 223:Middlewares/Third_Party/FreeRTOS/Source/portable/GCC/ARM_CM4F/portmacro.h **** 	else
 224:Middlewares/Third_Party/FreeRTOS/Source/portable/GCC/ARM_CM4F/portmacro.h **** 	{
 225:Middlewares/Third_Party/FreeRTOS/Source/portable/GCC/ARM_CM4F/portmacro.h **** 		xReturn = pdTRUE;
 226:Middlewares/Third_Party/FreeRTOS/Source/portable/GCC/ARM_CM4F/portmacro.h **** 	}
 227:Middlewares/Third_Party/FreeRTOS/Source/portable/GCC/ARM_CM4F/portmacro.h **** 
ARM GAS  /var/folders/n1/76bg37b13ls08p1dhb9rhvd40000gn/T//cchItYn0.s 			page 20


 228:Middlewares/Third_Party/FreeRTOS/Source/portable/GCC/ARM_CM4F/portmacro.h **** 	return xReturn;
 229:Middlewares/Third_Party/FreeRTOS/Source/portable/GCC/ARM_CM4F/portmacro.h **** }
 230:Middlewares/Third_Party/FreeRTOS/Source/portable/GCC/ARM_CM4F/portmacro.h **** 
 231:Middlewares/Third_Party/FreeRTOS/Source/portable/GCC/ARM_CM4F/portmacro.h **** /*-----------------------------------------------------------*/
 232:Middlewares/Third_Party/FreeRTOS/Source/portable/GCC/ARM_CM4F/portmacro.h **** 
 233:Middlewares/Third_Party/FreeRTOS/Source/portable/GCC/ARM_CM4F/portmacro.h **** portFORCE_INLINE static void vPortRaiseBASEPRI( void )
 343              		.loc 2 233 30 view .LVU118
 344              	.LBB13:
 234:Middlewares/Third_Party/FreeRTOS/Source/portable/GCC/ARM_CM4F/portmacro.h **** {
 235:Middlewares/Third_Party/FreeRTOS/Source/portable/GCC/ARM_CM4F/portmacro.h **** uint32_t ulNewBASEPRI;
 345              		.loc 2 235 1 view .LVU119
 236:Middlewares/Third_Party/FreeRTOS/Source/portable/GCC/ARM_CM4F/portmacro.h **** 
 237:Middlewares/Third_Party/FreeRTOS/Source/portable/GCC/ARM_CM4F/portmacro.h **** 	__asm volatile
 346              		.loc 2 237 2 view .LVU120
 347              		.syntax unified
 348              	@ 237 "Middlewares/Third_Party/FreeRTOS/Source/portable/GCC/ARM_CM4F/portmacro.h" 1
 349 002c 4FF05003 			mov r3, #80												
 350 0030 83F31188 		msr basepri, r3											
 351 0034 BFF36F8F 		isb														
 352 0038 BFF34F8F 		dsb														
 353              	
 354              	@ 0 "" 2
 355              	.LVL29:
 356              		.thumb
 357              		.syntax unified
 358              	.L23:
 359              		.loc 2 237 2 is_stmt 0 view .LVU121
 360              	.LBE13:
 361              	.LBE12:
 191:Middlewares/Third_Party/FreeRTOS/Source/portable/MemMang/heap_4.c **** 				}
 362              		.loc 1 191 6 is_stmt 1 discriminator 1 view .LVU122
 191:Middlewares/Third_Party/FreeRTOS/Source/portable/MemMang/heap_4.c **** 				}
 363              		.loc 1 191 6 discriminator 1 view .LVU123
 364 003c FEE7     		b	.L23
 365              	.L38:
 166:Middlewares/Third_Party/FreeRTOS/Source/portable/MemMang/heap_4.c **** 		}
 366              		.loc 1 166 4 view .LVU124
 367 003e FFF7FEFF 		bl	prvHeapInit
 368              	.LVL30:
 369 0042 E4E7     		b	.L20
 370              	.L22:
 200:Middlewares/Third_Party/FreeRTOS/Source/portable/MemMang/heap_4.c **** 			}
 371              		.loc 1 200 29 view .LVU125
 203:Middlewares/Third_Party/FreeRTOS/Source/portable/MemMang/heap_4.c **** 			{
 372              		.loc 1 203 4 view .LVU126
 203:Middlewares/Third_Party/FreeRTOS/Source/portable/MemMang/heap_4.c **** 			{
 373              		.loc 1 203 6 is_stmt 0 view .LVU127
 374 0044 002C     		cmp	r4, #0
 375 0046 3FD0     		beq	.L33
 203:Middlewares/Third_Party/FreeRTOS/Source/portable/MemMang/heap_4.c **** 			{
 376              		.loc 1 203 45 discriminator 1 view .LVU128
 377 0048 2C4B     		ldr	r3, .L39+8
 378 004a 1B68     		ldr	r3, [r3]
 203:Middlewares/Third_Party/FreeRTOS/Source/portable/MemMang/heap_4.c **** 			{
 379              		.loc 1 203 28 discriminator 1 view .LVU129
 380 004c A342     		cmp	r3, r4
 381 004e 4AD3     		bcc	.L34
ARM GAS  /var/folders/n1/76bg37b13ls08p1dhb9rhvd40000gn/T//cchItYn0.s 			page 21


 207:Middlewares/Third_Party/FreeRTOS/Source/portable/MemMang/heap_4.c **** 				pxBlock = xStart.pxNextFreeBlock;
 382              		.loc 1 207 5 is_stmt 1 view .LVU130
 383              	.LVL31:
 208:Middlewares/Third_Party/FreeRTOS/Source/portable/MemMang/heap_4.c **** 				while( ( pxBlock->xBlockSize < xWantedSize ) && ( pxBlock->pxNextFreeBlock != NULL ) )
 384              		.loc 1 208 5 view .LVU131
 208:Middlewares/Third_Party/FreeRTOS/Source/portable/MemMang/heap_4.c **** 				while( ( pxBlock->xBlockSize < xWantedSize ) && ( pxBlock->pxNextFreeBlock != NULL ) )
 385              		.loc 1 208 13 is_stmt 0 view .LVU132
 386 0050 2B4B     		ldr	r3, .L39+12
 387 0052 1D68     		ldr	r5, [r3]
 388              	.LVL32:
 209:Middlewares/Third_Party/FreeRTOS/Source/portable/MemMang/heap_4.c **** 				{
 389              		.loc 1 209 5 is_stmt 1 view .LVU133
 209:Middlewares/Third_Party/FreeRTOS/Source/portable/MemMang/heap_4.c **** 				{
 390              		.loc 1 209 10 is_stmt 0 view .LVU134
 391 0054 01E0     		b	.L25
 392              	.LVL33:
 393              	.L35:
 211:Middlewares/Third_Party/FreeRTOS/Source/portable/MemMang/heap_4.c **** 					pxBlock = pxBlock->pxNextFreeBlock;
 394              		.loc 1 211 22 view .LVU135
 395 0056 2B46     		mov	r3, r5
 396              	.LVL34:
 212:Middlewares/Third_Party/FreeRTOS/Source/portable/MemMang/heap_4.c **** 				}
 397              		.loc 1 212 14 view .LVU136
 398 0058 1546     		mov	r5, r2
 399              	.LVL35:
 400              	.L25:
 209:Middlewares/Third_Party/FreeRTOS/Source/portable/MemMang/heap_4.c **** 				{
 401              		.loc 1 209 21 view .LVU137
 402 005a 6A68     		ldr	r2, [r5, #4]
 209:Middlewares/Third_Party/FreeRTOS/Source/portable/MemMang/heap_4.c **** 				{
 403              		.loc 1 209 10 view .LVU138
 404 005c A242     		cmp	r2, r4
 405 005e 02D2     		bcs	.L24
 209:Middlewares/Third_Party/FreeRTOS/Source/portable/MemMang/heap_4.c **** 				{
 406              		.loc 1 209 62 discriminator 1 view .LVU139
 407 0060 2A68     		ldr	r2, [r5]
 209:Middlewares/Third_Party/FreeRTOS/Source/portable/MemMang/heap_4.c **** 				{
 408              		.loc 1 209 50 discriminator 1 view .LVU140
 409 0062 002A     		cmp	r2, #0
 410 0064 F7D1     		bne	.L35
 411              	.L24:
 217:Middlewares/Third_Party/FreeRTOS/Source/portable/MemMang/heap_4.c **** 				{
 412              		.loc 1 217 5 is_stmt 1 view .LVU141
 217:Middlewares/Third_Party/FreeRTOS/Source/portable/MemMang/heap_4.c **** 				{
 413              		.loc 1 217 17 is_stmt 0 view .LVU142
 414 0066 234A     		ldr	r2, .L39
 415 0068 1268     		ldr	r2, [r2]
 217:Middlewares/Third_Party/FreeRTOS/Source/portable/MemMang/heap_4.c **** 				{
 416              		.loc 1 217 7 view .LVU143
 417 006a AA42     		cmp	r2, r5
 418 006c 3DD0     		beq	.L36
 221:Middlewares/Third_Party/FreeRTOS/Source/portable/MemMang/heap_4.c **** 
 419              		.loc 1 221 6 is_stmt 1 view .LVU144
 221:Middlewares/Third_Party/FreeRTOS/Source/portable/MemMang/heap_4.c **** 
 420              		.loc 1 221 61 is_stmt 0 view .LVU145
 421 006e 1E68     		ldr	r6, [r3]
 221:Middlewares/Third_Party/FreeRTOS/Source/portable/MemMang/heap_4.c **** 
ARM GAS  /var/folders/n1/76bg37b13ls08p1dhb9rhvd40000gn/T//cchItYn0.s 			page 22


 422              		.loc 1 221 15 view .LVU146
 423 0070 0836     		adds	r6, r6, #8
 424              	.LVL36:
 225:Middlewares/Third_Party/FreeRTOS/Source/portable/MemMang/heap_4.c **** 
 425              		.loc 1 225 6 is_stmt 1 view .LVU147
 225:Middlewares/Third_Party/FreeRTOS/Source/portable/MemMang/heap_4.c **** 
 426              		.loc 1 225 48 is_stmt 0 view .LVU148
 427 0072 2A68     		ldr	r2, [r5]
 225:Middlewares/Third_Party/FreeRTOS/Source/portable/MemMang/heap_4.c **** 
 428              		.loc 1 225 39 view .LVU149
 429 0074 1A60     		str	r2, [r3]
 229:Middlewares/Third_Party/FreeRTOS/Source/portable/MemMang/heap_4.c **** 					{
 430              		.loc 1 229 6 is_stmt 1 view .LVU150
 229:Middlewares/Third_Party/FreeRTOS/Source/portable/MemMang/heap_4.c **** 					{
 431              		.loc 1 229 19 is_stmt 0 view .LVU151
 432 0076 6B68     		ldr	r3, [r5, #4]
 433              	.LVL37:
 229:Middlewares/Third_Party/FreeRTOS/Source/portable/MemMang/heap_4.c **** 					{
 434              		.loc 1 229 32 view .LVU152
 435 0078 1B1B     		subs	r3, r3, r4
 229:Middlewares/Third_Party/FreeRTOS/Source/portable/MemMang/heap_4.c **** 					{
 436              		.loc 1 229 8 view .LVU153
 437 007a 102B     		cmp	r3, #16
 438 007c 10D9     		bls	.L26
 235:Middlewares/Third_Party/FreeRTOS/Source/portable/MemMang/heap_4.c **** 						configASSERT( ( ( ( size_t ) pxNewBlockLink ) & portBYTE_ALIGNMENT_MASK ) == 0 );
 439              		.loc 1 235 7 is_stmt 1 view .LVU154
 235:Middlewares/Third_Party/FreeRTOS/Source/portable/MemMang/heap_4.c **** 						configASSERT( ( ( ( size_t ) pxNewBlockLink ) & portBYTE_ALIGNMENT_MASK ) == 0 );
 440              		.loc 1 235 22 is_stmt 0 view .LVU155
 441 007e 2819     		adds	r0, r5, r4
 442              	.LVL38:
 236:Middlewares/Third_Party/FreeRTOS/Source/portable/MemMang/heap_4.c **** 
 443              		.loc 1 236 7 is_stmt 1 view .LVU156
 444 0080 10F0070F 		tst	r0, #7
 445 0084 08D0     		beq	.L27
 236:Middlewares/Third_Party/FreeRTOS/Source/portable/MemMang/heap_4.c **** 
 446              		.loc 1 236 7 view .LVU157
 447              	.LBB14:
 448              	.LBI14:
 233:Middlewares/Third_Party/FreeRTOS/Source/portable/GCC/ARM_CM4F/portmacro.h **** {
 449              		.loc 2 233 30 view .LVU158
 450              	.LBB15:
 235:Middlewares/Third_Party/FreeRTOS/Source/portable/GCC/ARM_CM4F/portmacro.h **** 
 451              		.loc 2 235 1 view .LVU159
 452              		.loc 2 237 2 view .LVU160
 453              		.syntax unified
 454              	@ 237 "Middlewares/Third_Party/FreeRTOS/Source/portable/GCC/ARM_CM4F/portmacro.h" 1
 455 0086 4FF05003 			mov r3, #80												
 456 008a 83F31188 		msr basepri, r3											
 457 008e BFF36F8F 		isb														
 458 0092 BFF34F8F 		dsb														
 459              	
 460              	@ 0 "" 2
 461              	.LVL39:
 462              		.thumb
 463              		.syntax unified
 464              	.L28:
 465              		.loc 2 237 2 is_stmt 0 view .LVU161
ARM GAS  /var/folders/n1/76bg37b13ls08p1dhb9rhvd40000gn/T//cchItYn0.s 			page 23


 466              	.LBE15:
 467              	.LBE14:
 236:Middlewares/Third_Party/FreeRTOS/Source/portable/MemMang/heap_4.c **** 
 468              		.loc 1 236 7 is_stmt 1 discriminator 3 view .LVU162
 236:Middlewares/Third_Party/FreeRTOS/Source/portable/MemMang/heap_4.c **** 
 469              		.loc 1 236 7 discriminator 3 view .LVU163
 470 0096 FEE7     		b	.L28
 471              	.L27:
 236:Middlewares/Third_Party/FreeRTOS/Source/portable/MemMang/heap_4.c **** 
 472              		.loc 1 236 87 discriminator 2 view .LVU164
 240:Middlewares/Third_Party/FreeRTOS/Source/portable/MemMang/heap_4.c **** 						pxBlock->xBlockSize = xWantedSize;
 473              		.loc 1 240 7 discriminator 2 view .LVU165
 240:Middlewares/Third_Party/FreeRTOS/Source/portable/MemMang/heap_4.c **** 						pxBlock->xBlockSize = xWantedSize;
 474              		.loc 1 240 34 is_stmt 0 discriminator 2 view .LVU166
 475 0098 4360     		str	r3, [r0, #4]
 241:Middlewares/Third_Party/FreeRTOS/Source/portable/MemMang/heap_4.c **** 
 476              		.loc 1 241 7 is_stmt 1 discriminator 2 view .LVU167
 241:Middlewares/Third_Party/FreeRTOS/Source/portable/MemMang/heap_4.c **** 
 477              		.loc 1 241 27 is_stmt 0 discriminator 2 view .LVU168
 478 009a 6C60     		str	r4, [r5, #4]
 244:Middlewares/Third_Party/FreeRTOS/Source/portable/MemMang/heap_4.c **** 					}
 479              		.loc 1 244 7 is_stmt 1 discriminator 2 view .LVU169
 480 009c FFF7FEFF 		bl	prvInsertBlockIntoFreeList
 481              	.LVL40:
 482              	.L26:
 248:Middlewares/Third_Party/FreeRTOS/Source/portable/MemMang/heap_4.c **** 					}
 483              		.loc 1 248 31 view .LVU170
 251:Middlewares/Third_Party/FreeRTOS/Source/portable/MemMang/heap_4.c **** 
 484              		.loc 1 251 6 view .LVU171
 251:Middlewares/Third_Party/FreeRTOS/Source/portable/MemMang/heap_4.c **** 
 485              		.loc 1 251 36 is_stmt 0 view .LVU172
 486 00a0 6A68     		ldr	r2, [r5, #4]
 251:Middlewares/Third_Party/FreeRTOS/Source/portable/MemMang/heap_4.c **** 
 487              		.loc 1 251 26 view .LVU173
 488 00a2 1649     		ldr	r1, .L39+8
 489 00a4 0B68     		ldr	r3, [r1]
 490 00a6 9B1A     		subs	r3, r3, r2
 491 00a8 0B60     		str	r3, [r1]
 253:Middlewares/Third_Party/FreeRTOS/Source/portable/MemMang/heap_4.c **** 					{
 492              		.loc 1 253 6 is_stmt 1 view .LVU174
 253:Middlewares/Third_Party/FreeRTOS/Source/portable/MemMang/heap_4.c **** 					{
 493              		.loc 1 253 30 is_stmt 0 view .LVU175
 494 00aa 1649     		ldr	r1, .L39+16
 495 00ac 0968     		ldr	r1, [r1]
 253:Middlewares/Third_Party/FreeRTOS/Source/portable/MemMang/heap_4.c **** 					{
 496              		.loc 1 253 8 view .LVU176
 497 00ae 8B42     		cmp	r3, r1
 498 00b0 01D2     		bcs	.L29
 255:Middlewares/Third_Party/FreeRTOS/Source/portable/MemMang/heap_4.c **** 					}
 499              		.loc 1 255 7 is_stmt 1 view .LVU177
 255:Middlewares/Third_Party/FreeRTOS/Source/portable/MemMang/heap_4.c **** 					}
 500              		.loc 1 255 38 is_stmt 0 view .LVU178
 501 00b2 1449     		ldr	r1, .L39+16
 502 00b4 0B60     		str	r3, [r1]
 503              	.L29:
 259:Middlewares/Third_Party/FreeRTOS/Source/portable/MemMang/heap_4.c **** 					}
 504              		.loc 1 259 31 is_stmt 1 view .LVU179
ARM GAS  /var/folders/n1/76bg37b13ls08p1dhb9rhvd40000gn/T//cchItYn0.s 			page 24


 264:Middlewares/Third_Party/FreeRTOS/Source/portable/MemMang/heap_4.c **** 					pxBlock->pxNextFreeBlock = NULL;
 505              		.loc 1 264 6 view .LVU180
 264:Middlewares/Third_Party/FreeRTOS/Source/portable/MemMang/heap_4.c **** 					pxBlock->pxNextFreeBlock = NULL;
 506              		.loc 1 264 26 is_stmt 0 view .LVU181
 507 00b6 104B     		ldr	r3, .L39+4
 508 00b8 1B68     		ldr	r3, [r3]
 509 00ba 1343     		orrs	r3, r3, r2
 510 00bc 6B60     		str	r3, [r5, #4]
 265:Middlewares/Third_Party/FreeRTOS/Source/portable/MemMang/heap_4.c **** 				}
 511              		.loc 1 265 6 is_stmt 1 view .LVU182
 265:Middlewares/Third_Party/FreeRTOS/Source/portable/MemMang/heap_4.c **** 				}
 512              		.loc 1 265 31 is_stmt 0 view .LVU183
 513 00be 0023     		movs	r3, #0
 514 00c0 2B60     		str	r3, [r5]
 515 00c2 02E0     		b	.L21
 516              	.LVL41:
 517              	.L32:
 158:Middlewares/Third_Party/FreeRTOS/Source/portable/MemMang/heap_4.c **** 
 518              		.loc 1 158 7 view .LVU184
 519 00c4 0026     		movs	r6, #0
 520 00c6 00E0     		b	.L21
 521              	.L33:
 158:Middlewares/Third_Party/FreeRTOS/Source/portable/MemMang/heap_4.c **** 
 522              		.loc 1 158 7 view .LVU185
 523 00c8 0026     		movs	r6, #0
 524              	.LVL42:
 525              	.L21:
 279:Middlewares/Third_Party/FreeRTOS/Source/portable/MemMang/heap_4.c **** 		}
 526              		.loc 1 279 28 is_stmt 1 view .LVU186
 282:Middlewares/Third_Party/FreeRTOS/Source/portable/MemMang/heap_4.c **** 	}
 527              		.loc 1 282 39 view .LVU187
 284:Middlewares/Third_Party/FreeRTOS/Source/portable/MemMang/heap_4.c **** 
 528              		.loc 1 284 2 view .LVU188
 284:Middlewares/Third_Party/FreeRTOS/Source/portable/MemMang/heap_4.c **** 
 529              		.loc 1 284 11 is_stmt 0 view .LVU189
 530 00ca FFF7FEFF 		bl	xTaskResumeAll
 531              	.LVL43:
 300:Middlewares/Third_Party/FreeRTOS/Source/portable/MemMang/heap_4.c **** 	return pvReturn;
 532              		.loc 1 300 2 is_stmt 1 view .LVU190
 533 00ce 16F0070F 		tst	r6, #7
 534 00d2 0CD0     		beq	.L19
 300:Middlewares/Third_Party/FreeRTOS/Source/portable/MemMang/heap_4.c **** 	return pvReturn;
 535              		.loc 1 300 2 view .LVU191
 536              	.LBB16:
 537              	.LBI16:
 233:Middlewares/Third_Party/FreeRTOS/Source/portable/GCC/ARM_CM4F/portmacro.h **** {
 538              		.loc 2 233 30 view .LVU192
 539              	.LBB17:
 235:Middlewares/Third_Party/FreeRTOS/Source/portable/GCC/ARM_CM4F/portmacro.h **** 
 540              		.loc 2 235 1 view .LVU193
 541              		.loc 2 237 2 view .LVU194
 542              		.syntax unified
 543              	@ 237 "Middlewares/Third_Party/FreeRTOS/Source/portable/GCC/ARM_CM4F/portmacro.h" 1
 544 00d4 4FF05003 			mov r3, #80												
 545 00d8 83F31188 		msr basepri, r3											
 546 00dc BFF36F8F 		isb														
 547 00e0 BFF34F8F 		dsb														
ARM GAS  /var/folders/n1/76bg37b13ls08p1dhb9rhvd40000gn/T//cchItYn0.s 			page 25


 548              	
 549              	@ 0 "" 2
 550              	.LVL44:
 551              		.thumb
 552              		.syntax unified
 553              	.L31:
 554              		.loc 2 237 2 is_stmt 0 view .LVU195
 555              	.LBE17:
 556              	.LBE16:
 300:Middlewares/Third_Party/FreeRTOS/Source/portable/MemMang/heap_4.c **** 	return pvReturn;
 557              		.loc 1 300 2 is_stmt 1 discriminator 5 view .LVU196
 300:Middlewares/Third_Party/FreeRTOS/Source/portable/MemMang/heap_4.c **** 	return pvReturn;
 558              		.loc 1 300 2 discriminator 5 view .LVU197
 559 00e4 FEE7     		b	.L31
 560              	.LVL45:
 561              	.L34:
 158:Middlewares/Third_Party/FreeRTOS/Source/portable/MemMang/heap_4.c **** 
 562              		.loc 1 158 7 is_stmt 0 view .LVU198
 563 00e6 0026     		movs	r6, #0
 564 00e8 EFE7     		b	.L21
 565              	.LVL46:
 566              	.L36:
 158:Middlewares/Third_Party/FreeRTOS/Source/portable/MemMang/heap_4.c **** 
 567              		.loc 1 158 7 view .LVU199
 568 00ea 0026     		movs	r6, #0
 569 00ec EDE7     		b	.L21
 570              	.LVL47:
 571              	.L19:
 302:Middlewares/Third_Party/FreeRTOS/Source/portable/MemMang/heap_4.c **** /*-----------------------------------------------------------*/
 572              		.loc 1 302 1 view .LVU200
 573 00ee 3046     		mov	r0, r6
 574 00f0 70BD     		pop	{r4, r5, r6, pc}
 575              	.LVL48:
 576              	.L40:
 302:Middlewares/Third_Party/FreeRTOS/Source/portable/MemMang/heap_4.c **** /*-----------------------------------------------------------*/
 577              		.loc 1 302 1 view .LVU201
 578 00f2 00BF     		.align	2
 579              	.L39:
 580 00f4 00000000 		.word	.LANCHOR1
 581 00f8 00000000 		.word	.LANCHOR4
 582 00fc 00000000 		.word	.LANCHOR3
 583 0100 00000000 		.word	.LANCHOR0
 584 0104 00000000 		.word	.LANCHOR2
 585              		.cfi_endproc
 586              	.LFE5:
 588              		.section	.text.vPortFree,"ax",%progbits
 589              		.align	1
 590              		.global	vPortFree
 591              		.syntax unified
 592              		.thumb
 593              		.thumb_func
 594              		.fpu fpv4-sp-d16
 596              	vPortFree:
 597              	.LVL49:
 598              	.LFB6:
 306:Middlewares/Third_Party/FreeRTOS/Source/portable/MemMang/heap_4.c **** uint8_t *puc = ( uint8_t * ) pv;
 599              		.loc 1 306 1 is_stmt 1 view -0
ARM GAS  /var/folders/n1/76bg37b13ls08p1dhb9rhvd40000gn/T//cchItYn0.s 			page 26


 600              		.cfi_startproc
 601              		@ args = 0, pretend = 0, frame = 0
 602              		@ frame_needed = 0, uses_anonymous_args = 0
 307:Middlewares/Third_Party/FreeRTOS/Source/portable/MemMang/heap_4.c **** BlockLink_t *pxLink;
 603              		.loc 1 307 1 view .LVU203
 308:Middlewares/Third_Party/FreeRTOS/Source/portable/MemMang/heap_4.c **** 
 604              		.loc 1 308 1 view .LVU204
 310:Middlewares/Third_Party/FreeRTOS/Source/portable/MemMang/heap_4.c **** 	{
 605              		.loc 1 310 2 view .LVU205
 310:Middlewares/Third_Party/FreeRTOS/Source/portable/MemMang/heap_4.c **** 	{
 606              		.loc 1 310 4 is_stmt 0 view .LVU206
 607 0000 80B3     		cbz	r0, .L48
 306:Middlewares/Third_Party/FreeRTOS/Source/portable/MemMang/heap_4.c **** uint8_t *puc = ( uint8_t * ) pv;
 608              		.loc 1 306 1 view .LVU207
 609 0002 38B5     		push	{r3, r4, r5, lr}
 610              	.LCFI4:
 611              		.cfi_def_cfa_offset 16
 612              		.cfi_offset 3, -16
 613              		.cfi_offset 4, -12
 614              		.cfi_offset 5, -8
 615              		.cfi_offset 14, -4
 616 0004 0446     		mov	r4, r0
 314:Middlewares/Third_Party/FreeRTOS/Source/portable/MemMang/heap_4.c **** 
 617              		.loc 1 314 3 is_stmt 1 view .LVU208
 314:Middlewares/Third_Party/FreeRTOS/Source/portable/MemMang/heap_4.c **** 
 618              		.loc 1 314 7 is_stmt 0 view .LVU209
 619 0006 A0F10805 		sub	r5, r0, #8
 620              	.LVL50:
 317:Middlewares/Third_Party/FreeRTOS/Source/portable/MemMang/heap_4.c **** 
 621              		.loc 1 317 3 is_stmt 1 view .LVU210
 320:Middlewares/Third_Party/FreeRTOS/Source/portable/MemMang/heap_4.c **** 		configASSERT( pxLink->pxNextFreeBlock == NULL );
 622              		.loc 1 320 3 view .LVU211
 623 000a 50F8042C 		ldr	r2, [r0, #-4]
 624 000e 1649     		ldr	r1, .L51
 625 0010 0968     		ldr	r1, [r1]
 626 0012 0A42     		tst	r2, r1
 627 0014 08D1     		bne	.L43
 320:Middlewares/Third_Party/FreeRTOS/Source/portable/MemMang/heap_4.c **** 		configASSERT( pxLink->pxNextFreeBlock == NULL );
 628              		.loc 1 320 3 view .LVU212
 629              	.LBB18:
 630              	.LBI18:
 233:Middlewares/Third_Party/FreeRTOS/Source/portable/GCC/ARM_CM4F/portmacro.h **** {
 631              		.loc 2 233 30 view .LVU213
 632              	.LBB19:
 235:Middlewares/Third_Party/FreeRTOS/Source/portable/GCC/ARM_CM4F/portmacro.h **** 
 633              		.loc 2 235 1 view .LVU214
 634              		.loc 2 237 2 view .LVU215
 635              		.syntax unified
 636              	@ 237 "Middlewares/Third_Party/FreeRTOS/Source/portable/GCC/ARM_CM4F/portmacro.h" 1
 637 0016 4FF05003 			mov r3, #80												
 638 001a 83F31188 		msr basepri, r3											
 639 001e BFF36F8F 		isb														
 640 0022 BFF34F8F 		dsb														
 641              	
 642              	@ 0 "" 2
 643              	.LVL51:
 644              		.thumb
ARM GAS  /var/folders/n1/76bg37b13ls08p1dhb9rhvd40000gn/T//cchItYn0.s 			page 27


 645              		.syntax unified
 646              	.L44:
 647              		.loc 2 237 2 is_stmt 0 view .LVU216
 648              	.LBE19:
 649              	.LBE18:
 320:Middlewares/Third_Party/FreeRTOS/Source/portable/MemMang/heap_4.c **** 		configASSERT( pxLink->pxNextFreeBlock == NULL );
 650              		.loc 1 320 3 is_stmt 1 discriminator 1 view .LVU217
 320:Middlewares/Third_Party/FreeRTOS/Source/portable/MemMang/heap_4.c **** 		configASSERT( pxLink->pxNextFreeBlock == NULL );
 651              		.loc 1 320 3 discriminator 1 view .LVU218
 652 0026 FEE7     		b	.L44
 653              	.L43:
 320:Middlewares/Third_Party/FreeRTOS/Source/portable/MemMang/heap_4.c **** 		configASSERT( pxLink->pxNextFreeBlock == NULL );
 654              		.loc 1 320 67 discriminator 2 view .LVU219
 321:Middlewares/Third_Party/FreeRTOS/Source/portable/MemMang/heap_4.c **** 
 655              		.loc 1 321 3 discriminator 2 view .LVU220
 656 0028 50F8080C 		ldr	r0, [r0, #-8]
 657              	.LVL52:
 321:Middlewares/Third_Party/FreeRTOS/Source/portable/MemMang/heap_4.c **** 
 658              		.loc 1 321 3 is_stmt 0 discriminator 2 view .LVU221
 659 002c 40B1     		cbz	r0, .L45
 321:Middlewares/Third_Party/FreeRTOS/Source/portable/MemMang/heap_4.c **** 
 660              		.loc 1 321 3 is_stmt 1 view .LVU222
 661              	.LBB20:
 662              	.LBI20:
 233:Middlewares/Third_Party/FreeRTOS/Source/portable/GCC/ARM_CM4F/portmacro.h **** {
 663              		.loc 2 233 30 view .LVU223
 664              	.LBB21:
 235:Middlewares/Third_Party/FreeRTOS/Source/portable/GCC/ARM_CM4F/portmacro.h **** 
 665              		.loc 2 235 1 view .LVU224
 666              		.loc 2 237 2 view .LVU225
 667              		.syntax unified
 668              	@ 237 "Middlewares/Third_Party/FreeRTOS/Source/portable/GCC/ARM_CM4F/portmacro.h" 1
 669 002e 4FF05003 			mov r3, #80												
 670 0032 83F31188 		msr basepri, r3											
 671 0036 BFF36F8F 		isb														
 672 003a BFF34F8F 		dsb														
 673              	
 674              	@ 0 "" 2
 675              	.LVL53:
 676              		.thumb
 677              		.syntax unified
 678              	.L46:
 679              		.loc 2 237 2 is_stmt 0 view .LVU226
 680              	.LBE21:
 681              	.LBE20:
 321:Middlewares/Third_Party/FreeRTOS/Source/portable/MemMang/heap_4.c **** 
 682              		.loc 1 321 3 is_stmt 1 discriminator 2 view .LVU227
 321:Middlewares/Third_Party/FreeRTOS/Source/portable/MemMang/heap_4.c **** 
 683              		.loc 1 321 3 discriminator 2 view .LVU228
 684 003e FEE7     		b	.L46
 685              	.L45:
 321:Middlewares/Third_Party/FreeRTOS/Source/portable/MemMang/heap_4.c **** 
 686              		.loc 1 321 50 view .LVU229
 323:Middlewares/Third_Party/FreeRTOS/Source/portable/MemMang/heap_4.c **** 		{
 687              		.loc 1 323 3 view .LVU230
 325:Middlewares/Third_Party/FreeRTOS/Source/portable/MemMang/heap_4.c **** 			{
 688              		.loc 1 325 4 view .LVU231
ARM GAS  /var/folders/n1/76bg37b13ls08p1dhb9rhvd40000gn/T//cchItYn0.s 			page 28


 329:Middlewares/Third_Party/FreeRTOS/Source/portable/MemMang/heap_4.c **** 
 689              		.loc 1 329 5 view .LVU232
 329:Middlewares/Third_Party/FreeRTOS/Source/portable/MemMang/heap_4.c **** 
 690              		.loc 1 329 24 is_stmt 0 view .LVU233
 691 0040 22EA0102 		bic	r2, r2, r1
 692 0044 44F8042C 		str	r2, [r4, #-4]
 331:Middlewares/Third_Party/FreeRTOS/Source/portable/MemMang/heap_4.c **** 				{
 693              		.loc 1 331 5 is_stmt 1 view .LVU234
 694 0048 FFF7FEFF 		bl	vTaskSuspendAll
 695              	.LVL54:
 334:Middlewares/Third_Party/FreeRTOS/Source/portable/MemMang/heap_4.c **** 					traceFREE( pv, pxLink->xBlockSize );
 696              		.loc 1 334 6 view .LVU235
 334:Middlewares/Third_Party/FreeRTOS/Source/portable/MemMang/heap_4.c **** 					traceFREE( pv, pxLink->xBlockSize );
 697              		.loc 1 334 35 is_stmt 0 view .LVU236
 698 004c 54F8041C 		ldr	r1, [r4, #-4]
 334:Middlewares/Third_Party/FreeRTOS/Source/portable/MemMang/heap_4.c **** 					traceFREE( pv, pxLink->xBlockSize );
 699              		.loc 1 334 26 view .LVU237
 700 0050 064A     		ldr	r2, .L51+4
 701 0052 1368     		ldr	r3, [r2]
 702 0054 0B44     		add	r3, r3, r1
 703 0056 1360     		str	r3, [r2]
 335:Middlewares/Third_Party/FreeRTOS/Source/portable/MemMang/heap_4.c **** 					prvInsertBlockIntoFreeList( ( ( BlockLink_t * ) pxLink ) );
 704              		.loc 1 335 41 is_stmt 1 view .LVU238
 336:Middlewares/Third_Party/FreeRTOS/Source/portable/MemMang/heap_4.c **** 				}
 705              		.loc 1 336 6 view .LVU239
 706 0058 2846     		mov	r0, r5
 707 005a FFF7FEFF 		bl	prvInsertBlockIntoFreeList
 708              	.LVL55:
 338:Middlewares/Third_Party/FreeRTOS/Source/portable/MemMang/heap_4.c **** 			}
 709              		.loc 1 338 5 view .LVU240
 338:Middlewares/Third_Party/FreeRTOS/Source/portable/MemMang/heap_4.c **** 			}
 710              		.loc 1 338 14 is_stmt 0 view .LVU241
 711 005e FFF7FEFF 		bl	xTaskResumeAll
 712              	.LVL56:
 347:Middlewares/Third_Party/FreeRTOS/Source/portable/MemMang/heap_4.c **** 		}
 713              		.loc 1 347 28 is_stmt 1 view .LVU242
 350:Middlewares/Third_Party/FreeRTOS/Source/portable/MemMang/heap_4.c **** /*-----------------------------------------------------------*/
 714              		.loc 1 350 1 is_stmt 0 view .LVU243
 715 0062 38BD     		pop	{r3, r4, r5, pc}
 716              	.LVL57:
 717              	.L48:
 718              	.LCFI5:
 719              		.cfi_def_cfa_offset 0
 720              		.cfi_restore 3
 721              		.cfi_restore 4
 722              		.cfi_restore 5
 723              		.cfi_restore 14
 350:Middlewares/Third_Party/FreeRTOS/Source/portable/MemMang/heap_4.c **** /*-----------------------------------------------------------*/
 724              		.loc 1 350 1 view .LVU244
 725 0064 7047     		bx	lr
 726              	.L52:
 727 0066 00BF     		.align	2
 728              	.L51:
 729 0068 00000000 		.word	.LANCHOR4
 730 006c 00000000 		.word	.LANCHOR3
 731              		.cfi_endproc
 732              	.LFE6:
ARM GAS  /var/folders/n1/76bg37b13ls08p1dhb9rhvd40000gn/T//cchItYn0.s 			page 29


 734              		.section	.text.xPortGetFreeHeapSize,"ax",%progbits
 735              		.align	1
 736              		.global	xPortGetFreeHeapSize
 737              		.syntax unified
 738              		.thumb
 739              		.thumb_func
 740              		.fpu fpv4-sp-d16
 742              	xPortGetFreeHeapSize:
 743              	.LFB7:
 354:Middlewares/Third_Party/FreeRTOS/Source/portable/MemMang/heap_4.c **** 	return xFreeBytesRemaining;
 744              		.loc 1 354 1 is_stmt 1 view -0
 745              		.cfi_startproc
 746              		@ args = 0, pretend = 0, frame = 0
 747              		@ frame_needed = 0, uses_anonymous_args = 0
 748              		@ link register save eliminated.
 355:Middlewares/Third_Party/FreeRTOS/Source/portable/MemMang/heap_4.c **** }
 749              		.loc 1 355 2 view .LVU246
 356:Middlewares/Third_Party/FreeRTOS/Source/portable/MemMang/heap_4.c **** /*-----------------------------------------------------------*/
 750              		.loc 1 356 1 is_stmt 0 view .LVU247
 751 0000 014B     		ldr	r3, .L54
 752 0002 1868     		ldr	r0, [r3]
 753 0004 7047     		bx	lr
 754              	.L55:
 755 0006 00BF     		.align	2
 756              	.L54:
 757 0008 00000000 		.word	.LANCHOR3
 758              		.cfi_endproc
 759              	.LFE7:
 761              		.section	.text.xPortGetMinimumEverFreeHeapSize,"ax",%progbits
 762              		.align	1
 763              		.global	xPortGetMinimumEverFreeHeapSize
 764              		.syntax unified
 765              		.thumb
 766              		.thumb_func
 767              		.fpu fpv4-sp-d16
 769              	xPortGetMinimumEverFreeHeapSize:
 770              	.LFB8:
 360:Middlewares/Third_Party/FreeRTOS/Source/portable/MemMang/heap_4.c **** 	return xMinimumEverFreeBytesRemaining;
 771              		.loc 1 360 1 is_stmt 1 view -0
 772              		.cfi_startproc
 773              		@ args = 0, pretend = 0, frame = 0
 774              		@ frame_needed = 0, uses_anonymous_args = 0
 775              		@ link register save eliminated.
 361:Middlewares/Third_Party/FreeRTOS/Source/portable/MemMang/heap_4.c **** }
 776              		.loc 1 361 2 view .LVU249
 362:Middlewares/Third_Party/FreeRTOS/Source/portable/MemMang/heap_4.c **** /*-----------------------------------------------------------*/
 777              		.loc 1 362 1 is_stmt 0 view .LVU250
 778 0000 014B     		ldr	r3, .L57
 779 0002 1868     		ldr	r0, [r3]
 780 0004 7047     		bx	lr
 781              	.L58:
 782 0006 00BF     		.align	2
 783              	.L57:
 784 0008 00000000 		.word	.LANCHOR2
 785              		.cfi_endproc
 786              	.LFE8:
 788              		.section	.text.vPortInitialiseBlocks,"ax",%progbits
ARM GAS  /var/folders/n1/76bg37b13ls08p1dhb9rhvd40000gn/T//cchItYn0.s 			page 30


 789              		.align	1
 790              		.global	vPortInitialiseBlocks
 791              		.syntax unified
 792              		.thumb
 793              		.thumb_func
 794              		.fpu fpv4-sp-d16
 796              	vPortInitialiseBlocks:
 797              	.LFB9:
 366:Middlewares/Third_Party/FreeRTOS/Source/portable/MemMang/heap_4.c **** 	/* This just exists to keep the linker quiet. */
 798              		.loc 1 366 1 is_stmt 1 view -0
 799              		.cfi_startproc
 800              		@ args = 0, pretend = 0, frame = 0
 801              		@ frame_needed = 0, uses_anonymous_args = 0
 802              		@ link register save eliminated.
 368:Middlewares/Third_Party/FreeRTOS/Source/portable/MemMang/heap_4.c **** /*-----------------------------------------------------------*/
 803              		.loc 1 368 1 view .LVU252
 804 0000 7047     		bx	lr
 805              		.cfi_endproc
 806              	.LFE9:
 808              		.section	.bss.pxEnd,"aw",%nobits
 809              		.align	2
 810              		.set	.LANCHOR1,. + 0
 813              	pxEnd:
 814 0000 00000000 		.space	4
 815              		.section	.bss.ucHeap,"aw",%nobits
 816              		.align	2
 819              	ucHeap:
 820 0000 00000000 		.space	15360
 820      00000000 
 820      00000000 
 820      00000000 
 820      00000000 
 821              		.section	.bss.xBlockAllocatedBit,"aw",%nobits
 822              		.align	2
 823              		.set	.LANCHOR4,. + 0
 826              	xBlockAllocatedBit:
 827 0000 00000000 		.space	4
 828              		.section	.bss.xFreeBytesRemaining,"aw",%nobits
 829              		.align	2
 830              		.set	.LANCHOR3,. + 0
 833              	xFreeBytesRemaining:
 834 0000 00000000 		.space	4
 835              		.section	.bss.xMinimumEverFreeBytesRemaining,"aw",%nobits
 836              		.align	2
 837              		.set	.LANCHOR2,. + 0
 840              	xMinimumEverFreeBytesRemaining:
 841 0000 00000000 		.space	4
 842              		.section	.bss.xStart,"aw",%nobits
 843              		.align	2
 844              		.set	.LANCHOR0,. + 0
 847              	xStart:
 848 0000 00000000 		.space	8
 848      00000000 
 849              		.text
 850              	.Letext0:
 851              		.file 3 "/Users/drb/Downloads/gcc-arm-none-eabi-8-2018-q4-major/lib/gcc/arm-none-eabi/8.2.1/includ
 852              		.file 4 "/Users/drb/Downloads/gcc-arm-none-eabi-8-2018-q4-major/arm-none-eabi/include/machine/_def
ARM GAS  /var/folders/n1/76bg37b13ls08p1dhb9rhvd40000gn/T//cchItYn0.s 			page 31


 853              		.file 5 "/Users/drb/Downloads/gcc-arm-none-eabi-8-2018-q4-major/arm-none-eabi/include/sys/lock.h"
 854              		.file 6 "/Users/drb/Downloads/gcc-arm-none-eabi-8-2018-q4-major/arm-none-eabi/include/sys/_types.h
 855              		.file 7 "/Users/drb/Downloads/gcc-arm-none-eabi-8-2018-q4-major/arm-none-eabi/include/sys/reent.h"
 856              		.file 8 "/Users/drb/Downloads/gcc-arm-none-eabi-8-2018-q4-major/arm-none-eabi/include/stdlib.h"
 857              		.file 9 "/Users/drb/Downloads/gcc-arm-none-eabi-8-2018-q4-major/arm-none-eabi/include/sys/_stdint.
 858              		.file 10 "Core/Inc/FreeRTOSConfig.h"
 859              		.file 11 "Middlewares/Third_Party/FreeRTOS/Source/include/task.h"
ARM GAS  /var/folders/n1/76bg37b13ls08p1dhb9rhvd40000gn/T//cchItYn0.s 			page 32

