ARM GAS  /var/folders/n1/76bg37b13ls08p1dhb9rhvd40000gn/T//ccS6mBld.s 			page 1


   1              		.cpu cortex-m4
   2              		.eabi_attribute 27, 1
   3              		.eabi_attribute 28, 1
   4              		.eabi_attribute 20, 1
   5              		.eabi_attribute 21, 1
   6              		.eabi_attribute 23, 3
   7              		.eabi_attribute 24, 1
   8              		.eabi_attribute 25, 1
   9              		.eabi_attribute 26, 1
  10              		.eabi_attribute 30, 1
  11              		.eabi_attribute 34, 1
  12              		.eabi_attribute 18, 4
  13              		.file	"port.c"
  14              		.text
  15              	.Ltext0:
  16              		.cfi_sections	.debug_frame
  17              		.section	.text.prvTaskExitError,"ax",%progbits
  18              		.align	1
  19              		.arch armv7e-m
  20              		.syntax unified
  21              		.thumb
  22              		.thumb_func
  23              		.fpu fpv4-sp-d16
  25              	prvTaskExitError:
  26              	.LFB6:
  27              		.file 1 "Middlewares/Third_Party/FreeRTOS/Source/portable/GCC/ARM_CM4F/port.c"
   1:Middlewares/Third_Party/FreeRTOS/Source/portable/GCC/ARM_CM4F/port.c **** /*
   2:Middlewares/Third_Party/FreeRTOS/Source/portable/GCC/ARM_CM4F/port.c ****     FreeRTOS V9.0.0 - Copyright (C) 2016 Real Time Engineers Ltd.
   3:Middlewares/Third_Party/FreeRTOS/Source/portable/GCC/ARM_CM4F/port.c ****     All rights reserved
   4:Middlewares/Third_Party/FreeRTOS/Source/portable/GCC/ARM_CM4F/port.c **** 
   5:Middlewares/Third_Party/FreeRTOS/Source/portable/GCC/ARM_CM4F/port.c ****     VISIT http://www.FreeRTOS.org TO ENSURE YOU ARE USING THE LATEST VERSION.
   6:Middlewares/Third_Party/FreeRTOS/Source/portable/GCC/ARM_CM4F/port.c **** 
   7:Middlewares/Third_Party/FreeRTOS/Source/portable/GCC/ARM_CM4F/port.c ****     This file is part of the FreeRTOS distribution.
   8:Middlewares/Third_Party/FreeRTOS/Source/portable/GCC/ARM_CM4F/port.c **** 
   9:Middlewares/Third_Party/FreeRTOS/Source/portable/GCC/ARM_CM4F/port.c ****     FreeRTOS is free software; you can redistribute it and/or modify it under
  10:Middlewares/Third_Party/FreeRTOS/Source/portable/GCC/ARM_CM4F/port.c ****     the terms of the GNU General Public License (version 2) as published by the
  11:Middlewares/Third_Party/FreeRTOS/Source/portable/GCC/ARM_CM4F/port.c ****     Free Software Foundation >>>> AND MODIFIED BY <<<< the FreeRTOS exception.
  12:Middlewares/Third_Party/FreeRTOS/Source/portable/GCC/ARM_CM4F/port.c **** 
  13:Middlewares/Third_Party/FreeRTOS/Source/portable/GCC/ARM_CM4F/port.c ****     ***************************************************************************
  14:Middlewares/Third_Party/FreeRTOS/Source/portable/GCC/ARM_CM4F/port.c ****     >>!   NOTE: The modification to the GPL is included to allow you to     !<<
  15:Middlewares/Third_Party/FreeRTOS/Source/portable/GCC/ARM_CM4F/port.c ****     >>!   distribute a combined work that includes FreeRTOS without being   !<<
  16:Middlewares/Third_Party/FreeRTOS/Source/portable/GCC/ARM_CM4F/port.c ****     >>!   obliged to provide the source code for proprietary components     !<<
  17:Middlewares/Third_Party/FreeRTOS/Source/portable/GCC/ARM_CM4F/port.c ****     >>!   outside of the FreeRTOS kernel.                                   !<<
  18:Middlewares/Third_Party/FreeRTOS/Source/portable/GCC/ARM_CM4F/port.c ****     ***************************************************************************
  19:Middlewares/Third_Party/FreeRTOS/Source/portable/GCC/ARM_CM4F/port.c **** 
  20:Middlewares/Third_Party/FreeRTOS/Source/portable/GCC/ARM_CM4F/port.c ****     FreeRTOS is distributed in the hope that it will be useful, but WITHOUT ANY
  21:Middlewares/Third_Party/FreeRTOS/Source/portable/GCC/ARM_CM4F/port.c ****     WARRANTY; without even the implied warranty of MERCHANTABILITY or FITNESS
  22:Middlewares/Third_Party/FreeRTOS/Source/portable/GCC/ARM_CM4F/port.c ****     FOR A PARTICULAR PURPOSE.  Full license text is available on the following
  23:Middlewares/Third_Party/FreeRTOS/Source/portable/GCC/ARM_CM4F/port.c ****     link: http://www.freertos.org/a00114.html
  24:Middlewares/Third_Party/FreeRTOS/Source/portable/GCC/ARM_CM4F/port.c **** 
  25:Middlewares/Third_Party/FreeRTOS/Source/portable/GCC/ARM_CM4F/port.c ****     ***************************************************************************
  26:Middlewares/Third_Party/FreeRTOS/Source/portable/GCC/ARM_CM4F/port.c ****      *                                                                       *
  27:Middlewares/Third_Party/FreeRTOS/Source/portable/GCC/ARM_CM4F/port.c ****      *    FreeRTOS provides completely free yet professionally developed,    *
  28:Middlewares/Third_Party/FreeRTOS/Source/portable/GCC/ARM_CM4F/port.c ****      *    robust, strictly quality controlled, supported, and cross          *
  29:Middlewares/Third_Party/FreeRTOS/Source/portable/GCC/ARM_CM4F/port.c ****      *    platform software that is more than just the market leader, it     *
  30:Middlewares/Third_Party/FreeRTOS/Source/portable/GCC/ARM_CM4F/port.c ****      *    is the industry's de facto standard.                               *
  31:Middlewares/Third_Party/FreeRTOS/Source/portable/GCC/ARM_CM4F/port.c ****      *                                                                       *
ARM GAS  /var/folders/n1/76bg37b13ls08p1dhb9rhvd40000gn/T//ccS6mBld.s 			page 2


  32:Middlewares/Third_Party/FreeRTOS/Source/portable/GCC/ARM_CM4F/port.c ****      *    Help yourself get started quickly while simultaneously helping     *
  33:Middlewares/Third_Party/FreeRTOS/Source/portable/GCC/ARM_CM4F/port.c ****      *    to support the FreeRTOS project by purchasing a FreeRTOS           *
  34:Middlewares/Third_Party/FreeRTOS/Source/portable/GCC/ARM_CM4F/port.c ****      *    tutorial book, reference manual, or both:                          *
  35:Middlewares/Third_Party/FreeRTOS/Source/portable/GCC/ARM_CM4F/port.c ****      *    http://www.FreeRTOS.org/Documentation                              *
  36:Middlewares/Third_Party/FreeRTOS/Source/portable/GCC/ARM_CM4F/port.c ****      *                                                                       *
  37:Middlewares/Third_Party/FreeRTOS/Source/portable/GCC/ARM_CM4F/port.c ****     ***************************************************************************
  38:Middlewares/Third_Party/FreeRTOS/Source/portable/GCC/ARM_CM4F/port.c **** 
  39:Middlewares/Third_Party/FreeRTOS/Source/portable/GCC/ARM_CM4F/port.c ****     http://www.FreeRTOS.org/FAQHelp.html - Having a problem?  Start by reading
  40:Middlewares/Third_Party/FreeRTOS/Source/portable/GCC/ARM_CM4F/port.c ****     the FAQ page "My application does not run, what could be wrong?".  Have you
  41:Middlewares/Third_Party/FreeRTOS/Source/portable/GCC/ARM_CM4F/port.c ****     defined configASSERT()?
  42:Middlewares/Third_Party/FreeRTOS/Source/portable/GCC/ARM_CM4F/port.c **** 
  43:Middlewares/Third_Party/FreeRTOS/Source/portable/GCC/ARM_CM4F/port.c ****     http://www.FreeRTOS.org/support - In return for receiving this top quality
  44:Middlewares/Third_Party/FreeRTOS/Source/portable/GCC/ARM_CM4F/port.c ****     embedded software for free we request you assist our global community by
  45:Middlewares/Third_Party/FreeRTOS/Source/portable/GCC/ARM_CM4F/port.c ****     participating in the support forum.
  46:Middlewares/Third_Party/FreeRTOS/Source/portable/GCC/ARM_CM4F/port.c **** 
  47:Middlewares/Third_Party/FreeRTOS/Source/portable/GCC/ARM_CM4F/port.c ****     http://www.FreeRTOS.org/training - Investing in training allows your team to
  48:Middlewares/Third_Party/FreeRTOS/Source/portable/GCC/ARM_CM4F/port.c ****     be as productive as possible as early as possible.  Now you can receive
  49:Middlewares/Third_Party/FreeRTOS/Source/portable/GCC/ARM_CM4F/port.c ****     FreeRTOS training directly from Richard Barry, CEO of Real Time Engineers
  50:Middlewares/Third_Party/FreeRTOS/Source/portable/GCC/ARM_CM4F/port.c ****     Ltd, and the world's leading authority on the world's leading RTOS.
  51:Middlewares/Third_Party/FreeRTOS/Source/portable/GCC/ARM_CM4F/port.c **** 
  52:Middlewares/Third_Party/FreeRTOS/Source/portable/GCC/ARM_CM4F/port.c ****     http://www.FreeRTOS.org/plus - A selection of FreeRTOS ecosystem products,
  53:Middlewares/Third_Party/FreeRTOS/Source/portable/GCC/ARM_CM4F/port.c ****     including FreeRTOS+Trace - an indispensable productivity tool, a DOS
  54:Middlewares/Third_Party/FreeRTOS/Source/portable/GCC/ARM_CM4F/port.c ****     compatible FAT file system, and our tiny thread aware UDP/IP stack.
  55:Middlewares/Third_Party/FreeRTOS/Source/portable/GCC/ARM_CM4F/port.c **** 
  56:Middlewares/Third_Party/FreeRTOS/Source/portable/GCC/ARM_CM4F/port.c ****     http://www.FreeRTOS.org/labs - Where new FreeRTOS products go to incubate.
  57:Middlewares/Third_Party/FreeRTOS/Source/portable/GCC/ARM_CM4F/port.c ****     Come and try FreeRTOS+TCP, our new open source TCP/IP stack for FreeRTOS.
  58:Middlewares/Third_Party/FreeRTOS/Source/portable/GCC/ARM_CM4F/port.c **** 
  59:Middlewares/Third_Party/FreeRTOS/Source/portable/GCC/ARM_CM4F/port.c ****     http://www.OpenRTOS.com - Real Time Engineers ltd. license FreeRTOS to High
  60:Middlewares/Third_Party/FreeRTOS/Source/portable/GCC/ARM_CM4F/port.c ****     Integrity Systems ltd. to sell under the OpenRTOS brand.  Low cost OpenRTOS
  61:Middlewares/Third_Party/FreeRTOS/Source/portable/GCC/ARM_CM4F/port.c ****     licenses offer ticketed support, indemnification and commercial middleware.
  62:Middlewares/Third_Party/FreeRTOS/Source/portable/GCC/ARM_CM4F/port.c **** 
  63:Middlewares/Third_Party/FreeRTOS/Source/portable/GCC/ARM_CM4F/port.c ****     http://www.SafeRTOS.com - High Integrity Systems also provide a safety
  64:Middlewares/Third_Party/FreeRTOS/Source/portable/GCC/ARM_CM4F/port.c ****     engineered and independently SIL3 certified version for use in safety and
  65:Middlewares/Third_Party/FreeRTOS/Source/portable/GCC/ARM_CM4F/port.c ****     mission critical applications that require provable dependability.
  66:Middlewares/Third_Party/FreeRTOS/Source/portable/GCC/ARM_CM4F/port.c **** 
  67:Middlewares/Third_Party/FreeRTOS/Source/portable/GCC/ARM_CM4F/port.c ****     1 tab == 4 spaces!
  68:Middlewares/Third_Party/FreeRTOS/Source/portable/GCC/ARM_CM4F/port.c **** */
  69:Middlewares/Third_Party/FreeRTOS/Source/portable/GCC/ARM_CM4F/port.c **** 
  70:Middlewares/Third_Party/FreeRTOS/Source/portable/GCC/ARM_CM4F/port.c **** /*-----------------------------------------------------------
  71:Middlewares/Third_Party/FreeRTOS/Source/portable/GCC/ARM_CM4F/port.c ****  * Implementation of functions defined in portable.h for the ARM CM4F port.
  72:Middlewares/Third_Party/FreeRTOS/Source/portable/GCC/ARM_CM4F/port.c ****  *----------------------------------------------------------*/
  73:Middlewares/Third_Party/FreeRTOS/Source/portable/GCC/ARM_CM4F/port.c **** 
  74:Middlewares/Third_Party/FreeRTOS/Source/portable/GCC/ARM_CM4F/port.c **** /* Scheduler includes. */
  75:Middlewares/Third_Party/FreeRTOS/Source/portable/GCC/ARM_CM4F/port.c **** #include "FreeRTOS.h"
  76:Middlewares/Third_Party/FreeRTOS/Source/portable/GCC/ARM_CM4F/port.c **** #include "task.h"
  77:Middlewares/Third_Party/FreeRTOS/Source/portable/GCC/ARM_CM4F/port.c **** 
  78:Middlewares/Third_Party/FreeRTOS/Source/portable/GCC/ARM_CM4F/port.c **** #ifndef __VFP_FP__
  79:Middlewares/Third_Party/FreeRTOS/Source/portable/GCC/ARM_CM4F/port.c **** 	#error This port can only be used when the project options are configured to enable hardware float
  80:Middlewares/Third_Party/FreeRTOS/Source/portable/GCC/ARM_CM4F/port.c **** #endif
  81:Middlewares/Third_Party/FreeRTOS/Source/portable/GCC/ARM_CM4F/port.c **** 
  82:Middlewares/Third_Party/FreeRTOS/Source/portable/GCC/ARM_CM4F/port.c **** #ifndef configSYSTICK_CLOCK_HZ
  83:Middlewares/Third_Party/FreeRTOS/Source/portable/GCC/ARM_CM4F/port.c **** 	#define configSYSTICK_CLOCK_HZ configCPU_CLOCK_HZ
  84:Middlewares/Third_Party/FreeRTOS/Source/portable/GCC/ARM_CM4F/port.c **** 	/* Ensure the SysTick is clocked at the same frequency as the core. */
  85:Middlewares/Third_Party/FreeRTOS/Source/portable/GCC/ARM_CM4F/port.c **** 	#define portNVIC_SYSTICK_CLK_BIT	( 1UL << 2UL )
  86:Middlewares/Third_Party/FreeRTOS/Source/portable/GCC/ARM_CM4F/port.c **** #else
  87:Middlewares/Third_Party/FreeRTOS/Source/portable/GCC/ARM_CM4F/port.c **** 	/* The way the SysTick is clocked is not modified in case it is not the same
  88:Middlewares/Third_Party/FreeRTOS/Source/portable/GCC/ARM_CM4F/port.c **** 	as the core. */
ARM GAS  /var/folders/n1/76bg37b13ls08p1dhb9rhvd40000gn/T//ccS6mBld.s 			page 3


  89:Middlewares/Third_Party/FreeRTOS/Source/portable/GCC/ARM_CM4F/port.c **** 	#define portNVIC_SYSTICK_CLK_BIT	( 0 )
  90:Middlewares/Third_Party/FreeRTOS/Source/portable/GCC/ARM_CM4F/port.c **** #endif
  91:Middlewares/Third_Party/FreeRTOS/Source/portable/GCC/ARM_CM4F/port.c **** 
  92:Middlewares/Third_Party/FreeRTOS/Source/portable/GCC/ARM_CM4F/port.c **** /* Constants required to manipulate the core.  Registers first... */
  93:Middlewares/Third_Party/FreeRTOS/Source/portable/GCC/ARM_CM4F/port.c **** #define portNVIC_SYSTICK_CTRL_REG			( * ( ( volatile uint32_t * ) 0xe000e010 ) )
  94:Middlewares/Third_Party/FreeRTOS/Source/portable/GCC/ARM_CM4F/port.c **** #define portNVIC_SYSTICK_LOAD_REG			( * ( ( volatile uint32_t * ) 0xe000e014 ) )
  95:Middlewares/Third_Party/FreeRTOS/Source/portable/GCC/ARM_CM4F/port.c **** #define portNVIC_SYSTICK_CURRENT_VALUE_REG	( * ( ( volatile uint32_t * ) 0xe000e018 ) )
  96:Middlewares/Third_Party/FreeRTOS/Source/portable/GCC/ARM_CM4F/port.c **** #define portNVIC_SYSPRI2_REG				( * ( ( volatile uint32_t * ) 0xe000ed20 ) )
  97:Middlewares/Third_Party/FreeRTOS/Source/portable/GCC/ARM_CM4F/port.c **** /* ...then bits in the registers. */
  98:Middlewares/Third_Party/FreeRTOS/Source/portable/GCC/ARM_CM4F/port.c **** #define portNVIC_SYSTICK_INT_BIT			( 1UL << 1UL )
  99:Middlewares/Third_Party/FreeRTOS/Source/portable/GCC/ARM_CM4F/port.c **** #define portNVIC_SYSTICK_ENABLE_BIT			( 1UL << 0UL )
 100:Middlewares/Third_Party/FreeRTOS/Source/portable/GCC/ARM_CM4F/port.c **** #define portNVIC_SYSTICK_COUNT_FLAG_BIT		( 1UL << 16UL )
 101:Middlewares/Third_Party/FreeRTOS/Source/portable/GCC/ARM_CM4F/port.c **** #define portNVIC_PENDSVCLEAR_BIT 			( 1UL << 27UL )
 102:Middlewares/Third_Party/FreeRTOS/Source/portable/GCC/ARM_CM4F/port.c **** #define portNVIC_PEND_SYSTICK_CLEAR_BIT		( 1UL << 25UL )
 103:Middlewares/Third_Party/FreeRTOS/Source/portable/GCC/ARM_CM4F/port.c **** 
 104:Middlewares/Third_Party/FreeRTOS/Source/portable/GCC/ARM_CM4F/port.c **** /* Constants used to detect a Cortex-M7 r0p1 core, which should use the ARM_CM7
 105:Middlewares/Third_Party/FreeRTOS/Source/portable/GCC/ARM_CM4F/port.c **** r0p1 port. */
 106:Middlewares/Third_Party/FreeRTOS/Source/portable/GCC/ARM_CM4F/port.c **** #define portCPUID							( * ( ( volatile uint32_t * ) 0xE000ed00 ) )
 107:Middlewares/Third_Party/FreeRTOS/Source/portable/GCC/ARM_CM4F/port.c **** #define portCORTEX_M7_r0p1_ID				( 0x410FC271UL )
 108:Middlewares/Third_Party/FreeRTOS/Source/portable/GCC/ARM_CM4F/port.c **** #define portCORTEX_M7_r0p0_ID				( 0x410FC270UL )
 109:Middlewares/Third_Party/FreeRTOS/Source/portable/GCC/ARM_CM4F/port.c **** 
 110:Middlewares/Third_Party/FreeRTOS/Source/portable/GCC/ARM_CM4F/port.c **** #define portNVIC_PENDSV_PRI					( ( ( uint32_t ) configKERNEL_INTERRUPT_PRIORITY ) << 16UL )
 111:Middlewares/Third_Party/FreeRTOS/Source/portable/GCC/ARM_CM4F/port.c **** #define portNVIC_SYSTICK_PRI				( ( ( uint32_t ) configKERNEL_INTERRUPT_PRIORITY ) << 24UL )
 112:Middlewares/Third_Party/FreeRTOS/Source/portable/GCC/ARM_CM4F/port.c **** 
 113:Middlewares/Third_Party/FreeRTOS/Source/portable/GCC/ARM_CM4F/port.c **** /* Constants required to check the validity of an interrupt priority. */
 114:Middlewares/Third_Party/FreeRTOS/Source/portable/GCC/ARM_CM4F/port.c **** #define portFIRST_USER_INTERRUPT_NUMBER		( 16 )
 115:Middlewares/Third_Party/FreeRTOS/Source/portable/GCC/ARM_CM4F/port.c **** #define portNVIC_IP_REGISTERS_OFFSET_16 	( 0xE000E3F0 )
 116:Middlewares/Third_Party/FreeRTOS/Source/portable/GCC/ARM_CM4F/port.c **** #define portAIRCR_REG						( * ( ( volatile uint32_t * ) 0xE000ED0C ) )
 117:Middlewares/Third_Party/FreeRTOS/Source/portable/GCC/ARM_CM4F/port.c **** #define portMAX_8_BIT_VALUE					( ( uint8_t ) 0xff )
 118:Middlewares/Third_Party/FreeRTOS/Source/portable/GCC/ARM_CM4F/port.c **** #define portTOP_BIT_OF_BYTE					( ( uint8_t ) 0x80 )
 119:Middlewares/Third_Party/FreeRTOS/Source/portable/GCC/ARM_CM4F/port.c **** #define portMAX_PRIGROUP_BITS				( ( uint8_t ) 7 )
 120:Middlewares/Third_Party/FreeRTOS/Source/portable/GCC/ARM_CM4F/port.c **** #define portPRIORITY_GROUP_MASK				( 0x07UL << 8UL )
 121:Middlewares/Third_Party/FreeRTOS/Source/portable/GCC/ARM_CM4F/port.c **** #define portPRIGROUP_SHIFT					( 8UL )
 122:Middlewares/Third_Party/FreeRTOS/Source/portable/GCC/ARM_CM4F/port.c **** 
 123:Middlewares/Third_Party/FreeRTOS/Source/portable/GCC/ARM_CM4F/port.c **** /* Masks off all bits but the VECTACTIVE bits in the ICSR register. */
 124:Middlewares/Third_Party/FreeRTOS/Source/portable/GCC/ARM_CM4F/port.c **** #define portVECTACTIVE_MASK					( 0xFFUL )
 125:Middlewares/Third_Party/FreeRTOS/Source/portable/GCC/ARM_CM4F/port.c **** 
 126:Middlewares/Third_Party/FreeRTOS/Source/portable/GCC/ARM_CM4F/port.c **** /* Constants required to manipulate the VFP. */
 127:Middlewares/Third_Party/FreeRTOS/Source/portable/GCC/ARM_CM4F/port.c **** #define portFPCCR							( ( volatile uint32_t * ) 0xe000ef34 ) /* Floating point context control re
 128:Middlewares/Third_Party/FreeRTOS/Source/portable/GCC/ARM_CM4F/port.c **** #define portASPEN_AND_LSPEN_BITS			( 0x3UL << 30UL )
 129:Middlewares/Third_Party/FreeRTOS/Source/portable/GCC/ARM_CM4F/port.c **** 
 130:Middlewares/Third_Party/FreeRTOS/Source/portable/GCC/ARM_CM4F/port.c **** /* Constants required to set up the initial stack. */
 131:Middlewares/Third_Party/FreeRTOS/Source/portable/GCC/ARM_CM4F/port.c **** #define portINITIAL_XPSR					( 0x01000000 )
 132:Middlewares/Third_Party/FreeRTOS/Source/portable/GCC/ARM_CM4F/port.c **** #define portINITIAL_EXEC_RETURN				( 0xfffffffd )
 133:Middlewares/Third_Party/FreeRTOS/Source/portable/GCC/ARM_CM4F/port.c **** 
 134:Middlewares/Third_Party/FreeRTOS/Source/portable/GCC/ARM_CM4F/port.c **** /* The systick is a 24-bit counter. */
 135:Middlewares/Third_Party/FreeRTOS/Source/portable/GCC/ARM_CM4F/port.c **** #define portMAX_24_BIT_NUMBER				( 0xffffffUL )
 136:Middlewares/Third_Party/FreeRTOS/Source/portable/GCC/ARM_CM4F/port.c **** 
 137:Middlewares/Third_Party/FreeRTOS/Source/portable/GCC/ARM_CM4F/port.c **** /* For strict compliance with the Cortex-M spec the task start address should
 138:Middlewares/Third_Party/FreeRTOS/Source/portable/GCC/ARM_CM4F/port.c **** have bit-0 clear, as it is loaded into the PC on exit from an ISR. */
 139:Middlewares/Third_Party/FreeRTOS/Source/portable/GCC/ARM_CM4F/port.c **** #define portSTART_ADDRESS_MASK		( ( StackType_t ) 0xfffffffeUL )
 140:Middlewares/Third_Party/FreeRTOS/Source/portable/GCC/ARM_CM4F/port.c **** 
 141:Middlewares/Third_Party/FreeRTOS/Source/portable/GCC/ARM_CM4F/port.c **** /* A fiddle factor to estimate the number of SysTick counts that would have
 142:Middlewares/Third_Party/FreeRTOS/Source/portable/GCC/ARM_CM4F/port.c **** occurred while the SysTick counter is stopped during tickless idle
 143:Middlewares/Third_Party/FreeRTOS/Source/portable/GCC/ARM_CM4F/port.c **** calculations. */
 144:Middlewares/Third_Party/FreeRTOS/Source/portable/GCC/ARM_CM4F/port.c **** #define portMISSED_COUNTS_FACTOR			( 45UL )
 145:Middlewares/Third_Party/FreeRTOS/Source/portable/GCC/ARM_CM4F/port.c **** 
ARM GAS  /var/folders/n1/76bg37b13ls08p1dhb9rhvd40000gn/T//ccS6mBld.s 			page 4


 146:Middlewares/Third_Party/FreeRTOS/Source/portable/GCC/ARM_CM4F/port.c **** /* Let the user override the pre-loading of the initial LR with the address of
 147:Middlewares/Third_Party/FreeRTOS/Source/portable/GCC/ARM_CM4F/port.c **** prvTaskExitError() in case it messes up unwinding of the stack in the
 148:Middlewares/Third_Party/FreeRTOS/Source/portable/GCC/ARM_CM4F/port.c **** debugger. */
 149:Middlewares/Third_Party/FreeRTOS/Source/portable/GCC/ARM_CM4F/port.c **** #ifdef configTASK_RETURN_ADDRESS
 150:Middlewares/Third_Party/FreeRTOS/Source/portable/GCC/ARM_CM4F/port.c **** 	#define portTASK_RETURN_ADDRESS	configTASK_RETURN_ADDRESS
 151:Middlewares/Third_Party/FreeRTOS/Source/portable/GCC/ARM_CM4F/port.c **** #else
 152:Middlewares/Third_Party/FreeRTOS/Source/portable/GCC/ARM_CM4F/port.c **** 	#define portTASK_RETURN_ADDRESS	prvTaskExitError
 153:Middlewares/Third_Party/FreeRTOS/Source/portable/GCC/ARM_CM4F/port.c **** #endif
 154:Middlewares/Third_Party/FreeRTOS/Source/portable/GCC/ARM_CM4F/port.c **** 
 155:Middlewares/Third_Party/FreeRTOS/Source/portable/GCC/ARM_CM4F/port.c **** /* Each task maintains its own interrupt status in the critical nesting
 156:Middlewares/Third_Party/FreeRTOS/Source/portable/GCC/ARM_CM4F/port.c **** variable. */
 157:Middlewares/Third_Party/FreeRTOS/Source/portable/GCC/ARM_CM4F/port.c **** static UBaseType_t uxCriticalNesting = 0xaaaaaaaa;
 158:Middlewares/Third_Party/FreeRTOS/Source/portable/GCC/ARM_CM4F/port.c **** 
 159:Middlewares/Third_Party/FreeRTOS/Source/portable/GCC/ARM_CM4F/port.c **** /*
 160:Middlewares/Third_Party/FreeRTOS/Source/portable/GCC/ARM_CM4F/port.c ****  * Setup the timer to generate the tick interrupts.  The implementation in this
 161:Middlewares/Third_Party/FreeRTOS/Source/portable/GCC/ARM_CM4F/port.c ****  * file is weak to allow application writers to change the timer used to
 162:Middlewares/Third_Party/FreeRTOS/Source/portable/GCC/ARM_CM4F/port.c ****  * generate the tick interrupt.
 163:Middlewares/Third_Party/FreeRTOS/Source/portable/GCC/ARM_CM4F/port.c ****  */
 164:Middlewares/Third_Party/FreeRTOS/Source/portable/GCC/ARM_CM4F/port.c **** void vPortSetupTimerInterrupt( void );
 165:Middlewares/Third_Party/FreeRTOS/Source/portable/GCC/ARM_CM4F/port.c **** 
 166:Middlewares/Third_Party/FreeRTOS/Source/portable/GCC/ARM_CM4F/port.c **** /*
 167:Middlewares/Third_Party/FreeRTOS/Source/portable/GCC/ARM_CM4F/port.c ****  * Exception handlers.
 168:Middlewares/Third_Party/FreeRTOS/Source/portable/GCC/ARM_CM4F/port.c ****  */
 169:Middlewares/Third_Party/FreeRTOS/Source/portable/GCC/ARM_CM4F/port.c **** void xPortPendSVHandler( void ) __attribute__ (( naked ));
 170:Middlewares/Third_Party/FreeRTOS/Source/portable/GCC/ARM_CM4F/port.c **** void xPortSysTickHandler( void );
 171:Middlewares/Third_Party/FreeRTOS/Source/portable/GCC/ARM_CM4F/port.c **** void vPortSVCHandler( void ) __attribute__ (( naked ));
 172:Middlewares/Third_Party/FreeRTOS/Source/portable/GCC/ARM_CM4F/port.c **** 
 173:Middlewares/Third_Party/FreeRTOS/Source/portable/GCC/ARM_CM4F/port.c **** /*
 174:Middlewares/Third_Party/FreeRTOS/Source/portable/GCC/ARM_CM4F/port.c ****  * Start first task is a separate function so it can be tested in isolation.
 175:Middlewares/Third_Party/FreeRTOS/Source/portable/GCC/ARM_CM4F/port.c ****  */
 176:Middlewares/Third_Party/FreeRTOS/Source/portable/GCC/ARM_CM4F/port.c **** static void prvPortStartFirstTask( void ) __attribute__ (( naked ));
 177:Middlewares/Third_Party/FreeRTOS/Source/portable/GCC/ARM_CM4F/port.c **** 
 178:Middlewares/Third_Party/FreeRTOS/Source/portable/GCC/ARM_CM4F/port.c **** /*
 179:Middlewares/Third_Party/FreeRTOS/Source/portable/GCC/ARM_CM4F/port.c ****  * Function to enable the VFP.
 180:Middlewares/Third_Party/FreeRTOS/Source/portable/GCC/ARM_CM4F/port.c ****  */
 181:Middlewares/Third_Party/FreeRTOS/Source/portable/GCC/ARM_CM4F/port.c **** static void vPortEnableVFP( void ) __attribute__ (( naked ));
 182:Middlewares/Third_Party/FreeRTOS/Source/portable/GCC/ARM_CM4F/port.c **** 
 183:Middlewares/Third_Party/FreeRTOS/Source/portable/GCC/ARM_CM4F/port.c **** /*
 184:Middlewares/Third_Party/FreeRTOS/Source/portable/GCC/ARM_CM4F/port.c ****  * Used to catch tasks that attempt to return from their implementing function.
 185:Middlewares/Third_Party/FreeRTOS/Source/portable/GCC/ARM_CM4F/port.c ****  */
 186:Middlewares/Third_Party/FreeRTOS/Source/portable/GCC/ARM_CM4F/port.c **** static void prvTaskExitError( void );
 187:Middlewares/Third_Party/FreeRTOS/Source/portable/GCC/ARM_CM4F/port.c **** 
 188:Middlewares/Third_Party/FreeRTOS/Source/portable/GCC/ARM_CM4F/port.c **** /*-----------------------------------------------------------*/
 189:Middlewares/Third_Party/FreeRTOS/Source/portable/GCC/ARM_CM4F/port.c **** 
 190:Middlewares/Third_Party/FreeRTOS/Source/portable/GCC/ARM_CM4F/port.c **** /*
 191:Middlewares/Third_Party/FreeRTOS/Source/portable/GCC/ARM_CM4F/port.c ****  * The number of SysTick increments that make up one tick period.
 192:Middlewares/Third_Party/FreeRTOS/Source/portable/GCC/ARM_CM4F/port.c ****  */
 193:Middlewares/Third_Party/FreeRTOS/Source/portable/GCC/ARM_CM4F/port.c **** #if configUSE_TICKLESS_IDLE == 1
 194:Middlewares/Third_Party/FreeRTOS/Source/portable/GCC/ARM_CM4F/port.c **** 	static uint32_t ulTimerCountsForOneTick = 0;
 195:Middlewares/Third_Party/FreeRTOS/Source/portable/GCC/ARM_CM4F/port.c **** #endif /* configUSE_TICKLESS_IDLE */
 196:Middlewares/Third_Party/FreeRTOS/Source/portable/GCC/ARM_CM4F/port.c **** 
 197:Middlewares/Third_Party/FreeRTOS/Source/portable/GCC/ARM_CM4F/port.c **** /*
 198:Middlewares/Third_Party/FreeRTOS/Source/portable/GCC/ARM_CM4F/port.c ****  * The maximum number of tick periods that can be suppressed is limited by the
 199:Middlewares/Third_Party/FreeRTOS/Source/portable/GCC/ARM_CM4F/port.c ****  * 24 bit resolution of the SysTick timer.
 200:Middlewares/Third_Party/FreeRTOS/Source/portable/GCC/ARM_CM4F/port.c ****  */
 201:Middlewares/Third_Party/FreeRTOS/Source/portable/GCC/ARM_CM4F/port.c **** #if configUSE_TICKLESS_IDLE == 1
 202:Middlewares/Third_Party/FreeRTOS/Source/portable/GCC/ARM_CM4F/port.c **** 	static uint32_t xMaximumPossibleSuppressedTicks = 0;
ARM GAS  /var/folders/n1/76bg37b13ls08p1dhb9rhvd40000gn/T//ccS6mBld.s 			page 5


 203:Middlewares/Third_Party/FreeRTOS/Source/portable/GCC/ARM_CM4F/port.c **** #endif /* configUSE_TICKLESS_IDLE */
 204:Middlewares/Third_Party/FreeRTOS/Source/portable/GCC/ARM_CM4F/port.c **** 
 205:Middlewares/Third_Party/FreeRTOS/Source/portable/GCC/ARM_CM4F/port.c **** /*
 206:Middlewares/Third_Party/FreeRTOS/Source/portable/GCC/ARM_CM4F/port.c ****  * Compensate for the CPU cycles that pass while the SysTick is stopped (low
 207:Middlewares/Third_Party/FreeRTOS/Source/portable/GCC/ARM_CM4F/port.c ****  * power functionality only.
 208:Middlewares/Third_Party/FreeRTOS/Source/portable/GCC/ARM_CM4F/port.c ****  */
 209:Middlewares/Third_Party/FreeRTOS/Source/portable/GCC/ARM_CM4F/port.c **** #if configUSE_TICKLESS_IDLE == 1
 210:Middlewares/Third_Party/FreeRTOS/Source/portable/GCC/ARM_CM4F/port.c **** 	static uint32_t ulStoppedTimerCompensation = 0;
 211:Middlewares/Third_Party/FreeRTOS/Source/portable/GCC/ARM_CM4F/port.c **** #endif /* configUSE_TICKLESS_IDLE */
 212:Middlewares/Third_Party/FreeRTOS/Source/portable/GCC/ARM_CM4F/port.c **** 
 213:Middlewares/Third_Party/FreeRTOS/Source/portable/GCC/ARM_CM4F/port.c **** /*
 214:Middlewares/Third_Party/FreeRTOS/Source/portable/GCC/ARM_CM4F/port.c ****  * Used by the portASSERT_IF_INTERRUPT_PRIORITY_INVALID() macro to ensure
 215:Middlewares/Third_Party/FreeRTOS/Source/portable/GCC/ARM_CM4F/port.c ****  * FreeRTOS API functions are not called from interrupts that have been assigned
 216:Middlewares/Third_Party/FreeRTOS/Source/portable/GCC/ARM_CM4F/port.c ****  * a priority above configMAX_SYSCALL_INTERRUPT_PRIORITY.
 217:Middlewares/Third_Party/FreeRTOS/Source/portable/GCC/ARM_CM4F/port.c ****  */
 218:Middlewares/Third_Party/FreeRTOS/Source/portable/GCC/ARM_CM4F/port.c **** #if ( configASSERT_DEFINED == 1 )
 219:Middlewares/Third_Party/FreeRTOS/Source/portable/GCC/ARM_CM4F/port.c **** 	 static uint8_t ucMaxSysCallPriority = 0;
 220:Middlewares/Third_Party/FreeRTOS/Source/portable/GCC/ARM_CM4F/port.c **** 	 static uint32_t ulMaxPRIGROUPValue = 0;
 221:Middlewares/Third_Party/FreeRTOS/Source/portable/GCC/ARM_CM4F/port.c **** 	 static const volatile uint8_t * const pcInterruptPriorityRegisters = ( const volatile uint8_t * c
 222:Middlewares/Third_Party/FreeRTOS/Source/portable/GCC/ARM_CM4F/port.c **** #endif /* configASSERT_DEFINED */
 223:Middlewares/Third_Party/FreeRTOS/Source/portable/GCC/ARM_CM4F/port.c **** 
 224:Middlewares/Third_Party/FreeRTOS/Source/portable/GCC/ARM_CM4F/port.c **** /*-----------------------------------------------------------*/
 225:Middlewares/Third_Party/FreeRTOS/Source/portable/GCC/ARM_CM4F/port.c **** 
 226:Middlewares/Third_Party/FreeRTOS/Source/portable/GCC/ARM_CM4F/port.c **** /*
 227:Middlewares/Third_Party/FreeRTOS/Source/portable/GCC/ARM_CM4F/port.c ****  * See header file for description.
 228:Middlewares/Third_Party/FreeRTOS/Source/portable/GCC/ARM_CM4F/port.c ****  */
 229:Middlewares/Third_Party/FreeRTOS/Source/portable/GCC/ARM_CM4F/port.c **** StackType_t *pxPortInitialiseStack( StackType_t *pxTopOfStack, TaskFunction_t pxCode, void *pvParam
 230:Middlewares/Third_Party/FreeRTOS/Source/portable/GCC/ARM_CM4F/port.c **** {
 231:Middlewares/Third_Party/FreeRTOS/Source/portable/GCC/ARM_CM4F/port.c **** 	/* Simulate the stack frame as it would be created by a context switch
 232:Middlewares/Third_Party/FreeRTOS/Source/portable/GCC/ARM_CM4F/port.c **** 	interrupt. */
 233:Middlewares/Third_Party/FreeRTOS/Source/portable/GCC/ARM_CM4F/port.c **** 
 234:Middlewares/Third_Party/FreeRTOS/Source/portable/GCC/ARM_CM4F/port.c **** 	/* Offset added to account for the way the MCU uses the stack on entry/exit
 235:Middlewares/Third_Party/FreeRTOS/Source/portable/GCC/ARM_CM4F/port.c **** 	of interrupts, and to ensure alignment. */
 236:Middlewares/Third_Party/FreeRTOS/Source/portable/GCC/ARM_CM4F/port.c **** 	pxTopOfStack--;
 237:Middlewares/Third_Party/FreeRTOS/Source/portable/GCC/ARM_CM4F/port.c **** 
 238:Middlewares/Third_Party/FreeRTOS/Source/portable/GCC/ARM_CM4F/port.c **** 	*pxTopOfStack = portINITIAL_XPSR;	/* xPSR */
 239:Middlewares/Third_Party/FreeRTOS/Source/portable/GCC/ARM_CM4F/port.c **** 	pxTopOfStack--;
 240:Middlewares/Third_Party/FreeRTOS/Source/portable/GCC/ARM_CM4F/port.c **** 	*pxTopOfStack = ( ( StackType_t ) pxCode ) & portSTART_ADDRESS_MASK;	/* PC */
 241:Middlewares/Third_Party/FreeRTOS/Source/portable/GCC/ARM_CM4F/port.c **** 	pxTopOfStack--;
 242:Middlewares/Third_Party/FreeRTOS/Source/portable/GCC/ARM_CM4F/port.c **** 	*pxTopOfStack = ( StackType_t ) portTASK_RETURN_ADDRESS;	/* LR */
 243:Middlewares/Third_Party/FreeRTOS/Source/portable/GCC/ARM_CM4F/port.c **** 
 244:Middlewares/Third_Party/FreeRTOS/Source/portable/GCC/ARM_CM4F/port.c **** 	/* Save code space by skipping register initialisation. */
 245:Middlewares/Third_Party/FreeRTOS/Source/portable/GCC/ARM_CM4F/port.c **** 	pxTopOfStack -= 5;	/* R12, R3, R2 and R1. */
 246:Middlewares/Third_Party/FreeRTOS/Source/portable/GCC/ARM_CM4F/port.c **** 	*pxTopOfStack = ( StackType_t ) pvParameters;	/* R0 */
 247:Middlewares/Third_Party/FreeRTOS/Source/portable/GCC/ARM_CM4F/port.c **** 
 248:Middlewares/Third_Party/FreeRTOS/Source/portable/GCC/ARM_CM4F/port.c **** 	/* A save method is being used that requires each task to maintain its
 249:Middlewares/Third_Party/FreeRTOS/Source/portable/GCC/ARM_CM4F/port.c **** 	own exec return value. */
 250:Middlewares/Third_Party/FreeRTOS/Source/portable/GCC/ARM_CM4F/port.c **** 	pxTopOfStack--;
 251:Middlewares/Third_Party/FreeRTOS/Source/portable/GCC/ARM_CM4F/port.c **** 	*pxTopOfStack = portINITIAL_EXEC_RETURN;
 252:Middlewares/Third_Party/FreeRTOS/Source/portable/GCC/ARM_CM4F/port.c **** 
 253:Middlewares/Third_Party/FreeRTOS/Source/portable/GCC/ARM_CM4F/port.c **** 	pxTopOfStack -= 8;	/* R11, R10, R9, R8, R7, R6, R5 and R4. */
 254:Middlewares/Third_Party/FreeRTOS/Source/portable/GCC/ARM_CM4F/port.c **** 
 255:Middlewares/Third_Party/FreeRTOS/Source/portable/GCC/ARM_CM4F/port.c **** 	return pxTopOfStack;
 256:Middlewares/Third_Party/FreeRTOS/Source/portable/GCC/ARM_CM4F/port.c **** }
 257:Middlewares/Third_Party/FreeRTOS/Source/portable/GCC/ARM_CM4F/port.c **** /*-----------------------------------------------------------*/
 258:Middlewares/Third_Party/FreeRTOS/Source/portable/GCC/ARM_CM4F/port.c **** 
 259:Middlewares/Third_Party/FreeRTOS/Source/portable/GCC/ARM_CM4F/port.c **** static void prvTaskExitError( void )
ARM GAS  /var/folders/n1/76bg37b13ls08p1dhb9rhvd40000gn/T//ccS6mBld.s 			page 6


 260:Middlewares/Third_Party/FreeRTOS/Source/portable/GCC/ARM_CM4F/port.c **** {
  28              		.loc 1 260 1 view -0
  29              		.cfi_startproc
  30              		@ Volatile: function does not return.
  31              		@ args = 0, pretend = 0, frame = 0
  32              		@ frame_needed = 0, uses_anonymous_args = 0
  33              		@ link register save eliminated.
 261:Middlewares/Third_Party/FreeRTOS/Source/portable/GCC/ARM_CM4F/port.c **** 	/* A function that implements a task must not exit or attempt to return to
 262:Middlewares/Third_Party/FreeRTOS/Source/portable/GCC/ARM_CM4F/port.c **** 	its caller as there is nothing to return to.  If a task wants to exit it
 263:Middlewares/Third_Party/FreeRTOS/Source/portable/GCC/ARM_CM4F/port.c **** 	should instead call vTaskDelete( NULL ).
 264:Middlewares/Third_Party/FreeRTOS/Source/portable/GCC/ARM_CM4F/port.c **** 
 265:Middlewares/Third_Party/FreeRTOS/Source/portable/GCC/ARM_CM4F/port.c **** 	Artificially force an assert() to be triggered if configASSERT() is
 266:Middlewares/Third_Party/FreeRTOS/Source/portable/GCC/ARM_CM4F/port.c **** 	defined, then stop here so application writers can catch the error. */
 267:Middlewares/Third_Party/FreeRTOS/Source/portable/GCC/ARM_CM4F/port.c **** 	configASSERT( uxCriticalNesting == ~0UL );
  34              		.loc 1 267 2 view .LVU1
  35 0000 0B4B     		ldr	r3, .L5
  36 0002 1B68     		ldr	r3, [r3]
  37 0004 B3F1FF3F 		cmp	r3, #-1
  38 0008 08D0     		beq	.L2
  39              		.loc 1 267 2 view .LVU2
  40              	.LBB29:
  41              	.LBI29:
  42              		.file 2 "Middlewares/Third_Party/FreeRTOS/Source/portable/GCC/ARM_CM4F/portmacro.h"
   1:Middlewares/Third_Party/FreeRTOS/Source/portable/GCC/ARM_CM4F/portmacro.h **** /*
   2:Middlewares/Third_Party/FreeRTOS/Source/portable/GCC/ARM_CM4F/portmacro.h ****     FreeRTOS V9.0.0 - Copyright (C) 2016 Real Time Engineers Ltd.
   3:Middlewares/Third_Party/FreeRTOS/Source/portable/GCC/ARM_CM4F/portmacro.h ****     All rights reserved
   4:Middlewares/Third_Party/FreeRTOS/Source/portable/GCC/ARM_CM4F/portmacro.h **** 
   5:Middlewares/Third_Party/FreeRTOS/Source/portable/GCC/ARM_CM4F/portmacro.h ****     VISIT http://www.FreeRTOS.org TO ENSURE YOU ARE USING THE LATEST VERSION.
   6:Middlewares/Third_Party/FreeRTOS/Source/portable/GCC/ARM_CM4F/portmacro.h **** 
   7:Middlewares/Third_Party/FreeRTOS/Source/portable/GCC/ARM_CM4F/portmacro.h ****     This file is part of the FreeRTOS distribution.
   8:Middlewares/Third_Party/FreeRTOS/Source/portable/GCC/ARM_CM4F/portmacro.h **** 
   9:Middlewares/Third_Party/FreeRTOS/Source/portable/GCC/ARM_CM4F/portmacro.h ****     FreeRTOS is free software; you can redistribute it and/or modify it under
  10:Middlewares/Third_Party/FreeRTOS/Source/portable/GCC/ARM_CM4F/portmacro.h ****     the terms of the GNU General Public License (version 2) as published by the
  11:Middlewares/Third_Party/FreeRTOS/Source/portable/GCC/ARM_CM4F/portmacro.h ****     Free Software Foundation >>>> AND MODIFIED BY <<<< the FreeRTOS exception.
  12:Middlewares/Third_Party/FreeRTOS/Source/portable/GCC/ARM_CM4F/portmacro.h **** 
  13:Middlewares/Third_Party/FreeRTOS/Source/portable/GCC/ARM_CM4F/portmacro.h ****     ***************************************************************************
  14:Middlewares/Third_Party/FreeRTOS/Source/portable/GCC/ARM_CM4F/portmacro.h ****     >>!   NOTE: The modification to the GPL is included to allow you to     !<<
  15:Middlewares/Third_Party/FreeRTOS/Source/portable/GCC/ARM_CM4F/portmacro.h ****     >>!   distribute a combined work that includes FreeRTOS without being   !<<
  16:Middlewares/Third_Party/FreeRTOS/Source/portable/GCC/ARM_CM4F/portmacro.h ****     >>!   obliged to provide the source code for proprietary components     !<<
  17:Middlewares/Third_Party/FreeRTOS/Source/portable/GCC/ARM_CM4F/portmacro.h ****     >>!   outside of the FreeRTOS kernel.                                   !<<
  18:Middlewares/Third_Party/FreeRTOS/Source/portable/GCC/ARM_CM4F/portmacro.h ****     ***************************************************************************
  19:Middlewares/Third_Party/FreeRTOS/Source/portable/GCC/ARM_CM4F/portmacro.h **** 
  20:Middlewares/Third_Party/FreeRTOS/Source/portable/GCC/ARM_CM4F/portmacro.h ****     FreeRTOS is distributed in the hope that it will be useful, but WITHOUT ANY
  21:Middlewares/Third_Party/FreeRTOS/Source/portable/GCC/ARM_CM4F/portmacro.h ****     WARRANTY; without even the implied warranty of MERCHANTABILITY or FITNESS
  22:Middlewares/Third_Party/FreeRTOS/Source/portable/GCC/ARM_CM4F/portmacro.h ****     FOR A PARTICULAR PURPOSE.  Full license text is available on the following
  23:Middlewares/Third_Party/FreeRTOS/Source/portable/GCC/ARM_CM4F/portmacro.h ****     link: http://www.freertos.org/a00114.html
  24:Middlewares/Third_Party/FreeRTOS/Source/portable/GCC/ARM_CM4F/portmacro.h **** 
  25:Middlewares/Third_Party/FreeRTOS/Source/portable/GCC/ARM_CM4F/portmacro.h ****     ***************************************************************************
  26:Middlewares/Third_Party/FreeRTOS/Source/portable/GCC/ARM_CM4F/portmacro.h ****      *                                                                       *
  27:Middlewares/Third_Party/FreeRTOS/Source/portable/GCC/ARM_CM4F/portmacro.h ****      *    FreeRTOS provides completely free yet professionally developed,    *
  28:Middlewares/Third_Party/FreeRTOS/Source/portable/GCC/ARM_CM4F/portmacro.h ****      *    robust, strictly quality controlled, supported, and cross          *
  29:Middlewares/Third_Party/FreeRTOS/Source/portable/GCC/ARM_CM4F/portmacro.h ****      *    platform software that is more than just the market leader, it     *
  30:Middlewares/Third_Party/FreeRTOS/Source/portable/GCC/ARM_CM4F/portmacro.h ****      *    is the industry's de facto standard.                               *
  31:Middlewares/Third_Party/FreeRTOS/Source/portable/GCC/ARM_CM4F/portmacro.h ****      *                                                                       *
  32:Middlewares/Third_Party/FreeRTOS/Source/portable/GCC/ARM_CM4F/portmacro.h ****      *    Help yourself get started quickly while simultaneously helping     *
  33:Middlewares/Third_Party/FreeRTOS/Source/portable/GCC/ARM_CM4F/portmacro.h ****      *    to support the FreeRTOS project by purchasing a FreeRTOS           *
  34:Middlewares/Third_Party/FreeRTOS/Source/portable/GCC/ARM_CM4F/portmacro.h ****      *    tutorial book, reference manual, or both:                          *
ARM GAS  /var/folders/n1/76bg37b13ls08p1dhb9rhvd40000gn/T//ccS6mBld.s 			page 7


  35:Middlewares/Third_Party/FreeRTOS/Source/portable/GCC/ARM_CM4F/portmacro.h ****      *    http://www.FreeRTOS.org/Documentation                              *
  36:Middlewares/Third_Party/FreeRTOS/Source/portable/GCC/ARM_CM4F/portmacro.h ****      *                                                                       *
  37:Middlewares/Third_Party/FreeRTOS/Source/portable/GCC/ARM_CM4F/portmacro.h ****     ***************************************************************************
  38:Middlewares/Third_Party/FreeRTOS/Source/portable/GCC/ARM_CM4F/portmacro.h **** 
  39:Middlewares/Third_Party/FreeRTOS/Source/portable/GCC/ARM_CM4F/portmacro.h ****     http://www.FreeRTOS.org/FAQHelp.html - Having a problem?  Start by reading
  40:Middlewares/Third_Party/FreeRTOS/Source/portable/GCC/ARM_CM4F/portmacro.h ****     the FAQ page "My application does not run, what could be wrong?".  Have you
  41:Middlewares/Third_Party/FreeRTOS/Source/portable/GCC/ARM_CM4F/portmacro.h ****     defined configASSERT()?
  42:Middlewares/Third_Party/FreeRTOS/Source/portable/GCC/ARM_CM4F/portmacro.h **** 
  43:Middlewares/Third_Party/FreeRTOS/Source/portable/GCC/ARM_CM4F/portmacro.h ****     http://www.FreeRTOS.org/support - In return for receiving this top quality
  44:Middlewares/Third_Party/FreeRTOS/Source/portable/GCC/ARM_CM4F/portmacro.h ****     embedded software for free we request you assist our global community by
  45:Middlewares/Third_Party/FreeRTOS/Source/portable/GCC/ARM_CM4F/portmacro.h ****     participating in the support forum.
  46:Middlewares/Third_Party/FreeRTOS/Source/portable/GCC/ARM_CM4F/portmacro.h **** 
  47:Middlewares/Third_Party/FreeRTOS/Source/portable/GCC/ARM_CM4F/portmacro.h ****     http://www.FreeRTOS.org/training - Investing in training allows your team to
  48:Middlewares/Third_Party/FreeRTOS/Source/portable/GCC/ARM_CM4F/portmacro.h ****     be as productive as possible as early as possible.  Now you can receive
  49:Middlewares/Third_Party/FreeRTOS/Source/portable/GCC/ARM_CM4F/portmacro.h ****     FreeRTOS training directly from Richard Barry, CEO of Real Time Engineers
  50:Middlewares/Third_Party/FreeRTOS/Source/portable/GCC/ARM_CM4F/portmacro.h ****     Ltd, and the world's leading authority on the world's leading RTOS.
  51:Middlewares/Third_Party/FreeRTOS/Source/portable/GCC/ARM_CM4F/portmacro.h **** 
  52:Middlewares/Third_Party/FreeRTOS/Source/portable/GCC/ARM_CM4F/portmacro.h ****     http://www.FreeRTOS.org/plus - A selection of FreeRTOS ecosystem products,
  53:Middlewares/Third_Party/FreeRTOS/Source/portable/GCC/ARM_CM4F/portmacro.h ****     including FreeRTOS+Trace - an indispensable productivity tool, a DOS
  54:Middlewares/Third_Party/FreeRTOS/Source/portable/GCC/ARM_CM4F/portmacro.h ****     compatible FAT file system, and our tiny thread aware UDP/IP stack.
  55:Middlewares/Third_Party/FreeRTOS/Source/portable/GCC/ARM_CM4F/portmacro.h **** 
  56:Middlewares/Third_Party/FreeRTOS/Source/portable/GCC/ARM_CM4F/portmacro.h ****     http://www.FreeRTOS.org/labs - Where new FreeRTOS products go to incubate.
  57:Middlewares/Third_Party/FreeRTOS/Source/portable/GCC/ARM_CM4F/portmacro.h ****     Come and try FreeRTOS+TCP, our new open source TCP/IP stack for FreeRTOS.
  58:Middlewares/Third_Party/FreeRTOS/Source/portable/GCC/ARM_CM4F/portmacro.h **** 
  59:Middlewares/Third_Party/FreeRTOS/Source/portable/GCC/ARM_CM4F/portmacro.h ****     http://www.OpenRTOS.com - Real Time Engineers ltd. license FreeRTOS to High
  60:Middlewares/Third_Party/FreeRTOS/Source/portable/GCC/ARM_CM4F/portmacro.h ****     Integrity Systems ltd. to sell under the OpenRTOS brand.  Low cost OpenRTOS
  61:Middlewares/Third_Party/FreeRTOS/Source/portable/GCC/ARM_CM4F/portmacro.h ****     licenses offer ticketed support, indemnification and commercial middleware.
  62:Middlewares/Third_Party/FreeRTOS/Source/portable/GCC/ARM_CM4F/portmacro.h **** 
  63:Middlewares/Third_Party/FreeRTOS/Source/portable/GCC/ARM_CM4F/portmacro.h ****     http://www.SafeRTOS.com - High Integrity Systems also provide a safety
  64:Middlewares/Third_Party/FreeRTOS/Source/portable/GCC/ARM_CM4F/portmacro.h ****     engineered and independently SIL3 certified version for use in safety and
  65:Middlewares/Third_Party/FreeRTOS/Source/portable/GCC/ARM_CM4F/portmacro.h ****     mission critical applications that require provable dependability.
  66:Middlewares/Third_Party/FreeRTOS/Source/portable/GCC/ARM_CM4F/portmacro.h **** 
  67:Middlewares/Third_Party/FreeRTOS/Source/portable/GCC/ARM_CM4F/portmacro.h ****     1 tab == 4 spaces!
  68:Middlewares/Third_Party/FreeRTOS/Source/portable/GCC/ARM_CM4F/portmacro.h **** */
  69:Middlewares/Third_Party/FreeRTOS/Source/portable/GCC/ARM_CM4F/portmacro.h **** 
  70:Middlewares/Third_Party/FreeRTOS/Source/portable/GCC/ARM_CM4F/portmacro.h **** 
  71:Middlewares/Third_Party/FreeRTOS/Source/portable/GCC/ARM_CM4F/portmacro.h **** #ifndef PORTMACRO_H
  72:Middlewares/Third_Party/FreeRTOS/Source/portable/GCC/ARM_CM4F/portmacro.h **** #define PORTMACRO_H
  73:Middlewares/Third_Party/FreeRTOS/Source/portable/GCC/ARM_CM4F/portmacro.h **** 
  74:Middlewares/Third_Party/FreeRTOS/Source/portable/GCC/ARM_CM4F/portmacro.h **** #ifdef __cplusplus
  75:Middlewares/Third_Party/FreeRTOS/Source/portable/GCC/ARM_CM4F/portmacro.h **** extern "C" {
  76:Middlewares/Third_Party/FreeRTOS/Source/portable/GCC/ARM_CM4F/portmacro.h **** #endif
  77:Middlewares/Third_Party/FreeRTOS/Source/portable/GCC/ARM_CM4F/portmacro.h **** 
  78:Middlewares/Third_Party/FreeRTOS/Source/portable/GCC/ARM_CM4F/portmacro.h **** /*-----------------------------------------------------------
  79:Middlewares/Third_Party/FreeRTOS/Source/portable/GCC/ARM_CM4F/portmacro.h ****  * Port specific definitions.
  80:Middlewares/Third_Party/FreeRTOS/Source/portable/GCC/ARM_CM4F/portmacro.h ****  *
  81:Middlewares/Third_Party/FreeRTOS/Source/portable/GCC/ARM_CM4F/portmacro.h ****  * The settings in this file configure FreeRTOS correctly for the
  82:Middlewares/Third_Party/FreeRTOS/Source/portable/GCC/ARM_CM4F/portmacro.h ****  * given hardware and compiler.
  83:Middlewares/Third_Party/FreeRTOS/Source/portable/GCC/ARM_CM4F/portmacro.h ****  *
  84:Middlewares/Third_Party/FreeRTOS/Source/portable/GCC/ARM_CM4F/portmacro.h ****  * These settings should not be altered.
  85:Middlewares/Third_Party/FreeRTOS/Source/portable/GCC/ARM_CM4F/portmacro.h ****  *-----------------------------------------------------------
  86:Middlewares/Third_Party/FreeRTOS/Source/portable/GCC/ARM_CM4F/portmacro.h ****  */
  87:Middlewares/Third_Party/FreeRTOS/Source/portable/GCC/ARM_CM4F/portmacro.h **** 
  88:Middlewares/Third_Party/FreeRTOS/Source/portable/GCC/ARM_CM4F/portmacro.h **** /* Type definitions. */
  89:Middlewares/Third_Party/FreeRTOS/Source/portable/GCC/ARM_CM4F/portmacro.h **** #define portCHAR		char
  90:Middlewares/Third_Party/FreeRTOS/Source/portable/GCC/ARM_CM4F/portmacro.h **** #define portFLOAT		float
  91:Middlewares/Third_Party/FreeRTOS/Source/portable/GCC/ARM_CM4F/portmacro.h **** #define portDOUBLE		double
ARM GAS  /var/folders/n1/76bg37b13ls08p1dhb9rhvd40000gn/T//ccS6mBld.s 			page 8


  92:Middlewares/Third_Party/FreeRTOS/Source/portable/GCC/ARM_CM4F/portmacro.h **** #define portLONG		long
  93:Middlewares/Third_Party/FreeRTOS/Source/portable/GCC/ARM_CM4F/portmacro.h **** #define portSHORT		short
  94:Middlewares/Third_Party/FreeRTOS/Source/portable/GCC/ARM_CM4F/portmacro.h **** #define portSTACK_TYPE	uint32_t
  95:Middlewares/Third_Party/FreeRTOS/Source/portable/GCC/ARM_CM4F/portmacro.h **** #define portBASE_TYPE	long
  96:Middlewares/Third_Party/FreeRTOS/Source/portable/GCC/ARM_CM4F/portmacro.h **** 
  97:Middlewares/Third_Party/FreeRTOS/Source/portable/GCC/ARM_CM4F/portmacro.h **** typedef portSTACK_TYPE StackType_t;
  98:Middlewares/Third_Party/FreeRTOS/Source/portable/GCC/ARM_CM4F/portmacro.h **** typedef long BaseType_t;
  99:Middlewares/Third_Party/FreeRTOS/Source/portable/GCC/ARM_CM4F/portmacro.h **** typedef unsigned long UBaseType_t;
 100:Middlewares/Third_Party/FreeRTOS/Source/portable/GCC/ARM_CM4F/portmacro.h **** 
 101:Middlewares/Third_Party/FreeRTOS/Source/portable/GCC/ARM_CM4F/portmacro.h **** #if( configUSE_16_BIT_TICKS == 1 )
 102:Middlewares/Third_Party/FreeRTOS/Source/portable/GCC/ARM_CM4F/portmacro.h **** 	typedef uint16_t TickType_t;
 103:Middlewares/Third_Party/FreeRTOS/Source/portable/GCC/ARM_CM4F/portmacro.h **** 	#define portMAX_DELAY ( TickType_t ) 0xffff
 104:Middlewares/Third_Party/FreeRTOS/Source/portable/GCC/ARM_CM4F/portmacro.h **** #else
 105:Middlewares/Third_Party/FreeRTOS/Source/portable/GCC/ARM_CM4F/portmacro.h **** 	typedef uint32_t TickType_t;
 106:Middlewares/Third_Party/FreeRTOS/Source/portable/GCC/ARM_CM4F/portmacro.h **** 	#define portMAX_DELAY ( TickType_t ) 0xffffffffUL
 107:Middlewares/Third_Party/FreeRTOS/Source/portable/GCC/ARM_CM4F/portmacro.h **** 
 108:Middlewares/Third_Party/FreeRTOS/Source/portable/GCC/ARM_CM4F/portmacro.h **** 	/* 32-bit tick type on a 32-bit architecture, so reads of the tick count do
 109:Middlewares/Third_Party/FreeRTOS/Source/portable/GCC/ARM_CM4F/portmacro.h **** 	not need to be guarded with a critical section. */
 110:Middlewares/Third_Party/FreeRTOS/Source/portable/GCC/ARM_CM4F/portmacro.h **** 	#define portTICK_TYPE_IS_ATOMIC 1
 111:Middlewares/Third_Party/FreeRTOS/Source/portable/GCC/ARM_CM4F/portmacro.h **** #endif
 112:Middlewares/Third_Party/FreeRTOS/Source/portable/GCC/ARM_CM4F/portmacro.h **** /*-----------------------------------------------------------*/
 113:Middlewares/Third_Party/FreeRTOS/Source/portable/GCC/ARM_CM4F/portmacro.h **** 
 114:Middlewares/Third_Party/FreeRTOS/Source/portable/GCC/ARM_CM4F/portmacro.h **** /* Architecture specifics. */
 115:Middlewares/Third_Party/FreeRTOS/Source/portable/GCC/ARM_CM4F/portmacro.h **** #define portSTACK_GROWTH			( -1 )
 116:Middlewares/Third_Party/FreeRTOS/Source/portable/GCC/ARM_CM4F/portmacro.h **** #define portTICK_PERIOD_MS			( ( TickType_t ) 1000 / configTICK_RATE_HZ )
 117:Middlewares/Third_Party/FreeRTOS/Source/portable/GCC/ARM_CM4F/portmacro.h **** #define portBYTE_ALIGNMENT			8
 118:Middlewares/Third_Party/FreeRTOS/Source/portable/GCC/ARM_CM4F/portmacro.h **** /*-----------------------------------------------------------*/
 119:Middlewares/Third_Party/FreeRTOS/Source/portable/GCC/ARM_CM4F/portmacro.h **** 
 120:Middlewares/Third_Party/FreeRTOS/Source/portable/GCC/ARM_CM4F/portmacro.h **** /* Scheduler utilities. */
 121:Middlewares/Third_Party/FreeRTOS/Source/portable/GCC/ARM_CM4F/portmacro.h **** #define portYIELD() 															\
 122:Middlewares/Third_Party/FreeRTOS/Source/portable/GCC/ARM_CM4F/portmacro.h **** {																				\
 123:Middlewares/Third_Party/FreeRTOS/Source/portable/GCC/ARM_CM4F/portmacro.h **** 	/* Set a PendSV to request a context switch. */								\
 124:Middlewares/Third_Party/FreeRTOS/Source/portable/GCC/ARM_CM4F/portmacro.h **** 	portNVIC_INT_CTRL_REG = portNVIC_PENDSVSET_BIT;								\
 125:Middlewares/Third_Party/FreeRTOS/Source/portable/GCC/ARM_CM4F/portmacro.h **** 																				\
 126:Middlewares/Third_Party/FreeRTOS/Source/portable/GCC/ARM_CM4F/portmacro.h **** 	/* Barriers are normally not required but do ensure the code is completely	\
 127:Middlewares/Third_Party/FreeRTOS/Source/portable/GCC/ARM_CM4F/portmacro.h **** 	within the specified behaviour for the architecture. */						\
 128:Middlewares/Third_Party/FreeRTOS/Source/portable/GCC/ARM_CM4F/portmacro.h **** 	__asm volatile( "dsb" );													\
 129:Middlewares/Third_Party/FreeRTOS/Source/portable/GCC/ARM_CM4F/portmacro.h **** 	__asm volatile( "isb" );													\
 130:Middlewares/Third_Party/FreeRTOS/Source/portable/GCC/ARM_CM4F/portmacro.h **** }
 131:Middlewares/Third_Party/FreeRTOS/Source/portable/GCC/ARM_CM4F/portmacro.h **** 
 132:Middlewares/Third_Party/FreeRTOS/Source/portable/GCC/ARM_CM4F/portmacro.h **** #define portNVIC_INT_CTRL_REG		( * ( ( volatile uint32_t * ) 0xe000ed04 ) )
 133:Middlewares/Third_Party/FreeRTOS/Source/portable/GCC/ARM_CM4F/portmacro.h **** #define portNVIC_PENDSVSET_BIT		( 1UL << 28UL )
 134:Middlewares/Third_Party/FreeRTOS/Source/portable/GCC/ARM_CM4F/portmacro.h **** #define portEND_SWITCHING_ISR( xSwitchRequired ) if( xSwitchRequired != pdFALSE ) portYIELD()
 135:Middlewares/Third_Party/FreeRTOS/Source/portable/GCC/ARM_CM4F/portmacro.h **** #define portYIELD_FROM_ISR( x ) portEND_SWITCHING_ISR( x )
 136:Middlewares/Third_Party/FreeRTOS/Source/portable/GCC/ARM_CM4F/portmacro.h **** /*-----------------------------------------------------------*/
 137:Middlewares/Third_Party/FreeRTOS/Source/portable/GCC/ARM_CM4F/portmacro.h **** 
 138:Middlewares/Third_Party/FreeRTOS/Source/portable/GCC/ARM_CM4F/portmacro.h **** /* Critical section management. */
 139:Middlewares/Third_Party/FreeRTOS/Source/portable/GCC/ARM_CM4F/portmacro.h **** extern void vPortEnterCritical( void );
 140:Middlewares/Third_Party/FreeRTOS/Source/portable/GCC/ARM_CM4F/portmacro.h **** extern void vPortExitCritical( void );
 141:Middlewares/Third_Party/FreeRTOS/Source/portable/GCC/ARM_CM4F/portmacro.h **** #define portSET_INTERRUPT_MASK_FROM_ISR()		ulPortRaiseBASEPRI()
 142:Middlewares/Third_Party/FreeRTOS/Source/portable/GCC/ARM_CM4F/portmacro.h **** #define portCLEAR_INTERRUPT_MASK_FROM_ISR(x)	vPortSetBASEPRI(x)
 143:Middlewares/Third_Party/FreeRTOS/Source/portable/GCC/ARM_CM4F/portmacro.h **** #define portDISABLE_INTERRUPTS()				vPortRaiseBASEPRI()
 144:Middlewares/Third_Party/FreeRTOS/Source/portable/GCC/ARM_CM4F/portmacro.h **** #define portENABLE_INTERRUPTS()					vPortSetBASEPRI(0)
 145:Middlewares/Third_Party/FreeRTOS/Source/portable/GCC/ARM_CM4F/portmacro.h **** #define portENTER_CRITICAL()					vPortEnterCritical()
 146:Middlewares/Third_Party/FreeRTOS/Source/portable/GCC/ARM_CM4F/portmacro.h **** #define portEXIT_CRITICAL()						vPortExitCritical()
 147:Middlewares/Third_Party/FreeRTOS/Source/portable/GCC/ARM_CM4F/portmacro.h **** 
 148:Middlewares/Third_Party/FreeRTOS/Source/portable/GCC/ARM_CM4F/portmacro.h **** /*-----------------------------------------------------------*/
ARM GAS  /var/folders/n1/76bg37b13ls08p1dhb9rhvd40000gn/T//ccS6mBld.s 			page 9


 149:Middlewares/Third_Party/FreeRTOS/Source/portable/GCC/ARM_CM4F/portmacro.h **** 
 150:Middlewares/Third_Party/FreeRTOS/Source/portable/GCC/ARM_CM4F/portmacro.h **** /* Task function macros as described on the FreeRTOS.org WEB site.  These are
 151:Middlewares/Third_Party/FreeRTOS/Source/portable/GCC/ARM_CM4F/portmacro.h **** not necessary for to use this port.  They are defined so the common demo files
 152:Middlewares/Third_Party/FreeRTOS/Source/portable/GCC/ARM_CM4F/portmacro.h **** (which build with all the ports) will build. */
 153:Middlewares/Third_Party/FreeRTOS/Source/portable/GCC/ARM_CM4F/portmacro.h **** #define portTASK_FUNCTION_PROTO( vFunction, pvParameters ) void vFunction( void *pvParameters )
 154:Middlewares/Third_Party/FreeRTOS/Source/portable/GCC/ARM_CM4F/portmacro.h **** #define portTASK_FUNCTION( vFunction, pvParameters ) void vFunction( void *pvParameters )
 155:Middlewares/Third_Party/FreeRTOS/Source/portable/GCC/ARM_CM4F/portmacro.h **** /*-----------------------------------------------------------*/
 156:Middlewares/Third_Party/FreeRTOS/Source/portable/GCC/ARM_CM4F/portmacro.h **** 
 157:Middlewares/Third_Party/FreeRTOS/Source/portable/GCC/ARM_CM4F/portmacro.h **** /* Tickless idle/low power functionality. */
 158:Middlewares/Third_Party/FreeRTOS/Source/portable/GCC/ARM_CM4F/portmacro.h **** #ifndef portSUPPRESS_TICKS_AND_SLEEP
 159:Middlewares/Third_Party/FreeRTOS/Source/portable/GCC/ARM_CM4F/portmacro.h **** 	extern void vPortSuppressTicksAndSleep( TickType_t xExpectedIdleTime );
 160:Middlewares/Third_Party/FreeRTOS/Source/portable/GCC/ARM_CM4F/portmacro.h **** 	#define portSUPPRESS_TICKS_AND_SLEEP( xExpectedIdleTime ) vPortSuppressTicksAndSleep( xExpectedIdl
 161:Middlewares/Third_Party/FreeRTOS/Source/portable/GCC/ARM_CM4F/portmacro.h **** #endif
 162:Middlewares/Third_Party/FreeRTOS/Source/portable/GCC/ARM_CM4F/portmacro.h **** /*-----------------------------------------------------------*/
 163:Middlewares/Third_Party/FreeRTOS/Source/portable/GCC/ARM_CM4F/portmacro.h **** 
 164:Middlewares/Third_Party/FreeRTOS/Source/portable/GCC/ARM_CM4F/portmacro.h **** /* Architecture specific optimisations. */
 165:Middlewares/Third_Party/FreeRTOS/Source/portable/GCC/ARM_CM4F/portmacro.h **** #ifndef configUSE_PORT_OPTIMISED_TASK_SELECTION
 166:Middlewares/Third_Party/FreeRTOS/Source/portable/GCC/ARM_CM4F/portmacro.h **** 	#define configUSE_PORT_OPTIMISED_TASK_SELECTION 1
 167:Middlewares/Third_Party/FreeRTOS/Source/portable/GCC/ARM_CM4F/portmacro.h **** #endif
 168:Middlewares/Third_Party/FreeRTOS/Source/portable/GCC/ARM_CM4F/portmacro.h **** 
 169:Middlewares/Third_Party/FreeRTOS/Source/portable/GCC/ARM_CM4F/portmacro.h **** #if configUSE_PORT_OPTIMISED_TASK_SELECTION == 1
 170:Middlewares/Third_Party/FreeRTOS/Source/portable/GCC/ARM_CM4F/portmacro.h **** 
 171:Middlewares/Third_Party/FreeRTOS/Source/portable/GCC/ARM_CM4F/portmacro.h **** 	/* Generic helper function. */
 172:Middlewares/Third_Party/FreeRTOS/Source/portable/GCC/ARM_CM4F/portmacro.h **** 	__attribute__( ( always_inline ) ) static inline uint8_t ucPortCountLeadingZeros( uint32_t ulBitma
 173:Middlewares/Third_Party/FreeRTOS/Source/portable/GCC/ARM_CM4F/portmacro.h **** 	{
 174:Middlewares/Third_Party/FreeRTOS/Source/portable/GCC/ARM_CM4F/portmacro.h **** 	uint8_t ucReturn;
 175:Middlewares/Third_Party/FreeRTOS/Source/portable/GCC/ARM_CM4F/portmacro.h **** 
 176:Middlewares/Third_Party/FreeRTOS/Source/portable/GCC/ARM_CM4F/portmacro.h **** 		__asm volatile ( "clz %0, %1" : "=r" ( ucReturn ) : "r" ( ulBitmap ) );
 177:Middlewares/Third_Party/FreeRTOS/Source/portable/GCC/ARM_CM4F/portmacro.h **** 		return ucReturn;
 178:Middlewares/Third_Party/FreeRTOS/Source/portable/GCC/ARM_CM4F/portmacro.h **** 	}
 179:Middlewares/Third_Party/FreeRTOS/Source/portable/GCC/ARM_CM4F/portmacro.h **** 
 180:Middlewares/Third_Party/FreeRTOS/Source/portable/GCC/ARM_CM4F/portmacro.h **** 	/* Check the configuration. */
 181:Middlewares/Third_Party/FreeRTOS/Source/portable/GCC/ARM_CM4F/portmacro.h **** 	#if( configMAX_PRIORITIES > 32 )
 182:Middlewares/Third_Party/FreeRTOS/Source/portable/GCC/ARM_CM4F/portmacro.h **** 		#error configUSE_PORT_OPTIMISED_TASK_SELECTION can only be set to 1 when configMAX_PRIORITIES is 
 183:Middlewares/Third_Party/FreeRTOS/Source/portable/GCC/ARM_CM4F/portmacro.h **** 	#endif
 184:Middlewares/Third_Party/FreeRTOS/Source/portable/GCC/ARM_CM4F/portmacro.h **** 
 185:Middlewares/Third_Party/FreeRTOS/Source/portable/GCC/ARM_CM4F/portmacro.h **** 	/* Store/clear the ready priorities in a bit map. */
 186:Middlewares/Third_Party/FreeRTOS/Source/portable/GCC/ARM_CM4F/portmacro.h **** 	#define portRECORD_READY_PRIORITY( uxPriority, uxReadyPriorities ) ( uxReadyPriorities ) |= ( 1UL 
 187:Middlewares/Third_Party/FreeRTOS/Source/portable/GCC/ARM_CM4F/portmacro.h **** 	#define portRESET_READY_PRIORITY( uxPriority, uxReadyPriorities ) ( uxReadyPriorities ) &= ~( 1UL 
 188:Middlewares/Third_Party/FreeRTOS/Source/portable/GCC/ARM_CM4F/portmacro.h **** 
 189:Middlewares/Third_Party/FreeRTOS/Source/portable/GCC/ARM_CM4F/portmacro.h **** 	/*-----------------------------------------------------------*/
 190:Middlewares/Third_Party/FreeRTOS/Source/portable/GCC/ARM_CM4F/portmacro.h **** 
 191:Middlewares/Third_Party/FreeRTOS/Source/portable/GCC/ARM_CM4F/portmacro.h **** 	#define portGET_HIGHEST_PRIORITY( uxTopPriority, uxReadyPriorities ) uxTopPriority = ( 31UL - ( ui
 192:Middlewares/Third_Party/FreeRTOS/Source/portable/GCC/ARM_CM4F/portmacro.h **** 
 193:Middlewares/Third_Party/FreeRTOS/Source/portable/GCC/ARM_CM4F/portmacro.h **** #endif /* configUSE_PORT_OPTIMISED_TASK_SELECTION */
 194:Middlewares/Third_Party/FreeRTOS/Source/portable/GCC/ARM_CM4F/portmacro.h **** 
 195:Middlewares/Third_Party/FreeRTOS/Source/portable/GCC/ARM_CM4F/portmacro.h **** /*-----------------------------------------------------------*/
 196:Middlewares/Third_Party/FreeRTOS/Source/portable/GCC/ARM_CM4F/portmacro.h **** 
 197:Middlewares/Third_Party/FreeRTOS/Source/portable/GCC/ARM_CM4F/portmacro.h **** #ifdef configASSERT
 198:Middlewares/Third_Party/FreeRTOS/Source/portable/GCC/ARM_CM4F/portmacro.h **** 	void vPortValidateInterruptPriority( void );
 199:Middlewares/Third_Party/FreeRTOS/Source/portable/GCC/ARM_CM4F/portmacro.h **** 	#define portASSERT_IF_INTERRUPT_PRIORITY_INVALID() 	vPortValidateInterruptPriority()
 200:Middlewares/Third_Party/FreeRTOS/Source/portable/GCC/ARM_CM4F/portmacro.h **** #endif
 201:Middlewares/Third_Party/FreeRTOS/Source/portable/GCC/ARM_CM4F/portmacro.h **** 
 202:Middlewares/Third_Party/FreeRTOS/Source/portable/GCC/ARM_CM4F/portmacro.h **** /* portNOP() is not required by this port. */
 203:Middlewares/Third_Party/FreeRTOS/Source/portable/GCC/ARM_CM4F/portmacro.h **** #define portNOP()
 204:Middlewares/Third_Party/FreeRTOS/Source/portable/GCC/ARM_CM4F/portmacro.h **** 
 205:Middlewares/Third_Party/FreeRTOS/Source/portable/GCC/ARM_CM4F/portmacro.h **** #define portINLINE	__inline
ARM GAS  /var/folders/n1/76bg37b13ls08p1dhb9rhvd40000gn/T//ccS6mBld.s 			page 10


 206:Middlewares/Third_Party/FreeRTOS/Source/portable/GCC/ARM_CM4F/portmacro.h **** 
 207:Middlewares/Third_Party/FreeRTOS/Source/portable/GCC/ARM_CM4F/portmacro.h **** #ifndef portFORCE_INLINE
 208:Middlewares/Third_Party/FreeRTOS/Source/portable/GCC/ARM_CM4F/portmacro.h **** 	#define portFORCE_INLINE inline __attribute__(( always_inline))
 209:Middlewares/Third_Party/FreeRTOS/Source/portable/GCC/ARM_CM4F/portmacro.h **** #endif
 210:Middlewares/Third_Party/FreeRTOS/Source/portable/GCC/ARM_CM4F/portmacro.h **** 
 211:Middlewares/Third_Party/FreeRTOS/Source/portable/GCC/ARM_CM4F/portmacro.h **** portFORCE_INLINE static BaseType_t xPortIsInsideInterrupt( void )
 212:Middlewares/Third_Party/FreeRTOS/Source/portable/GCC/ARM_CM4F/portmacro.h **** {
 213:Middlewares/Third_Party/FreeRTOS/Source/portable/GCC/ARM_CM4F/portmacro.h **** uint32_t ulCurrentInterrupt;
 214:Middlewares/Third_Party/FreeRTOS/Source/portable/GCC/ARM_CM4F/portmacro.h **** BaseType_t xReturn;
 215:Middlewares/Third_Party/FreeRTOS/Source/portable/GCC/ARM_CM4F/portmacro.h **** 
 216:Middlewares/Third_Party/FreeRTOS/Source/portable/GCC/ARM_CM4F/portmacro.h **** 	/* Obtain the number of the currently executing interrupt. */
 217:Middlewares/Third_Party/FreeRTOS/Source/portable/GCC/ARM_CM4F/portmacro.h **** 	__asm volatile( "mrs %0, ipsr" : "=r"( ulCurrentInterrupt ) );
 218:Middlewares/Third_Party/FreeRTOS/Source/portable/GCC/ARM_CM4F/portmacro.h **** 
 219:Middlewares/Third_Party/FreeRTOS/Source/portable/GCC/ARM_CM4F/portmacro.h **** 	if( ulCurrentInterrupt == 0 )
 220:Middlewares/Third_Party/FreeRTOS/Source/portable/GCC/ARM_CM4F/portmacro.h **** 	{
 221:Middlewares/Third_Party/FreeRTOS/Source/portable/GCC/ARM_CM4F/portmacro.h **** 		xReturn = pdFALSE;
 222:Middlewares/Third_Party/FreeRTOS/Source/portable/GCC/ARM_CM4F/portmacro.h **** 	}
 223:Middlewares/Third_Party/FreeRTOS/Source/portable/GCC/ARM_CM4F/portmacro.h **** 	else
 224:Middlewares/Third_Party/FreeRTOS/Source/portable/GCC/ARM_CM4F/portmacro.h **** 	{
 225:Middlewares/Third_Party/FreeRTOS/Source/portable/GCC/ARM_CM4F/portmacro.h **** 		xReturn = pdTRUE;
 226:Middlewares/Third_Party/FreeRTOS/Source/portable/GCC/ARM_CM4F/portmacro.h **** 	}
 227:Middlewares/Third_Party/FreeRTOS/Source/portable/GCC/ARM_CM4F/portmacro.h **** 
 228:Middlewares/Third_Party/FreeRTOS/Source/portable/GCC/ARM_CM4F/portmacro.h **** 	return xReturn;
 229:Middlewares/Third_Party/FreeRTOS/Source/portable/GCC/ARM_CM4F/portmacro.h **** }
 230:Middlewares/Third_Party/FreeRTOS/Source/portable/GCC/ARM_CM4F/portmacro.h **** 
 231:Middlewares/Third_Party/FreeRTOS/Source/portable/GCC/ARM_CM4F/portmacro.h **** /*-----------------------------------------------------------*/
 232:Middlewares/Third_Party/FreeRTOS/Source/portable/GCC/ARM_CM4F/portmacro.h **** 
 233:Middlewares/Third_Party/FreeRTOS/Source/portable/GCC/ARM_CM4F/portmacro.h **** portFORCE_INLINE static void vPortRaiseBASEPRI( void )
  43              		.loc 2 233 30 view .LVU3
  44              	.LBB30:
 234:Middlewares/Third_Party/FreeRTOS/Source/portable/GCC/ARM_CM4F/portmacro.h **** {
 235:Middlewares/Third_Party/FreeRTOS/Source/portable/GCC/ARM_CM4F/portmacro.h **** uint32_t ulNewBASEPRI;
  45              		.loc 2 235 1 view .LVU4
 236:Middlewares/Third_Party/FreeRTOS/Source/portable/GCC/ARM_CM4F/portmacro.h **** 
 237:Middlewares/Third_Party/FreeRTOS/Source/portable/GCC/ARM_CM4F/portmacro.h **** 	__asm volatile
  46              		.loc 2 237 2 view .LVU5
  47              		.syntax unified
  48              	@ 237 "Middlewares/Third_Party/FreeRTOS/Source/portable/GCC/ARM_CM4F/portmacro.h" 1
  49 000a 4FF05003 			mov r3, #80												
  50 000e 83F31188 		msr basepri, r3											
  51 0012 BFF36F8F 		isb														
  52 0016 BFF34F8F 		dsb														
  53              	
  54              	@ 0 "" 2
  55              	.LVL0:
  56              		.thumb
  57              		.syntax unified
  58              	.L3:
  59              		.loc 2 237 2 is_stmt 0 view .LVU6
  60              	.LBE30:
  61              	.LBE29:
  62              		.loc 1 267 2 is_stmt 1 discriminator 1 view .LVU7
  63              		.loc 1 267 2 discriminator 1 view .LVU8
  64 001a FEE7     		b	.L3
  65              	.L2:
  66              		.loc 1 267 43 view .LVU9
 268:Middlewares/Third_Party/FreeRTOS/Source/portable/GCC/ARM_CM4F/port.c **** 	portDISABLE_INTERRUPTS();
ARM GAS  /var/folders/n1/76bg37b13ls08p1dhb9rhvd40000gn/T//ccS6mBld.s 			page 11


  67              		.loc 1 268 2 view .LVU10
  68              	.LBB31:
  69              	.LBI31:
 233:Middlewares/Third_Party/FreeRTOS/Source/portable/GCC/ARM_CM4F/portmacro.h **** {
  70              		.loc 2 233 30 view .LVU11
  71              	.LBB32:
 235:Middlewares/Third_Party/FreeRTOS/Source/portable/GCC/ARM_CM4F/portmacro.h **** 
  72              		.loc 2 235 1 view .LVU12
  73              		.loc 2 237 2 view .LVU13
  74              		.syntax unified
  75              	@ 237 "Middlewares/Third_Party/FreeRTOS/Source/portable/GCC/ARM_CM4F/portmacro.h" 1
  76 001c 4FF05003 			mov r3, #80												
  77 0020 83F31188 		msr basepri, r3											
  78 0024 BFF36F8F 		isb														
  79 0028 BFF34F8F 		dsb														
  80              	
  81              	@ 0 "" 2
  82              	.LVL1:
  83              		.thumb
  84              		.syntax unified
  85              	.L4:
  86              		.loc 2 237 2 is_stmt 0 view .LVU14
  87              	.LBE32:
  88              	.LBE31:
 269:Middlewares/Third_Party/FreeRTOS/Source/portable/GCC/ARM_CM4F/port.c **** 	for( ;; );
  89              		.loc 1 269 2 is_stmt 1 discriminator 2 view .LVU15
  90              		.loc 1 269 11 discriminator 2 view .LVU16
  91 002c FEE7     		b	.L4
  92              	.L6:
  93 002e 00BF     		.align	2
  94              	.L5:
  95 0030 00000000 		.word	.LANCHOR0
  96              		.cfi_endproc
  97              	.LFE6:
  99              		.section	.text.prvPortStartFirstTask,"ax",%progbits
 100              		.align	1
 101              		.syntax unified
 102              		.thumb
 103              		.thumb_func
 104              		.fpu fpv4-sp-d16
 106              	prvPortStartFirstTask:
 107              	.LFB8:
 270:Middlewares/Third_Party/FreeRTOS/Source/portable/GCC/ARM_CM4F/port.c **** }
 271:Middlewares/Third_Party/FreeRTOS/Source/portable/GCC/ARM_CM4F/port.c **** /*-----------------------------------------------------------*/
 272:Middlewares/Third_Party/FreeRTOS/Source/portable/GCC/ARM_CM4F/port.c **** 
 273:Middlewares/Third_Party/FreeRTOS/Source/portable/GCC/ARM_CM4F/port.c **** void vPortSVCHandler( void )
 274:Middlewares/Third_Party/FreeRTOS/Source/portable/GCC/ARM_CM4F/port.c **** {
 275:Middlewares/Third_Party/FreeRTOS/Source/portable/GCC/ARM_CM4F/port.c **** 	__asm volatile (
 276:Middlewares/Third_Party/FreeRTOS/Source/portable/GCC/ARM_CM4F/port.c **** 					"	ldr	r3, pxCurrentTCBConst2		\n" /* Restore the context. */
 277:Middlewares/Third_Party/FreeRTOS/Source/portable/GCC/ARM_CM4F/port.c **** 					"	ldr r1, [r3]					\n" /* Use pxCurrentTCBConst to get the pxCurrentTCB address. */
 278:Middlewares/Third_Party/FreeRTOS/Source/portable/GCC/ARM_CM4F/port.c **** 					"	ldr r0, [r1]					\n" /* The first item in pxCurrentTCB is the task top of stack. */
 279:Middlewares/Third_Party/FreeRTOS/Source/portable/GCC/ARM_CM4F/port.c **** 					"	ldmia r0!, {r4-r11, r14}		\n" /* Pop the registers that are not automatically saved on excep
 280:Middlewares/Third_Party/FreeRTOS/Source/portable/GCC/ARM_CM4F/port.c **** 					"	msr psp, r0						\n" /* Restore the task stack pointer. */
 281:Middlewares/Third_Party/FreeRTOS/Source/portable/GCC/ARM_CM4F/port.c **** 					"	isb								\n"
 282:Middlewares/Third_Party/FreeRTOS/Source/portable/GCC/ARM_CM4F/port.c **** 					"	mov r0, #0 						\n"
 283:Middlewares/Third_Party/FreeRTOS/Source/portable/GCC/ARM_CM4F/port.c **** 					"	msr	basepri, r0					\n"
 284:Middlewares/Third_Party/FreeRTOS/Source/portable/GCC/ARM_CM4F/port.c **** 					"	bx r14							\n"
ARM GAS  /var/folders/n1/76bg37b13ls08p1dhb9rhvd40000gn/T//ccS6mBld.s 			page 12


 285:Middlewares/Third_Party/FreeRTOS/Source/portable/GCC/ARM_CM4F/port.c **** 					"									\n"
 286:Middlewares/Third_Party/FreeRTOS/Source/portable/GCC/ARM_CM4F/port.c **** 					"	.align 4						\n"
 287:Middlewares/Third_Party/FreeRTOS/Source/portable/GCC/ARM_CM4F/port.c **** 					"pxCurrentTCBConst2: .word pxCurrentTCB				\n"
 288:Middlewares/Third_Party/FreeRTOS/Source/portable/GCC/ARM_CM4F/port.c **** 				);
 289:Middlewares/Third_Party/FreeRTOS/Source/portable/GCC/ARM_CM4F/port.c **** }
 290:Middlewares/Third_Party/FreeRTOS/Source/portable/GCC/ARM_CM4F/port.c **** /*-----------------------------------------------------------*/
 291:Middlewares/Third_Party/FreeRTOS/Source/portable/GCC/ARM_CM4F/port.c **** 
 292:Middlewares/Third_Party/FreeRTOS/Source/portable/GCC/ARM_CM4F/port.c **** static void prvPortStartFirstTask( void )
 293:Middlewares/Third_Party/FreeRTOS/Source/portable/GCC/ARM_CM4F/port.c **** {
 108              		.loc 1 293 1 view -0
 109              		.cfi_startproc
 110              		@ Naked Function: prologue and epilogue provided by programmer.
 111              		@ args = 0, pretend = 0, frame = 0
 112              		@ frame_needed = 0, uses_anonymous_args = 0
 294:Middlewares/Third_Party/FreeRTOS/Source/portable/GCC/ARM_CM4F/port.c **** 	__asm volatile(
 113              		.loc 1 294 2 view .LVU18
 114              		.syntax unified
 115              	@ 294 "Middlewares/Third_Party/FreeRTOS/Source/portable/GCC/ARM_CM4F/port.c" 1
 116 0000 0648     		 ldr r0, =0xE000ED08 	
 117 0002 0068     	 ldr r0, [r0] 			
 118 0004 0068     	 ldr r0, [r0] 			
 119 0006 80F30888 	 msr msp, r0			
 120 000a 62B6     	 cpsie i				
 121 000c 61B6     	 cpsie f				
 122 000e BFF34F8F 	 dsb					
 123 0012 BFF36F8F 	 isb					
 124 0016 00DF     	 svc 0					
 125 0018 00BF     	 nop					
 126              	
 127              	@ 0 "" 2
 295:Middlewares/Third_Party/FreeRTOS/Source/portable/GCC/ARM_CM4F/port.c **** 					" ldr r0, =0xE000ED08 	\n" /* Use the NVIC offset register to locate the stack. */
 296:Middlewares/Third_Party/FreeRTOS/Source/portable/GCC/ARM_CM4F/port.c **** 					" ldr r0, [r0] 			\n"
 297:Middlewares/Third_Party/FreeRTOS/Source/portable/GCC/ARM_CM4F/port.c **** 					" ldr r0, [r0] 			\n"
 298:Middlewares/Third_Party/FreeRTOS/Source/portable/GCC/ARM_CM4F/port.c **** 					" msr msp, r0			\n" /* Set the msp back to the start of the stack. */
 299:Middlewares/Third_Party/FreeRTOS/Source/portable/GCC/ARM_CM4F/port.c **** 					" cpsie i				\n" /* Globally enable interrupts. */
 300:Middlewares/Third_Party/FreeRTOS/Source/portable/GCC/ARM_CM4F/port.c **** 					" cpsie f				\n"
 301:Middlewares/Third_Party/FreeRTOS/Source/portable/GCC/ARM_CM4F/port.c **** 					" dsb					\n"
 302:Middlewares/Third_Party/FreeRTOS/Source/portable/GCC/ARM_CM4F/port.c **** 					" isb					\n"
 303:Middlewares/Third_Party/FreeRTOS/Source/portable/GCC/ARM_CM4F/port.c **** 					" svc 0					\n" /* System call to start first task. */
 304:Middlewares/Third_Party/FreeRTOS/Source/portable/GCC/ARM_CM4F/port.c **** 					" nop					\n"
 305:Middlewares/Third_Party/FreeRTOS/Source/portable/GCC/ARM_CM4F/port.c **** 				);
 306:Middlewares/Third_Party/FreeRTOS/Source/portable/GCC/ARM_CM4F/port.c **** }
 128              		.loc 1 306 1 is_stmt 0 view .LVU19
 129              		.thumb
 130              		.syntax unified
 131              		.cfi_endproc
 132              	.LFE8:
 134 001a 0000     		.section	.text.vPortEnableVFP,"ax",%progbits
 135              		.align	1
 136              		.syntax unified
 137              		.thumb
 138              		.thumb_func
 139              		.fpu fpv4-sp-d16
 141              	vPortEnableVFP:
 142              	.LFB16:
 307:Middlewares/Third_Party/FreeRTOS/Source/portable/GCC/ARM_CM4F/port.c **** /*-----------------------------------------------------------*/
 308:Middlewares/Third_Party/FreeRTOS/Source/portable/GCC/ARM_CM4F/port.c **** 
ARM GAS  /var/folders/n1/76bg37b13ls08p1dhb9rhvd40000gn/T//ccS6mBld.s 			page 13


 309:Middlewares/Third_Party/FreeRTOS/Source/portable/GCC/ARM_CM4F/port.c **** /*
 310:Middlewares/Third_Party/FreeRTOS/Source/portable/GCC/ARM_CM4F/port.c ****  * See header file for description.
 311:Middlewares/Third_Party/FreeRTOS/Source/portable/GCC/ARM_CM4F/port.c ****  */
 312:Middlewares/Third_Party/FreeRTOS/Source/portable/GCC/ARM_CM4F/port.c **** BaseType_t xPortStartScheduler( void )
 313:Middlewares/Third_Party/FreeRTOS/Source/portable/GCC/ARM_CM4F/port.c **** {
 314:Middlewares/Third_Party/FreeRTOS/Source/portable/GCC/ARM_CM4F/port.c **** 	/* configMAX_SYSCALL_INTERRUPT_PRIORITY must not be set to 0.
 315:Middlewares/Third_Party/FreeRTOS/Source/portable/GCC/ARM_CM4F/port.c **** 	See http://www.FreeRTOS.org/RTOS-Cortex-M3-M4.html */
 316:Middlewares/Third_Party/FreeRTOS/Source/portable/GCC/ARM_CM4F/port.c **** 	configASSERT( configMAX_SYSCALL_INTERRUPT_PRIORITY );
 317:Middlewares/Third_Party/FreeRTOS/Source/portable/GCC/ARM_CM4F/port.c **** 
 318:Middlewares/Third_Party/FreeRTOS/Source/portable/GCC/ARM_CM4F/port.c **** 	/* This port can be used on all revisions of the Cortex-M7 core other than
 319:Middlewares/Third_Party/FreeRTOS/Source/portable/GCC/ARM_CM4F/port.c **** 	the r0p1 parts.  r0p1 parts should use the port from the
 320:Middlewares/Third_Party/FreeRTOS/Source/portable/GCC/ARM_CM4F/port.c **** 	/source/portable/GCC/ARM_CM7/r0p1 directory. */
 321:Middlewares/Third_Party/FreeRTOS/Source/portable/GCC/ARM_CM4F/port.c **** 	configASSERT( portCPUID != portCORTEX_M7_r0p1_ID );
 322:Middlewares/Third_Party/FreeRTOS/Source/portable/GCC/ARM_CM4F/port.c **** 	configASSERT( portCPUID != portCORTEX_M7_r0p0_ID );
 323:Middlewares/Third_Party/FreeRTOS/Source/portable/GCC/ARM_CM4F/port.c **** 
 324:Middlewares/Third_Party/FreeRTOS/Source/portable/GCC/ARM_CM4F/port.c **** 	#if( configASSERT_DEFINED == 1 )
 325:Middlewares/Third_Party/FreeRTOS/Source/portable/GCC/ARM_CM4F/port.c **** 	{
 326:Middlewares/Third_Party/FreeRTOS/Source/portable/GCC/ARM_CM4F/port.c **** 		volatile uint32_t ulOriginalPriority;
 327:Middlewares/Third_Party/FreeRTOS/Source/portable/GCC/ARM_CM4F/port.c **** 		volatile uint8_t * const pucFirstUserPriorityRegister = ( volatile uint8_t * const ) ( portNVIC_I
 328:Middlewares/Third_Party/FreeRTOS/Source/portable/GCC/ARM_CM4F/port.c **** 		volatile uint8_t ucMaxPriorityValue;
 329:Middlewares/Third_Party/FreeRTOS/Source/portable/GCC/ARM_CM4F/port.c **** 
 330:Middlewares/Third_Party/FreeRTOS/Source/portable/GCC/ARM_CM4F/port.c **** 		/* Determine the maximum priority from which ISR safe FreeRTOS API
 331:Middlewares/Third_Party/FreeRTOS/Source/portable/GCC/ARM_CM4F/port.c **** 		functions can be called.  ISR safe functions are those that end in
 332:Middlewares/Third_Party/FreeRTOS/Source/portable/GCC/ARM_CM4F/port.c **** 		"FromISR".  FreeRTOS maintains separate thread and ISR API functions to
 333:Middlewares/Third_Party/FreeRTOS/Source/portable/GCC/ARM_CM4F/port.c **** 		ensure interrupt entry is as fast and simple as possible.
 334:Middlewares/Third_Party/FreeRTOS/Source/portable/GCC/ARM_CM4F/port.c **** 
 335:Middlewares/Third_Party/FreeRTOS/Source/portable/GCC/ARM_CM4F/port.c **** 		Save the interrupt priority value that is about to be clobbered. */
 336:Middlewares/Third_Party/FreeRTOS/Source/portable/GCC/ARM_CM4F/port.c **** 		ulOriginalPriority = *pucFirstUserPriorityRegister;
 337:Middlewares/Third_Party/FreeRTOS/Source/portable/GCC/ARM_CM4F/port.c **** 
 338:Middlewares/Third_Party/FreeRTOS/Source/portable/GCC/ARM_CM4F/port.c **** 		/* Determine the number of priority bits available.  First write to all
 339:Middlewares/Third_Party/FreeRTOS/Source/portable/GCC/ARM_CM4F/port.c **** 		possible bits. */
 340:Middlewares/Third_Party/FreeRTOS/Source/portable/GCC/ARM_CM4F/port.c **** 		*pucFirstUserPriorityRegister = portMAX_8_BIT_VALUE;
 341:Middlewares/Third_Party/FreeRTOS/Source/portable/GCC/ARM_CM4F/port.c **** 
 342:Middlewares/Third_Party/FreeRTOS/Source/portable/GCC/ARM_CM4F/port.c **** 		/* Read the value back to see how many bits stuck. */
 343:Middlewares/Third_Party/FreeRTOS/Source/portable/GCC/ARM_CM4F/port.c **** 		ucMaxPriorityValue = *pucFirstUserPriorityRegister;
 344:Middlewares/Third_Party/FreeRTOS/Source/portable/GCC/ARM_CM4F/port.c **** 
 345:Middlewares/Third_Party/FreeRTOS/Source/portable/GCC/ARM_CM4F/port.c **** 		/* Use the same mask on the maximum system call priority. */
 346:Middlewares/Third_Party/FreeRTOS/Source/portable/GCC/ARM_CM4F/port.c **** 		ucMaxSysCallPriority = configMAX_SYSCALL_INTERRUPT_PRIORITY & ucMaxPriorityValue;
 347:Middlewares/Third_Party/FreeRTOS/Source/portable/GCC/ARM_CM4F/port.c **** 
 348:Middlewares/Third_Party/FreeRTOS/Source/portable/GCC/ARM_CM4F/port.c **** 		/* Calculate the maximum acceptable priority group value for the number
 349:Middlewares/Third_Party/FreeRTOS/Source/portable/GCC/ARM_CM4F/port.c **** 		of bits read back. */
 350:Middlewares/Third_Party/FreeRTOS/Source/portable/GCC/ARM_CM4F/port.c **** 		ulMaxPRIGROUPValue = portMAX_PRIGROUP_BITS;
 351:Middlewares/Third_Party/FreeRTOS/Source/portable/GCC/ARM_CM4F/port.c **** 		while( ( ucMaxPriorityValue & portTOP_BIT_OF_BYTE ) == portTOP_BIT_OF_BYTE )
 352:Middlewares/Third_Party/FreeRTOS/Source/portable/GCC/ARM_CM4F/port.c **** 		{
 353:Middlewares/Third_Party/FreeRTOS/Source/portable/GCC/ARM_CM4F/port.c **** 			ulMaxPRIGROUPValue--;
 354:Middlewares/Third_Party/FreeRTOS/Source/portable/GCC/ARM_CM4F/port.c **** 			ucMaxPriorityValue <<= ( uint8_t ) 0x01;
 355:Middlewares/Third_Party/FreeRTOS/Source/portable/GCC/ARM_CM4F/port.c **** 		}
 356:Middlewares/Third_Party/FreeRTOS/Source/portable/GCC/ARM_CM4F/port.c **** 
 357:Middlewares/Third_Party/FreeRTOS/Source/portable/GCC/ARM_CM4F/port.c **** 		/* Shift the priority group value back to its position within the AIRCR
 358:Middlewares/Third_Party/FreeRTOS/Source/portable/GCC/ARM_CM4F/port.c **** 		register. */
 359:Middlewares/Third_Party/FreeRTOS/Source/portable/GCC/ARM_CM4F/port.c **** 		ulMaxPRIGROUPValue <<= portPRIGROUP_SHIFT;
 360:Middlewares/Third_Party/FreeRTOS/Source/portable/GCC/ARM_CM4F/port.c **** 		ulMaxPRIGROUPValue &= portPRIORITY_GROUP_MASK;
 361:Middlewares/Third_Party/FreeRTOS/Source/portable/GCC/ARM_CM4F/port.c **** 
 362:Middlewares/Third_Party/FreeRTOS/Source/portable/GCC/ARM_CM4F/port.c **** 		/* Restore the clobbered interrupt priority register to its original
 363:Middlewares/Third_Party/FreeRTOS/Source/portable/GCC/ARM_CM4F/port.c **** 		value. */
 364:Middlewares/Third_Party/FreeRTOS/Source/portable/GCC/ARM_CM4F/port.c **** 		*pucFirstUserPriorityRegister = ulOriginalPriority;
 365:Middlewares/Third_Party/FreeRTOS/Source/portable/GCC/ARM_CM4F/port.c **** 	}
ARM GAS  /var/folders/n1/76bg37b13ls08p1dhb9rhvd40000gn/T//ccS6mBld.s 			page 14


 366:Middlewares/Third_Party/FreeRTOS/Source/portable/GCC/ARM_CM4F/port.c **** 	#endif /* conifgASSERT_DEFINED */
 367:Middlewares/Third_Party/FreeRTOS/Source/portable/GCC/ARM_CM4F/port.c **** 
 368:Middlewares/Third_Party/FreeRTOS/Source/portable/GCC/ARM_CM4F/port.c **** 	/* Make PendSV and SysTick the lowest priority interrupts. */
 369:Middlewares/Third_Party/FreeRTOS/Source/portable/GCC/ARM_CM4F/port.c **** 	portNVIC_SYSPRI2_REG |= portNVIC_PENDSV_PRI;
 370:Middlewares/Third_Party/FreeRTOS/Source/portable/GCC/ARM_CM4F/port.c **** 	portNVIC_SYSPRI2_REG |= portNVIC_SYSTICK_PRI;
 371:Middlewares/Third_Party/FreeRTOS/Source/portable/GCC/ARM_CM4F/port.c **** 
 372:Middlewares/Third_Party/FreeRTOS/Source/portable/GCC/ARM_CM4F/port.c **** 	/* Start the timer that generates the tick ISR.  Interrupts are disabled
 373:Middlewares/Third_Party/FreeRTOS/Source/portable/GCC/ARM_CM4F/port.c **** 	here already. */
 374:Middlewares/Third_Party/FreeRTOS/Source/portable/GCC/ARM_CM4F/port.c **** 	vPortSetupTimerInterrupt();
 375:Middlewares/Third_Party/FreeRTOS/Source/portable/GCC/ARM_CM4F/port.c **** 
 376:Middlewares/Third_Party/FreeRTOS/Source/portable/GCC/ARM_CM4F/port.c **** 	/* Initialise the critical nesting count ready for the first task. */
 377:Middlewares/Third_Party/FreeRTOS/Source/portable/GCC/ARM_CM4F/port.c **** 	uxCriticalNesting = 0;
 378:Middlewares/Third_Party/FreeRTOS/Source/portable/GCC/ARM_CM4F/port.c **** 
 379:Middlewares/Third_Party/FreeRTOS/Source/portable/GCC/ARM_CM4F/port.c **** 	/* Ensure the VFP is enabled - it should be anyway. */
 380:Middlewares/Third_Party/FreeRTOS/Source/portable/GCC/ARM_CM4F/port.c **** 	vPortEnableVFP();
 381:Middlewares/Third_Party/FreeRTOS/Source/portable/GCC/ARM_CM4F/port.c **** 
 382:Middlewares/Third_Party/FreeRTOS/Source/portable/GCC/ARM_CM4F/port.c **** 	/* Lazy save always. */
 383:Middlewares/Third_Party/FreeRTOS/Source/portable/GCC/ARM_CM4F/port.c **** 	*( portFPCCR ) |= portASPEN_AND_LSPEN_BITS;
 384:Middlewares/Third_Party/FreeRTOS/Source/portable/GCC/ARM_CM4F/port.c **** 
 385:Middlewares/Third_Party/FreeRTOS/Source/portable/GCC/ARM_CM4F/port.c **** 	/* Start the first task. */
 386:Middlewares/Third_Party/FreeRTOS/Source/portable/GCC/ARM_CM4F/port.c **** 	prvPortStartFirstTask();
 387:Middlewares/Third_Party/FreeRTOS/Source/portable/GCC/ARM_CM4F/port.c **** 
 388:Middlewares/Third_Party/FreeRTOS/Source/portable/GCC/ARM_CM4F/port.c **** 	/* Should never get here as the tasks will now be executing!  Call the task
 389:Middlewares/Third_Party/FreeRTOS/Source/portable/GCC/ARM_CM4F/port.c **** 	exit error function to prevent compiler warnings about a static function
 390:Middlewares/Third_Party/FreeRTOS/Source/portable/GCC/ARM_CM4F/port.c **** 	not being called in the case that the application writer overrides this
 391:Middlewares/Third_Party/FreeRTOS/Source/portable/GCC/ARM_CM4F/port.c **** 	functionality by defining configTASK_RETURN_ADDRESS. */
 392:Middlewares/Third_Party/FreeRTOS/Source/portable/GCC/ARM_CM4F/port.c **** 	prvTaskExitError();
 393:Middlewares/Third_Party/FreeRTOS/Source/portable/GCC/ARM_CM4F/port.c **** 
 394:Middlewares/Third_Party/FreeRTOS/Source/portable/GCC/ARM_CM4F/port.c **** 	/* Should not get here! */
 395:Middlewares/Third_Party/FreeRTOS/Source/portable/GCC/ARM_CM4F/port.c **** 	return 0;
 396:Middlewares/Third_Party/FreeRTOS/Source/portable/GCC/ARM_CM4F/port.c **** }
 397:Middlewares/Third_Party/FreeRTOS/Source/portable/GCC/ARM_CM4F/port.c **** /*-----------------------------------------------------------*/
 398:Middlewares/Third_Party/FreeRTOS/Source/portable/GCC/ARM_CM4F/port.c **** 
 399:Middlewares/Third_Party/FreeRTOS/Source/portable/GCC/ARM_CM4F/port.c **** void vPortEndScheduler( void )
 400:Middlewares/Third_Party/FreeRTOS/Source/portable/GCC/ARM_CM4F/port.c **** {
 401:Middlewares/Third_Party/FreeRTOS/Source/portable/GCC/ARM_CM4F/port.c **** 	/* Not implemented in ports where there is nothing to return to.
 402:Middlewares/Third_Party/FreeRTOS/Source/portable/GCC/ARM_CM4F/port.c **** 	Artificially force an assert. */
 403:Middlewares/Third_Party/FreeRTOS/Source/portable/GCC/ARM_CM4F/port.c **** 	configASSERT( uxCriticalNesting == 1000UL );
 404:Middlewares/Third_Party/FreeRTOS/Source/portable/GCC/ARM_CM4F/port.c **** }
 405:Middlewares/Third_Party/FreeRTOS/Source/portable/GCC/ARM_CM4F/port.c **** /*-----------------------------------------------------------*/
 406:Middlewares/Third_Party/FreeRTOS/Source/portable/GCC/ARM_CM4F/port.c **** 
 407:Middlewares/Third_Party/FreeRTOS/Source/portable/GCC/ARM_CM4F/port.c **** void vPortEnterCritical( void )
 408:Middlewares/Third_Party/FreeRTOS/Source/portable/GCC/ARM_CM4F/port.c **** {
 409:Middlewares/Third_Party/FreeRTOS/Source/portable/GCC/ARM_CM4F/port.c **** 	portDISABLE_INTERRUPTS();
 410:Middlewares/Third_Party/FreeRTOS/Source/portable/GCC/ARM_CM4F/port.c **** 	uxCriticalNesting++;
 411:Middlewares/Third_Party/FreeRTOS/Source/portable/GCC/ARM_CM4F/port.c **** 
 412:Middlewares/Third_Party/FreeRTOS/Source/portable/GCC/ARM_CM4F/port.c **** 	/* This is not the interrupt safe version of the enter critical function so
 413:Middlewares/Third_Party/FreeRTOS/Source/portable/GCC/ARM_CM4F/port.c **** 	assert() if it is being called from an interrupt context.  Only API
 414:Middlewares/Third_Party/FreeRTOS/Source/portable/GCC/ARM_CM4F/port.c **** 	functions that end in "FromISR" can be used in an interrupt.  Only assert if
 415:Middlewares/Third_Party/FreeRTOS/Source/portable/GCC/ARM_CM4F/port.c **** 	the critical nesting count is 1 to protect against recursive calls if the
 416:Middlewares/Third_Party/FreeRTOS/Source/portable/GCC/ARM_CM4F/port.c **** 	assert function also uses a critical section. */
 417:Middlewares/Third_Party/FreeRTOS/Source/portable/GCC/ARM_CM4F/port.c **** 	if( uxCriticalNesting == 1 )
 418:Middlewares/Third_Party/FreeRTOS/Source/portable/GCC/ARM_CM4F/port.c **** 	{
 419:Middlewares/Third_Party/FreeRTOS/Source/portable/GCC/ARM_CM4F/port.c **** 		configASSERT( ( portNVIC_INT_CTRL_REG & portVECTACTIVE_MASK ) == 0 );
 420:Middlewares/Third_Party/FreeRTOS/Source/portable/GCC/ARM_CM4F/port.c **** 	}
 421:Middlewares/Third_Party/FreeRTOS/Source/portable/GCC/ARM_CM4F/port.c **** }
 422:Middlewares/Third_Party/FreeRTOS/Source/portable/GCC/ARM_CM4F/port.c **** /*-----------------------------------------------------------*/
ARM GAS  /var/folders/n1/76bg37b13ls08p1dhb9rhvd40000gn/T//ccS6mBld.s 			page 15


 423:Middlewares/Third_Party/FreeRTOS/Source/portable/GCC/ARM_CM4F/port.c **** 
 424:Middlewares/Third_Party/FreeRTOS/Source/portable/GCC/ARM_CM4F/port.c **** void vPortExitCritical( void )
 425:Middlewares/Third_Party/FreeRTOS/Source/portable/GCC/ARM_CM4F/port.c **** {
 426:Middlewares/Third_Party/FreeRTOS/Source/portable/GCC/ARM_CM4F/port.c **** 	configASSERT( uxCriticalNesting );
 427:Middlewares/Third_Party/FreeRTOS/Source/portable/GCC/ARM_CM4F/port.c **** 	uxCriticalNesting--;
 428:Middlewares/Third_Party/FreeRTOS/Source/portable/GCC/ARM_CM4F/port.c **** 	if( uxCriticalNesting == 0 )
 429:Middlewares/Third_Party/FreeRTOS/Source/portable/GCC/ARM_CM4F/port.c **** 	{
 430:Middlewares/Third_Party/FreeRTOS/Source/portable/GCC/ARM_CM4F/port.c **** 		portENABLE_INTERRUPTS();
 431:Middlewares/Third_Party/FreeRTOS/Source/portable/GCC/ARM_CM4F/port.c **** 	}
 432:Middlewares/Third_Party/FreeRTOS/Source/portable/GCC/ARM_CM4F/port.c **** }
 433:Middlewares/Third_Party/FreeRTOS/Source/portable/GCC/ARM_CM4F/port.c **** /*-----------------------------------------------------------*/
 434:Middlewares/Third_Party/FreeRTOS/Source/portable/GCC/ARM_CM4F/port.c **** 
 435:Middlewares/Third_Party/FreeRTOS/Source/portable/GCC/ARM_CM4F/port.c **** void xPortPendSVHandler( void )
 436:Middlewares/Third_Party/FreeRTOS/Source/portable/GCC/ARM_CM4F/port.c **** {
 437:Middlewares/Third_Party/FreeRTOS/Source/portable/GCC/ARM_CM4F/port.c **** 	/* This is a naked function. */
 438:Middlewares/Third_Party/FreeRTOS/Source/portable/GCC/ARM_CM4F/port.c **** 
 439:Middlewares/Third_Party/FreeRTOS/Source/portable/GCC/ARM_CM4F/port.c **** 	__asm volatile
 440:Middlewares/Third_Party/FreeRTOS/Source/portable/GCC/ARM_CM4F/port.c **** 	(
 441:Middlewares/Third_Party/FreeRTOS/Source/portable/GCC/ARM_CM4F/port.c **** 	"	mrs r0, psp							\n"
 442:Middlewares/Third_Party/FreeRTOS/Source/portable/GCC/ARM_CM4F/port.c **** 	"	isb									\n"
 443:Middlewares/Third_Party/FreeRTOS/Source/portable/GCC/ARM_CM4F/port.c **** 	"										\n"
 444:Middlewares/Third_Party/FreeRTOS/Source/portable/GCC/ARM_CM4F/port.c **** 	"	ldr	r3, pxCurrentTCBConst			\n" /* Get the location of the current TCB. */
 445:Middlewares/Third_Party/FreeRTOS/Source/portable/GCC/ARM_CM4F/port.c **** 	"	ldr	r2, [r3]						\n"
 446:Middlewares/Third_Party/FreeRTOS/Source/portable/GCC/ARM_CM4F/port.c **** 	"										\n"
 447:Middlewares/Third_Party/FreeRTOS/Source/portable/GCC/ARM_CM4F/port.c **** 	"	tst r14, #0x10						\n" /* Is the task using the FPU context?  If so, push high vfp registers. *
 448:Middlewares/Third_Party/FreeRTOS/Source/portable/GCC/ARM_CM4F/port.c **** 	"	it eq								\n"
 449:Middlewares/Third_Party/FreeRTOS/Source/portable/GCC/ARM_CM4F/port.c **** 	"	vstmdbeq r0!, {s16-s31}				\n"
 450:Middlewares/Third_Party/FreeRTOS/Source/portable/GCC/ARM_CM4F/port.c **** 	"										\n"
 451:Middlewares/Third_Party/FreeRTOS/Source/portable/GCC/ARM_CM4F/port.c **** 	"	stmdb r0!, {r4-r11, r14}			\n" /* Save the core registers. */
 452:Middlewares/Third_Party/FreeRTOS/Source/portable/GCC/ARM_CM4F/port.c **** 	"										\n"
 453:Middlewares/Third_Party/FreeRTOS/Source/portable/GCC/ARM_CM4F/port.c **** 	"	str r0, [r2]						\n" /* Save the new top of stack into the first member of the TCB. */
 454:Middlewares/Third_Party/FreeRTOS/Source/portable/GCC/ARM_CM4F/port.c **** 	"										\n"
 455:Middlewares/Third_Party/FreeRTOS/Source/portable/GCC/ARM_CM4F/port.c **** 	"	stmdb sp!, {r3}						\n"
 456:Middlewares/Third_Party/FreeRTOS/Source/portable/GCC/ARM_CM4F/port.c **** 	"	mov r0, %0 							\n"
 457:Middlewares/Third_Party/FreeRTOS/Source/portable/GCC/ARM_CM4F/port.c **** 	"	msr basepri, r0						\n"
 458:Middlewares/Third_Party/FreeRTOS/Source/portable/GCC/ARM_CM4F/port.c **** 	"	dsb									\n"
 459:Middlewares/Third_Party/FreeRTOS/Source/portable/GCC/ARM_CM4F/port.c **** 	"	isb									\n"
 460:Middlewares/Third_Party/FreeRTOS/Source/portable/GCC/ARM_CM4F/port.c **** 	"	bl vTaskSwitchContext				\n"
 461:Middlewares/Third_Party/FreeRTOS/Source/portable/GCC/ARM_CM4F/port.c **** 	"	mov r0, #0							\n"
 462:Middlewares/Third_Party/FreeRTOS/Source/portable/GCC/ARM_CM4F/port.c **** 	"	msr basepri, r0						\n"
 463:Middlewares/Third_Party/FreeRTOS/Source/portable/GCC/ARM_CM4F/port.c **** 	"	ldmia sp!, {r3}						\n"
 464:Middlewares/Third_Party/FreeRTOS/Source/portable/GCC/ARM_CM4F/port.c **** 	"										\n"
 465:Middlewares/Third_Party/FreeRTOS/Source/portable/GCC/ARM_CM4F/port.c **** 	"	ldr r1, [r3]						\n" /* The first item in pxCurrentTCB is the task top of stack. */
 466:Middlewares/Third_Party/FreeRTOS/Source/portable/GCC/ARM_CM4F/port.c **** 	"	ldr r0, [r1]						\n"
 467:Middlewares/Third_Party/FreeRTOS/Source/portable/GCC/ARM_CM4F/port.c **** 	"										\n"
 468:Middlewares/Third_Party/FreeRTOS/Source/portable/GCC/ARM_CM4F/port.c **** 	"	ldmia r0!, {r4-r11, r14}			\n" /* Pop the core registers. */
 469:Middlewares/Third_Party/FreeRTOS/Source/portable/GCC/ARM_CM4F/port.c **** 	"										\n"
 470:Middlewares/Third_Party/FreeRTOS/Source/portable/GCC/ARM_CM4F/port.c **** 	"	tst r14, #0x10						\n" /* Is the task using the FPU context?  If so, pop the high vfp registers
 471:Middlewares/Third_Party/FreeRTOS/Source/portable/GCC/ARM_CM4F/port.c **** 	"	it eq								\n"
 472:Middlewares/Third_Party/FreeRTOS/Source/portable/GCC/ARM_CM4F/port.c **** 	"	vldmiaeq r0!, {s16-s31}				\n"
 473:Middlewares/Third_Party/FreeRTOS/Source/portable/GCC/ARM_CM4F/port.c **** 	"										\n"
 474:Middlewares/Third_Party/FreeRTOS/Source/portable/GCC/ARM_CM4F/port.c **** 	"	msr psp, r0							\n"
 475:Middlewares/Third_Party/FreeRTOS/Source/portable/GCC/ARM_CM4F/port.c **** 	"	isb									\n"
 476:Middlewares/Third_Party/FreeRTOS/Source/portable/GCC/ARM_CM4F/port.c **** 	"										\n"
 477:Middlewares/Third_Party/FreeRTOS/Source/portable/GCC/ARM_CM4F/port.c **** 	#ifdef WORKAROUND_PMU_CM001 /* XMC4000 specific errata workaround. */
 478:Middlewares/Third_Party/FreeRTOS/Source/portable/GCC/ARM_CM4F/port.c **** 		#if WORKAROUND_PMU_CM001 == 1
 479:Middlewares/Third_Party/FreeRTOS/Source/portable/GCC/ARM_CM4F/port.c **** 	"			push { r14 }				\n"
ARM GAS  /var/folders/n1/76bg37b13ls08p1dhb9rhvd40000gn/T//ccS6mBld.s 			page 16


 480:Middlewares/Third_Party/FreeRTOS/Source/portable/GCC/ARM_CM4F/port.c **** 	"			pop { pc }					\n"
 481:Middlewares/Third_Party/FreeRTOS/Source/portable/GCC/ARM_CM4F/port.c **** 		#endif
 482:Middlewares/Third_Party/FreeRTOS/Source/portable/GCC/ARM_CM4F/port.c **** 	#endif
 483:Middlewares/Third_Party/FreeRTOS/Source/portable/GCC/ARM_CM4F/port.c **** 	"										\n"
 484:Middlewares/Third_Party/FreeRTOS/Source/portable/GCC/ARM_CM4F/port.c **** 	"	bx r14								\n"
 485:Middlewares/Third_Party/FreeRTOS/Source/portable/GCC/ARM_CM4F/port.c **** 	"										\n"
 486:Middlewares/Third_Party/FreeRTOS/Source/portable/GCC/ARM_CM4F/port.c **** 	"	.align 4							\n"
 487:Middlewares/Third_Party/FreeRTOS/Source/portable/GCC/ARM_CM4F/port.c **** 	"pxCurrentTCBConst: .word pxCurrentTCB	\n"
 488:Middlewares/Third_Party/FreeRTOS/Source/portable/GCC/ARM_CM4F/port.c **** 	::"i"(configMAX_SYSCALL_INTERRUPT_PRIORITY)
 489:Middlewares/Third_Party/FreeRTOS/Source/portable/GCC/ARM_CM4F/port.c **** 	);
 490:Middlewares/Third_Party/FreeRTOS/Source/portable/GCC/ARM_CM4F/port.c **** }
 491:Middlewares/Third_Party/FreeRTOS/Source/portable/GCC/ARM_CM4F/port.c **** /*-----------------------------------------------------------*/
 492:Middlewares/Third_Party/FreeRTOS/Source/portable/GCC/ARM_CM4F/port.c **** 
 493:Middlewares/Third_Party/FreeRTOS/Source/portable/GCC/ARM_CM4F/port.c **** void xPortSysTickHandler( void )
 494:Middlewares/Third_Party/FreeRTOS/Source/portable/GCC/ARM_CM4F/port.c **** {
 495:Middlewares/Third_Party/FreeRTOS/Source/portable/GCC/ARM_CM4F/port.c **** 	/* The SysTick runs at the lowest interrupt priority, so when this interrupt
 496:Middlewares/Third_Party/FreeRTOS/Source/portable/GCC/ARM_CM4F/port.c **** 	executes all interrupts must be unmasked.  There is therefore no need to
 497:Middlewares/Third_Party/FreeRTOS/Source/portable/GCC/ARM_CM4F/port.c **** 	save and then restore the interrupt mask value as its value is already
 498:Middlewares/Third_Party/FreeRTOS/Source/portable/GCC/ARM_CM4F/port.c **** 	known. */
 499:Middlewares/Third_Party/FreeRTOS/Source/portable/GCC/ARM_CM4F/port.c **** 	portDISABLE_INTERRUPTS();
 500:Middlewares/Third_Party/FreeRTOS/Source/portable/GCC/ARM_CM4F/port.c **** 	{
 501:Middlewares/Third_Party/FreeRTOS/Source/portable/GCC/ARM_CM4F/port.c **** 		/* Increment the RTOS tick. */
 502:Middlewares/Third_Party/FreeRTOS/Source/portable/GCC/ARM_CM4F/port.c **** 		if( xTaskIncrementTick() != pdFALSE )
 503:Middlewares/Third_Party/FreeRTOS/Source/portable/GCC/ARM_CM4F/port.c **** 		{
 504:Middlewares/Third_Party/FreeRTOS/Source/portable/GCC/ARM_CM4F/port.c **** 			/* A context switch is required.  Context switching is performed in
 505:Middlewares/Third_Party/FreeRTOS/Source/portable/GCC/ARM_CM4F/port.c **** 			the PendSV interrupt.  Pend the PendSV interrupt. */
 506:Middlewares/Third_Party/FreeRTOS/Source/portable/GCC/ARM_CM4F/port.c **** 			portNVIC_INT_CTRL_REG = portNVIC_PENDSVSET_BIT;
 507:Middlewares/Third_Party/FreeRTOS/Source/portable/GCC/ARM_CM4F/port.c **** 		}
 508:Middlewares/Third_Party/FreeRTOS/Source/portable/GCC/ARM_CM4F/port.c **** 	}
 509:Middlewares/Third_Party/FreeRTOS/Source/portable/GCC/ARM_CM4F/port.c **** 	portENABLE_INTERRUPTS();
 510:Middlewares/Third_Party/FreeRTOS/Source/portable/GCC/ARM_CM4F/port.c **** }
 511:Middlewares/Third_Party/FreeRTOS/Source/portable/GCC/ARM_CM4F/port.c **** /*-----------------------------------------------------------*/
 512:Middlewares/Third_Party/FreeRTOS/Source/portable/GCC/ARM_CM4F/port.c **** 
 513:Middlewares/Third_Party/FreeRTOS/Source/portable/GCC/ARM_CM4F/port.c **** #if configUSE_TICKLESS_IDLE == 1
 514:Middlewares/Third_Party/FreeRTOS/Source/portable/GCC/ARM_CM4F/port.c **** 
 515:Middlewares/Third_Party/FreeRTOS/Source/portable/GCC/ARM_CM4F/port.c **** 	__attribute__((weak)) void vPortSuppressTicksAndSleep( TickType_t xExpectedIdleTime )
 516:Middlewares/Third_Party/FreeRTOS/Source/portable/GCC/ARM_CM4F/port.c **** 	{
 517:Middlewares/Third_Party/FreeRTOS/Source/portable/GCC/ARM_CM4F/port.c **** 	uint32_t ulReloadValue, ulCompleteTickPeriods, ulCompletedSysTickDecrements, ulSysTickCTRL;
 518:Middlewares/Third_Party/FreeRTOS/Source/portable/GCC/ARM_CM4F/port.c **** 	TickType_t xModifiableIdleTime;
 519:Middlewares/Third_Party/FreeRTOS/Source/portable/GCC/ARM_CM4F/port.c **** 
 520:Middlewares/Third_Party/FreeRTOS/Source/portable/GCC/ARM_CM4F/port.c **** 		/* Make sure the SysTick reload value does not overflow the counter. */
 521:Middlewares/Third_Party/FreeRTOS/Source/portable/GCC/ARM_CM4F/port.c **** 		if( xExpectedIdleTime > xMaximumPossibleSuppressedTicks )
 522:Middlewares/Third_Party/FreeRTOS/Source/portable/GCC/ARM_CM4F/port.c **** 		{
 523:Middlewares/Third_Party/FreeRTOS/Source/portable/GCC/ARM_CM4F/port.c **** 			xExpectedIdleTime = xMaximumPossibleSuppressedTicks;
 524:Middlewares/Third_Party/FreeRTOS/Source/portable/GCC/ARM_CM4F/port.c **** 		}
 525:Middlewares/Third_Party/FreeRTOS/Source/portable/GCC/ARM_CM4F/port.c **** 
 526:Middlewares/Third_Party/FreeRTOS/Source/portable/GCC/ARM_CM4F/port.c **** 		/* Stop the SysTick momentarily.  The time the SysTick is stopped for
 527:Middlewares/Third_Party/FreeRTOS/Source/portable/GCC/ARM_CM4F/port.c **** 		is accounted for as best it can be, but using the tickless mode will
 528:Middlewares/Third_Party/FreeRTOS/Source/portable/GCC/ARM_CM4F/port.c **** 		inevitably result in some tiny drift of the time maintained by the
 529:Middlewares/Third_Party/FreeRTOS/Source/portable/GCC/ARM_CM4F/port.c **** 		kernel with respect to calendar time. */
 530:Middlewares/Third_Party/FreeRTOS/Source/portable/GCC/ARM_CM4F/port.c **** 		portNVIC_SYSTICK_CTRL_REG &= ~portNVIC_SYSTICK_ENABLE_BIT;
 531:Middlewares/Third_Party/FreeRTOS/Source/portable/GCC/ARM_CM4F/port.c **** 
 532:Middlewares/Third_Party/FreeRTOS/Source/portable/GCC/ARM_CM4F/port.c **** 		/* Calculate the reload value required to wait xExpectedIdleTime
 533:Middlewares/Third_Party/FreeRTOS/Source/portable/GCC/ARM_CM4F/port.c **** 		tick periods.  -1 is used because this code will execute part way
 534:Middlewares/Third_Party/FreeRTOS/Source/portable/GCC/ARM_CM4F/port.c **** 		through one of the tick periods. */
 535:Middlewares/Third_Party/FreeRTOS/Source/portable/GCC/ARM_CM4F/port.c **** 		ulReloadValue = portNVIC_SYSTICK_CURRENT_VALUE_REG + ( ulTimerCountsForOneTick * ( xExpectedIdleT
 536:Middlewares/Third_Party/FreeRTOS/Source/portable/GCC/ARM_CM4F/port.c **** 		if( ulReloadValue > ulStoppedTimerCompensation )
ARM GAS  /var/folders/n1/76bg37b13ls08p1dhb9rhvd40000gn/T//ccS6mBld.s 			page 17


 537:Middlewares/Third_Party/FreeRTOS/Source/portable/GCC/ARM_CM4F/port.c **** 		{
 538:Middlewares/Third_Party/FreeRTOS/Source/portable/GCC/ARM_CM4F/port.c **** 			ulReloadValue -= ulStoppedTimerCompensation;
 539:Middlewares/Third_Party/FreeRTOS/Source/portable/GCC/ARM_CM4F/port.c **** 		}
 540:Middlewares/Third_Party/FreeRTOS/Source/portable/GCC/ARM_CM4F/port.c **** 
 541:Middlewares/Third_Party/FreeRTOS/Source/portable/GCC/ARM_CM4F/port.c **** 		/* Enter a critical section but don't use the taskENTER_CRITICAL()
 542:Middlewares/Third_Party/FreeRTOS/Source/portable/GCC/ARM_CM4F/port.c **** 		method as that will mask interrupts that should exit sleep mode. */
 543:Middlewares/Third_Party/FreeRTOS/Source/portable/GCC/ARM_CM4F/port.c **** 		__asm volatile( "cpsid i" );
 544:Middlewares/Third_Party/FreeRTOS/Source/portable/GCC/ARM_CM4F/port.c **** 		__asm volatile( "dsb" );
 545:Middlewares/Third_Party/FreeRTOS/Source/portable/GCC/ARM_CM4F/port.c **** 		__asm volatile( "isb" );
 546:Middlewares/Third_Party/FreeRTOS/Source/portable/GCC/ARM_CM4F/port.c **** 
 547:Middlewares/Third_Party/FreeRTOS/Source/portable/GCC/ARM_CM4F/port.c **** 		/* If a context switch is pending or a task is waiting for the scheduler
 548:Middlewares/Third_Party/FreeRTOS/Source/portable/GCC/ARM_CM4F/port.c **** 		to be unsuspended then abandon the low power entry. */
 549:Middlewares/Third_Party/FreeRTOS/Source/portable/GCC/ARM_CM4F/port.c **** 		if( eTaskConfirmSleepModeStatus() == eAbortSleep )
 550:Middlewares/Third_Party/FreeRTOS/Source/portable/GCC/ARM_CM4F/port.c **** 		{
 551:Middlewares/Third_Party/FreeRTOS/Source/portable/GCC/ARM_CM4F/port.c **** 			/* Restart from whatever is left in the count register to complete
 552:Middlewares/Third_Party/FreeRTOS/Source/portable/GCC/ARM_CM4F/port.c **** 			this tick period. */
 553:Middlewares/Third_Party/FreeRTOS/Source/portable/GCC/ARM_CM4F/port.c **** 			portNVIC_SYSTICK_LOAD_REG = portNVIC_SYSTICK_CURRENT_VALUE_REG;
 554:Middlewares/Third_Party/FreeRTOS/Source/portable/GCC/ARM_CM4F/port.c **** 
 555:Middlewares/Third_Party/FreeRTOS/Source/portable/GCC/ARM_CM4F/port.c **** 			/* Restart SysTick. */
 556:Middlewares/Third_Party/FreeRTOS/Source/portable/GCC/ARM_CM4F/port.c **** 			portNVIC_SYSTICK_CTRL_REG |= portNVIC_SYSTICK_ENABLE_BIT;
 557:Middlewares/Third_Party/FreeRTOS/Source/portable/GCC/ARM_CM4F/port.c **** 
 558:Middlewares/Third_Party/FreeRTOS/Source/portable/GCC/ARM_CM4F/port.c **** 			/* Reset the reload register to the value required for normal tick
 559:Middlewares/Third_Party/FreeRTOS/Source/portable/GCC/ARM_CM4F/port.c **** 			periods. */
 560:Middlewares/Third_Party/FreeRTOS/Source/portable/GCC/ARM_CM4F/port.c **** 			portNVIC_SYSTICK_LOAD_REG = ulTimerCountsForOneTick - 1UL;
 561:Middlewares/Third_Party/FreeRTOS/Source/portable/GCC/ARM_CM4F/port.c **** 
 562:Middlewares/Third_Party/FreeRTOS/Source/portable/GCC/ARM_CM4F/port.c **** 			/* Re-enable interrupts - see comments above the cpsid instruction()
 563:Middlewares/Third_Party/FreeRTOS/Source/portable/GCC/ARM_CM4F/port.c **** 			above. */
 564:Middlewares/Third_Party/FreeRTOS/Source/portable/GCC/ARM_CM4F/port.c **** 			__asm volatile( "cpsie i" );
 565:Middlewares/Third_Party/FreeRTOS/Source/portable/GCC/ARM_CM4F/port.c **** 		}
 566:Middlewares/Third_Party/FreeRTOS/Source/portable/GCC/ARM_CM4F/port.c **** 		else
 567:Middlewares/Third_Party/FreeRTOS/Source/portable/GCC/ARM_CM4F/port.c **** 		{
 568:Middlewares/Third_Party/FreeRTOS/Source/portable/GCC/ARM_CM4F/port.c **** 			/* Set the new reload value. */
 569:Middlewares/Third_Party/FreeRTOS/Source/portable/GCC/ARM_CM4F/port.c **** 			portNVIC_SYSTICK_LOAD_REG = ulReloadValue;
 570:Middlewares/Third_Party/FreeRTOS/Source/portable/GCC/ARM_CM4F/port.c **** 
 571:Middlewares/Third_Party/FreeRTOS/Source/portable/GCC/ARM_CM4F/port.c **** 			/* Clear the SysTick count flag and set the count value back to
 572:Middlewares/Third_Party/FreeRTOS/Source/portable/GCC/ARM_CM4F/port.c **** 			zero. */
 573:Middlewares/Third_Party/FreeRTOS/Source/portable/GCC/ARM_CM4F/port.c **** 			portNVIC_SYSTICK_CURRENT_VALUE_REG = 0UL;
 574:Middlewares/Third_Party/FreeRTOS/Source/portable/GCC/ARM_CM4F/port.c **** 
 575:Middlewares/Third_Party/FreeRTOS/Source/portable/GCC/ARM_CM4F/port.c **** 			/* Restart SysTick. */
 576:Middlewares/Third_Party/FreeRTOS/Source/portable/GCC/ARM_CM4F/port.c **** 			portNVIC_SYSTICK_CTRL_REG |= portNVIC_SYSTICK_ENABLE_BIT;
 577:Middlewares/Third_Party/FreeRTOS/Source/portable/GCC/ARM_CM4F/port.c **** 
 578:Middlewares/Third_Party/FreeRTOS/Source/portable/GCC/ARM_CM4F/port.c **** 			/* Sleep until something happens.  configPRE_SLEEP_PROCESSING() can
 579:Middlewares/Third_Party/FreeRTOS/Source/portable/GCC/ARM_CM4F/port.c **** 			set its parameter to 0 to indicate that its implementation contains
 580:Middlewares/Third_Party/FreeRTOS/Source/portable/GCC/ARM_CM4F/port.c **** 			its own wait for interrupt or wait for event instruction, and so wfi
 581:Middlewares/Third_Party/FreeRTOS/Source/portable/GCC/ARM_CM4F/port.c **** 			should not be executed again.  However, the original expected idle
 582:Middlewares/Third_Party/FreeRTOS/Source/portable/GCC/ARM_CM4F/port.c **** 			time variable must remain unmodified, so a copy is taken. */
 583:Middlewares/Third_Party/FreeRTOS/Source/portable/GCC/ARM_CM4F/port.c **** 			xModifiableIdleTime = xExpectedIdleTime;
 584:Middlewares/Third_Party/FreeRTOS/Source/portable/GCC/ARM_CM4F/port.c **** 			configPRE_SLEEP_PROCESSING( &xModifiableIdleTime );
 585:Middlewares/Third_Party/FreeRTOS/Source/portable/GCC/ARM_CM4F/port.c **** 			if( xModifiableIdleTime > 0 )
 586:Middlewares/Third_Party/FreeRTOS/Source/portable/GCC/ARM_CM4F/port.c **** 			{
 587:Middlewares/Third_Party/FreeRTOS/Source/portable/GCC/ARM_CM4F/port.c **** 				__asm volatile( "dsb" );
 588:Middlewares/Third_Party/FreeRTOS/Source/portable/GCC/ARM_CM4F/port.c **** 				__asm volatile( "wfi" );
 589:Middlewares/Third_Party/FreeRTOS/Source/portable/GCC/ARM_CM4F/port.c **** 				__asm volatile( "isb" );
 590:Middlewares/Third_Party/FreeRTOS/Source/portable/GCC/ARM_CM4F/port.c **** 			}
 591:Middlewares/Third_Party/FreeRTOS/Source/portable/GCC/ARM_CM4F/port.c **** 			configPOST_SLEEP_PROCESSING( &xExpectedIdleTime );
 592:Middlewares/Third_Party/FreeRTOS/Source/portable/GCC/ARM_CM4F/port.c **** 
 593:Middlewares/Third_Party/FreeRTOS/Source/portable/GCC/ARM_CM4F/port.c **** 			/* Stop SysTick.  Again, the time the SysTick is stopped for is
ARM GAS  /var/folders/n1/76bg37b13ls08p1dhb9rhvd40000gn/T//ccS6mBld.s 			page 18


 594:Middlewares/Third_Party/FreeRTOS/Source/portable/GCC/ARM_CM4F/port.c **** 			accounted for as best it can be, but using the tickless mode will
 595:Middlewares/Third_Party/FreeRTOS/Source/portable/GCC/ARM_CM4F/port.c **** 			inevitably result in some tiny drift of the time maintained by the
 596:Middlewares/Third_Party/FreeRTOS/Source/portable/GCC/ARM_CM4F/port.c **** 			kernel with respect to calendar time. */
 597:Middlewares/Third_Party/FreeRTOS/Source/portable/GCC/ARM_CM4F/port.c **** 			ulSysTickCTRL = portNVIC_SYSTICK_CTRL_REG;
 598:Middlewares/Third_Party/FreeRTOS/Source/portable/GCC/ARM_CM4F/port.c **** 			portNVIC_SYSTICK_CTRL_REG = ( ulSysTickCTRL & ~portNVIC_SYSTICK_ENABLE_BIT );
 599:Middlewares/Third_Party/FreeRTOS/Source/portable/GCC/ARM_CM4F/port.c **** 
 600:Middlewares/Third_Party/FreeRTOS/Source/portable/GCC/ARM_CM4F/port.c **** 			/* Re-enable interrupts - see comments above the cpsid instruction()
 601:Middlewares/Third_Party/FreeRTOS/Source/portable/GCC/ARM_CM4F/port.c **** 			above. */
 602:Middlewares/Third_Party/FreeRTOS/Source/portable/GCC/ARM_CM4F/port.c **** 			__asm volatile( "cpsie i" );
 603:Middlewares/Third_Party/FreeRTOS/Source/portable/GCC/ARM_CM4F/port.c **** 
 604:Middlewares/Third_Party/FreeRTOS/Source/portable/GCC/ARM_CM4F/port.c **** 			if( ( ulSysTickCTRL & portNVIC_SYSTICK_COUNT_FLAG_BIT ) != 0 )
 605:Middlewares/Third_Party/FreeRTOS/Source/portable/GCC/ARM_CM4F/port.c **** 			{
 606:Middlewares/Third_Party/FreeRTOS/Source/portable/GCC/ARM_CM4F/port.c **** 				uint32_t ulCalculatedLoadValue;
 607:Middlewares/Third_Party/FreeRTOS/Source/portable/GCC/ARM_CM4F/port.c **** 
 608:Middlewares/Third_Party/FreeRTOS/Source/portable/GCC/ARM_CM4F/port.c **** 				/* The tick interrupt has already executed, and the SysTick
 609:Middlewares/Third_Party/FreeRTOS/Source/portable/GCC/ARM_CM4F/port.c **** 				count reloaded with ulReloadValue.  Reset the
 610:Middlewares/Third_Party/FreeRTOS/Source/portable/GCC/ARM_CM4F/port.c **** 				portNVIC_SYSTICK_LOAD_REG with whatever remains of this tick
 611:Middlewares/Third_Party/FreeRTOS/Source/portable/GCC/ARM_CM4F/port.c **** 				period. */
 612:Middlewares/Third_Party/FreeRTOS/Source/portable/GCC/ARM_CM4F/port.c **** 				ulCalculatedLoadValue = ( ulTimerCountsForOneTick - 1UL ) - ( ulReloadValue - portNVIC_SYSTICK_
 613:Middlewares/Third_Party/FreeRTOS/Source/portable/GCC/ARM_CM4F/port.c **** 
 614:Middlewares/Third_Party/FreeRTOS/Source/portable/GCC/ARM_CM4F/port.c **** 				/* Don't allow a tiny value, or values that have somehow
 615:Middlewares/Third_Party/FreeRTOS/Source/portable/GCC/ARM_CM4F/port.c **** 				underflowed because the post sleep hook did something
 616:Middlewares/Third_Party/FreeRTOS/Source/portable/GCC/ARM_CM4F/port.c **** 				that took too long. */
 617:Middlewares/Third_Party/FreeRTOS/Source/portable/GCC/ARM_CM4F/port.c **** 				if( ( ulCalculatedLoadValue < ulStoppedTimerCompensation ) || ( ulCalculatedLoadValue > ulTimer
 618:Middlewares/Third_Party/FreeRTOS/Source/portable/GCC/ARM_CM4F/port.c **** 				{
 619:Middlewares/Third_Party/FreeRTOS/Source/portable/GCC/ARM_CM4F/port.c **** 					ulCalculatedLoadValue = ( ulTimerCountsForOneTick - 1UL );
 620:Middlewares/Third_Party/FreeRTOS/Source/portable/GCC/ARM_CM4F/port.c **** 				}
 621:Middlewares/Third_Party/FreeRTOS/Source/portable/GCC/ARM_CM4F/port.c **** 
 622:Middlewares/Third_Party/FreeRTOS/Source/portable/GCC/ARM_CM4F/port.c **** 				portNVIC_SYSTICK_LOAD_REG = ulCalculatedLoadValue;
 623:Middlewares/Third_Party/FreeRTOS/Source/portable/GCC/ARM_CM4F/port.c **** 
 624:Middlewares/Third_Party/FreeRTOS/Source/portable/GCC/ARM_CM4F/port.c **** 				/* The tick interrupt handler will already have pended the tick
 625:Middlewares/Third_Party/FreeRTOS/Source/portable/GCC/ARM_CM4F/port.c **** 				processing in the kernel.  As the pending tick will be
 626:Middlewares/Third_Party/FreeRTOS/Source/portable/GCC/ARM_CM4F/port.c **** 				processed as soon as this function exits, the tick value
 627:Middlewares/Third_Party/FreeRTOS/Source/portable/GCC/ARM_CM4F/port.c **** 				maintained by the tick is stepped forward by one less than the
 628:Middlewares/Third_Party/FreeRTOS/Source/portable/GCC/ARM_CM4F/port.c **** 				time spent waiting. */
 629:Middlewares/Third_Party/FreeRTOS/Source/portable/GCC/ARM_CM4F/port.c **** 				ulCompleteTickPeriods = xExpectedIdleTime - 1UL;
 630:Middlewares/Third_Party/FreeRTOS/Source/portable/GCC/ARM_CM4F/port.c **** 			}
 631:Middlewares/Third_Party/FreeRTOS/Source/portable/GCC/ARM_CM4F/port.c **** 			else
 632:Middlewares/Third_Party/FreeRTOS/Source/portable/GCC/ARM_CM4F/port.c **** 			{
 633:Middlewares/Third_Party/FreeRTOS/Source/portable/GCC/ARM_CM4F/port.c **** 				/* Something other than the tick interrupt ended the sleep.
 634:Middlewares/Third_Party/FreeRTOS/Source/portable/GCC/ARM_CM4F/port.c **** 				Work out how long the sleep lasted rounded to complete tick
 635:Middlewares/Third_Party/FreeRTOS/Source/portable/GCC/ARM_CM4F/port.c **** 				periods (not the ulReload value which accounted for part
 636:Middlewares/Third_Party/FreeRTOS/Source/portable/GCC/ARM_CM4F/port.c **** 				ticks). */
 637:Middlewares/Third_Party/FreeRTOS/Source/portable/GCC/ARM_CM4F/port.c **** 				ulCompletedSysTickDecrements = ( xExpectedIdleTime * ulTimerCountsForOneTick ) - portNVIC_SYSTI
 638:Middlewares/Third_Party/FreeRTOS/Source/portable/GCC/ARM_CM4F/port.c **** 
 639:Middlewares/Third_Party/FreeRTOS/Source/portable/GCC/ARM_CM4F/port.c **** 				/* How many complete tick periods passed while the processor
 640:Middlewares/Third_Party/FreeRTOS/Source/portable/GCC/ARM_CM4F/port.c **** 				was waiting? */
 641:Middlewares/Third_Party/FreeRTOS/Source/portable/GCC/ARM_CM4F/port.c **** 				ulCompleteTickPeriods = ulCompletedSysTickDecrements / ulTimerCountsForOneTick;
 642:Middlewares/Third_Party/FreeRTOS/Source/portable/GCC/ARM_CM4F/port.c **** 
 643:Middlewares/Third_Party/FreeRTOS/Source/portable/GCC/ARM_CM4F/port.c **** 				/* The reload value is set to whatever fraction of a single tick
 644:Middlewares/Third_Party/FreeRTOS/Source/portable/GCC/ARM_CM4F/port.c **** 				period remains. */
 645:Middlewares/Third_Party/FreeRTOS/Source/portable/GCC/ARM_CM4F/port.c **** 				portNVIC_SYSTICK_LOAD_REG = ( ( ulCompleteTickPeriods + 1UL ) * ulTimerCountsForOneTick ) - ulC
 646:Middlewares/Third_Party/FreeRTOS/Source/portable/GCC/ARM_CM4F/port.c **** 			}
 647:Middlewares/Third_Party/FreeRTOS/Source/portable/GCC/ARM_CM4F/port.c **** 
 648:Middlewares/Third_Party/FreeRTOS/Source/portable/GCC/ARM_CM4F/port.c **** 			/* Restart SysTick so it runs from portNVIC_SYSTICK_LOAD_REG
 649:Middlewares/Third_Party/FreeRTOS/Source/portable/GCC/ARM_CM4F/port.c **** 			again, then set portNVIC_SYSTICK_LOAD_REG back to its standard
 650:Middlewares/Third_Party/FreeRTOS/Source/portable/GCC/ARM_CM4F/port.c **** 			value.  The critical section is used to ensure the tick interrupt
ARM GAS  /var/folders/n1/76bg37b13ls08p1dhb9rhvd40000gn/T//ccS6mBld.s 			page 19


 651:Middlewares/Third_Party/FreeRTOS/Source/portable/GCC/ARM_CM4F/port.c **** 			can only execute once in the case that the reload register is near
 652:Middlewares/Third_Party/FreeRTOS/Source/portable/GCC/ARM_CM4F/port.c **** 			zero. */
 653:Middlewares/Third_Party/FreeRTOS/Source/portable/GCC/ARM_CM4F/port.c **** 			portNVIC_SYSTICK_CURRENT_VALUE_REG = 0UL;
 654:Middlewares/Third_Party/FreeRTOS/Source/portable/GCC/ARM_CM4F/port.c **** 			portENTER_CRITICAL();
 655:Middlewares/Third_Party/FreeRTOS/Source/portable/GCC/ARM_CM4F/port.c **** 			{
 656:Middlewares/Third_Party/FreeRTOS/Source/portable/GCC/ARM_CM4F/port.c **** 				portNVIC_SYSTICK_CTRL_REG |= portNVIC_SYSTICK_ENABLE_BIT;
 657:Middlewares/Third_Party/FreeRTOS/Source/portable/GCC/ARM_CM4F/port.c **** 				vTaskStepTick( ulCompleteTickPeriods );
 658:Middlewares/Third_Party/FreeRTOS/Source/portable/GCC/ARM_CM4F/port.c **** 				portNVIC_SYSTICK_LOAD_REG = ulTimerCountsForOneTick - 1UL;
 659:Middlewares/Third_Party/FreeRTOS/Source/portable/GCC/ARM_CM4F/port.c **** 			}
 660:Middlewares/Third_Party/FreeRTOS/Source/portable/GCC/ARM_CM4F/port.c **** 			portEXIT_CRITICAL();
 661:Middlewares/Third_Party/FreeRTOS/Source/portable/GCC/ARM_CM4F/port.c **** 		}
 662:Middlewares/Third_Party/FreeRTOS/Source/portable/GCC/ARM_CM4F/port.c **** 	}
 663:Middlewares/Third_Party/FreeRTOS/Source/portable/GCC/ARM_CM4F/port.c **** 
 664:Middlewares/Third_Party/FreeRTOS/Source/portable/GCC/ARM_CM4F/port.c **** #endif /* #if configUSE_TICKLESS_IDLE */
 665:Middlewares/Third_Party/FreeRTOS/Source/portable/GCC/ARM_CM4F/port.c **** /*-----------------------------------------------------------*/
 666:Middlewares/Third_Party/FreeRTOS/Source/portable/GCC/ARM_CM4F/port.c **** 
 667:Middlewares/Third_Party/FreeRTOS/Source/portable/GCC/ARM_CM4F/port.c **** /*
 668:Middlewares/Third_Party/FreeRTOS/Source/portable/GCC/ARM_CM4F/port.c ****  * Setup the systick timer to generate the tick interrupts at the required
 669:Middlewares/Third_Party/FreeRTOS/Source/portable/GCC/ARM_CM4F/port.c ****  * frequency.
 670:Middlewares/Third_Party/FreeRTOS/Source/portable/GCC/ARM_CM4F/port.c ****  */
 671:Middlewares/Third_Party/FreeRTOS/Source/portable/GCC/ARM_CM4F/port.c **** __attribute__(( weak )) void vPortSetupTimerInterrupt( void )
 672:Middlewares/Third_Party/FreeRTOS/Source/portable/GCC/ARM_CM4F/port.c **** {
 673:Middlewares/Third_Party/FreeRTOS/Source/portable/GCC/ARM_CM4F/port.c **** 	/* Calculate the constants required to configure the tick interrupt. */
 674:Middlewares/Third_Party/FreeRTOS/Source/portable/GCC/ARM_CM4F/port.c **** 	#if configUSE_TICKLESS_IDLE == 1
 675:Middlewares/Third_Party/FreeRTOS/Source/portable/GCC/ARM_CM4F/port.c **** 	{
 676:Middlewares/Third_Party/FreeRTOS/Source/portable/GCC/ARM_CM4F/port.c **** 		ulTimerCountsForOneTick = ( configSYSTICK_CLOCK_HZ / configTICK_RATE_HZ );
 677:Middlewares/Third_Party/FreeRTOS/Source/portable/GCC/ARM_CM4F/port.c **** 		xMaximumPossibleSuppressedTicks = portMAX_24_BIT_NUMBER / ulTimerCountsForOneTick;
 678:Middlewares/Third_Party/FreeRTOS/Source/portable/GCC/ARM_CM4F/port.c **** 		ulStoppedTimerCompensation = portMISSED_COUNTS_FACTOR / ( configCPU_CLOCK_HZ / configSYSTICK_CLOC
 679:Middlewares/Third_Party/FreeRTOS/Source/portable/GCC/ARM_CM4F/port.c **** 	}
 680:Middlewares/Third_Party/FreeRTOS/Source/portable/GCC/ARM_CM4F/port.c **** 	#endif /* configUSE_TICKLESS_IDLE */
 681:Middlewares/Third_Party/FreeRTOS/Source/portable/GCC/ARM_CM4F/port.c **** 
 682:Middlewares/Third_Party/FreeRTOS/Source/portable/GCC/ARM_CM4F/port.c **** 	/* Configure SysTick to interrupt at the requested rate. */
 683:Middlewares/Third_Party/FreeRTOS/Source/portable/GCC/ARM_CM4F/port.c **** 	portNVIC_SYSTICK_LOAD_REG = ( configSYSTICK_CLOCK_HZ / configTICK_RATE_HZ ) - 1UL;
 684:Middlewares/Third_Party/FreeRTOS/Source/portable/GCC/ARM_CM4F/port.c **** 	portNVIC_SYSTICK_CTRL_REG = ( portNVIC_SYSTICK_CLK_BIT | portNVIC_SYSTICK_INT_BIT | portNVIC_SYSTI
 685:Middlewares/Third_Party/FreeRTOS/Source/portable/GCC/ARM_CM4F/port.c **** }
 686:Middlewares/Third_Party/FreeRTOS/Source/portable/GCC/ARM_CM4F/port.c **** /*-----------------------------------------------------------*/
 687:Middlewares/Third_Party/FreeRTOS/Source/portable/GCC/ARM_CM4F/port.c **** 
 688:Middlewares/Third_Party/FreeRTOS/Source/portable/GCC/ARM_CM4F/port.c **** /* This is a naked function. */
 689:Middlewares/Third_Party/FreeRTOS/Source/portable/GCC/ARM_CM4F/port.c **** static void vPortEnableVFP( void )
 690:Middlewares/Third_Party/FreeRTOS/Source/portable/GCC/ARM_CM4F/port.c **** {
 143              		.loc 1 690 1 is_stmt 1 view -0
 144              		.cfi_startproc
 145              		@ Naked Function: prologue and epilogue provided by programmer.
 146              		@ args = 0, pretend = 0, frame = 0
 147              		@ frame_needed = 0, uses_anonymous_args = 0
 691:Middlewares/Third_Party/FreeRTOS/Source/portable/GCC/ARM_CM4F/port.c **** 	__asm volatile
 148              		.loc 1 691 2 view .LVU21
 149              		.syntax unified
 150              	@ 691 "Middlewares/Third_Party/FreeRTOS/Source/portable/GCC/ARM_CM4F/port.c" 1
 151 0000 DFF80C00 			ldr.w r0, =0xE000ED88		
 152 0004 0168     		ldr r1, [r0]				
 153              									
 154 0006 41F47001 		orr r1, r1, #( 0xf << 20 )	
 155 000a 0160     		str r1, [r0]				
 156 000c 7047     		bx r14						
 157              	@ 0 "" 2
 692:Middlewares/Third_Party/FreeRTOS/Source/portable/GCC/ARM_CM4F/port.c **** 	(
ARM GAS  /var/folders/n1/76bg37b13ls08p1dhb9rhvd40000gn/T//ccS6mBld.s 			page 20


 693:Middlewares/Third_Party/FreeRTOS/Source/portable/GCC/ARM_CM4F/port.c **** 		"	ldr.w r0, =0xE000ED88		\n" /* The FPU enable bits are in the CPACR. */
 694:Middlewares/Third_Party/FreeRTOS/Source/portable/GCC/ARM_CM4F/port.c **** 		"	ldr r1, [r0]				\n"
 695:Middlewares/Third_Party/FreeRTOS/Source/portable/GCC/ARM_CM4F/port.c **** 		"								\n"
 696:Middlewares/Third_Party/FreeRTOS/Source/portable/GCC/ARM_CM4F/port.c **** 		"	orr r1, r1, #( 0xf << 20 )	\n" /* Enable CP10 and CP11 coprocessors, then save back. */
 697:Middlewares/Third_Party/FreeRTOS/Source/portable/GCC/ARM_CM4F/port.c **** 		"	str r1, [r0]				\n"
 698:Middlewares/Third_Party/FreeRTOS/Source/portable/GCC/ARM_CM4F/port.c **** 		"	bx r14						"
 699:Middlewares/Third_Party/FreeRTOS/Source/portable/GCC/ARM_CM4F/port.c **** 	);
 700:Middlewares/Third_Party/FreeRTOS/Source/portable/GCC/ARM_CM4F/port.c **** }
 158              		.loc 1 700 1 is_stmt 0 view .LVU22
 159              		.thumb
 160              		.syntax unified
 161              		.cfi_endproc
 162              	.LFE16:
 164 000e 0000     		.section	.text.pxPortInitialiseStack,"ax",%progbits
 165              		.align	1
 166              		.global	pxPortInitialiseStack
 167              		.syntax unified
 168              		.thumb
 169              		.thumb_func
 170              		.fpu fpv4-sp-d16
 172              	pxPortInitialiseStack:
 173              	.LVL2:
 174              	.LFB5:
 230:Middlewares/Third_Party/FreeRTOS/Source/portable/GCC/ARM_CM4F/port.c **** 	/* Simulate the stack frame as it would be created by a context switch
 175              		.loc 1 230 1 is_stmt 1 view -0
 176              		.cfi_startproc
 177              		@ args = 0, pretend = 0, frame = 0
 178              		@ frame_needed = 0, uses_anonymous_args = 0
 179              		@ link register save eliminated.
 236:Middlewares/Third_Party/FreeRTOS/Source/portable/GCC/ARM_CM4F/port.c **** 
 180              		.loc 1 236 2 view .LVU24
 238:Middlewares/Third_Party/FreeRTOS/Source/portable/GCC/ARM_CM4F/port.c **** 	pxTopOfStack--;
 181              		.loc 1 238 2 view .LVU25
 238:Middlewares/Third_Party/FreeRTOS/Source/portable/GCC/ARM_CM4F/port.c **** 	pxTopOfStack--;
 182              		.loc 1 238 16 is_stmt 0 view .LVU26
 183 0000 4FF08073 		mov	r3, #16777216
 184 0004 40F8043C 		str	r3, [r0, #-4]
 239:Middlewares/Third_Party/FreeRTOS/Source/portable/GCC/ARM_CM4F/port.c **** 	*pxTopOfStack = ( ( StackType_t ) pxCode ) & portSTART_ADDRESS_MASK;	/* PC */
 185              		.loc 1 239 2 is_stmt 1 view .LVU27
 186              	.LVL3:
 240:Middlewares/Third_Party/FreeRTOS/Source/portable/GCC/ARM_CM4F/port.c **** 	pxTopOfStack--;
 187              		.loc 1 240 2 view .LVU28
 240:Middlewares/Third_Party/FreeRTOS/Source/portable/GCC/ARM_CM4F/port.c **** 	pxTopOfStack--;
 188              		.loc 1 240 45 is_stmt 0 view .LVU29
 189 0008 21F00101 		bic	r1, r1, #1
 190              	.LVL4:
 240:Middlewares/Third_Party/FreeRTOS/Source/portable/GCC/ARM_CM4F/port.c **** 	pxTopOfStack--;
 191              		.loc 1 240 16 view .LVU30
 192 000c 40F8081C 		str	r1, [r0, #-8]
 241:Middlewares/Third_Party/FreeRTOS/Source/portable/GCC/ARM_CM4F/port.c **** 	*pxTopOfStack = ( StackType_t ) portTASK_RETURN_ADDRESS;	/* LR */
 193              		.loc 1 241 2 is_stmt 1 view .LVU31
 194              	.LVL5:
 242:Middlewares/Third_Party/FreeRTOS/Source/portable/GCC/ARM_CM4F/port.c **** 
 195              		.loc 1 242 2 view .LVU32
 242:Middlewares/Third_Party/FreeRTOS/Source/portable/GCC/ARM_CM4F/port.c **** 
 196              		.loc 1 242 18 is_stmt 0 view .LVU33
 197 0010 054B     		ldr	r3, .L10
ARM GAS  /var/folders/n1/76bg37b13ls08p1dhb9rhvd40000gn/T//ccS6mBld.s 			page 21


 242:Middlewares/Third_Party/FreeRTOS/Source/portable/GCC/ARM_CM4F/port.c **** 
 198              		.loc 1 242 16 view .LVU34
 199 0012 40F80C3C 		str	r3, [r0, #-12]
 245:Middlewares/Third_Party/FreeRTOS/Source/portable/GCC/ARM_CM4F/port.c **** 	*pxTopOfStack = ( StackType_t ) pvParameters;	/* R0 */
 200              		.loc 1 245 2 is_stmt 1 view .LVU35
 201              	.LVL6:
 246:Middlewares/Third_Party/FreeRTOS/Source/portable/GCC/ARM_CM4F/port.c **** 
 202              		.loc 1 246 2 view .LVU36
 246:Middlewares/Third_Party/FreeRTOS/Source/portable/GCC/ARM_CM4F/port.c **** 
 203              		.loc 1 246 16 is_stmt 0 view .LVU37
 204 0016 40F8202C 		str	r2, [r0, #-32]
 250:Middlewares/Third_Party/FreeRTOS/Source/portable/GCC/ARM_CM4F/port.c **** 	*pxTopOfStack = portINITIAL_EXEC_RETURN;
 205              		.loc 1 250 2 is_stmt 1 view .LVU38
 206              	.LVL7:
 251:Middlewares/Third_Party/FreeRTOS/Source/portable/GCC/ARM_CM4F/port.c **** 
 207              		.loc 1 251 2 view .LVU39
 251:Middlewares/Third_Party/FreeRTOS/Source/portable/GCC/ARM_CM4F/port.c **** 
 208              		.loc 1 251 16 is_stmt 0 view .LVU40
 209 001a 6FF00203 		mvn	r3, #2
 210 001e 40F8243C 		str	r3, [r0, #-36]
 253:Middlewares/Third_Party/FreeRTOS/Source/portable/GCC/ARM_CM4F/port.c **** 
 211              		.loc 1 253 2 is_stmt 1 view .LVU41
 212              	.LVL8:
 255:Middlewares/Third_Party/FreeRTOS/Source/portable/GCC/ARM_CM4F/port.c **** }
 213              		.loc 1 255 2 view .LVU42
 256:Middlewares/Third_Party/FreeRTOS/Source/portable/GCC/ARM_CM4F/port.c **** /*-----------------------------------------------------------*/
 214              		.loc 1 256 1 is_stmt 0 view .LVU43
 215 0022 4438     		subs	r0, r0, #68
 216              	.LVL9:
 256:Middlewares/Third_Party/FreeRTOS/Source/portable/GCC/ARM_CM4F/port.c **** /*-----------------------------------------------------------*/
 217              		.loc 1 256 1 view .LVU44
 218 0024 7047     		bx	lr
 219              	.L11:
 220 0026 00BF     		.align	2
 221              	.L10:
 222 0028 00000000 		.word	prvTaskExitError
 223              		.cfi_endproc
 224              	.LFE5:
 226              		.section	.text.SVC_Handler,"ax",%progbits
 227              		.align	1
 228              		.global	SVC_Handler
 229              		.syntax unified
 230              		.thumb
 231              		.thumb_func
 232              		.fpu fpv4-sp-d16
 234              	SVC_Handler:
 235              	.LFB7:
 274:Middlewares/Third_Party/FreeRTOS/Source/portable/GCC/ARM_CM4F/port.c **** 	__asm volatile (
 236              		.loc 1 274 1 is_stmt 1 view -0
 237              		.cfi_startproc
 238              		@ Naked Function: prologue and epilogue provided by programmer.
 239              		@ args = 0, pretend = 0, frame = 0
 240              		@ frame_needed = 0, uses_anonymous_args = 0
 275:Middlewares/Third_Party/FreeRTOS/Source/portable/GCC/ARM_CM4F/port.c **** 					"	ldr	r3, pxCurrentTCBConst2		\n" /* Restore the context. */
 241              		.loc 1 275 2 view .LVU46
 242              		.syntax unified
 243              	@ 275 "Middlewares/Third_Party/FreeRTOS/Source/portable/GCC/ARM_CM4F/port.c" 1
ARM GAS  /var/folders/n1/76bg37b13ls08p1dhb9rhvd40000gn/T//ccS6mBld.s 			page 22


 244 0000 074B     			ldr	r3, pxCurrentTCBConst2		
 245 0002 1968     		ldr r1, [r3]					
 246 0004 0868     		ldr r0, [r1]					
 247 0006 B0E8F04F 		ldmia r0!, {r4-r11, r14}		
 248 000a 80F30988 		msr psp, r0						
 249 000e BFF36F8F 		isb								
 250 0012 4FF00000 		mov r0, #0 						
 251 0016 80F31188 		msr	basepri, r0					
 252 001a 7047     		bx r14							
 253              										
 254 001c AFF30080 		.align 4						
 255 0020 00000000 	pxCurrentTCBConst2: .word pxCurrentTCB				
 256              	
 257              	@ 0 "" 2
 289:Middlewares/Third_Party/FreeRTOS/Source/portable/GCC/ARM_CM4F/port.c **** /*-----------------------------------------------------------*/
 258              		.loc 1 289 1 is_stmt 0 view .LVU47
 259              		.thumb
 260              		.syntax unified
 261              		.cfi_endproc
 262              	.LFE7:
 264              		.section	.text.vPortEndScheduler,"ax",%progbits
 265              		.align	1
 266              		.global	vPortEndScheduler
 267              		.syntax unified
 268              		.thumb
 269              		.thumb_func
 270              		.fpu fpv4-sp-d16
 272              	vPortEndScheduler:
 273              	.LFB10:
 400:Middlewares/Third_Party/FreeRTOS/Source/portable/GCC/ARM_CM4F/port.c **** 	/* Not implemented in ports where there is nothing to return to.
 274              		.loc 1 400 1 is_stmt 1 view -0
 275              		.cfi_startproc
 276              		@ args = 0, pretend = 0, frame = 0
 277              		@ frame_needed = 0, uses_anonymous_args = 0
 278              		@ link register save eliminated.
 403:Middlewares/Third_Party/FreeRTOS/Source/portable/GCC/ARM_CM4F/port.c **** }
 279              		.loc 1 403 2 view .LVU49
 280 0000 074B     		ldr	r3, .L16
 281 0002 1B68     		ldr	r3, [r3]
 282 0004 B3F57A7F 		cmp	r3, #1000
 283 0008 08D0     		beq	.L13
 403:Middlewares/Third_Party/FreeRTOS/Source/portable/GCC/ARM_CM4F/port.c **** }
 284              		.loc 1 403 2 view .LVU50
 285              	.LBB33:
 286              	.LBI33:
 233:Middlewares/Third_Party/FreeRTOS/Source/portable/GCC/ARM_CM4F/portmacro.h **** {
 287              		.loc 2 233 30 view .LVU51
 288              	.LBB34:
 235:Middlewares/Third_Party/FreeRTOS/Source/portable/GCC/ARM_CM4F/portmacro.h **** 
 289              		.loc 2 235 1 view .LVU52
 290              		.loc 2 237 2 view .LVU53
 291              		.syntax unified
 292              	@ 237 "Middlewares/Third_Party/FreeRTOS/Source/portable/GCC/ARM_CM4F/portmacro.h" 1
 293 000a 4FF05003 			mov r3, #80												
 294 000e 83F31188 		msr basepri, r3											
 295 0012 BFF36F8F 		isb														
 296 0016 BFF34F8F 		dsb														
ARM GAS  /var/folders/n1/76bg37b13ls08p1dhb9rhvd40000gn/T//ccS6mBld.s 			page 23


 297              	
 298              	@ 0 "" 2
 299              	.LVL10:
 300              		.thumb
 301              		.syntax unified
 302              	.L15:
 303              		.loc 2 237 2 is_stmt 0 view .LVU54
 304              	.LBE34:
 305              	.LBE33:
 403:Middlewares/Third_Party/FreeRTOS/Source/portable/GCC/ARM_CM4F/port.c **** }
 306              		.loc 1 403 2 is_stmt 1 discriminator 1 view .LVU55
 403:Middlewares/Third_Party/FreeRTOS/Source/portable/GCC/ARM_CM4F/port.c **** }
 307              		.loc 1 403 2 discriminator 1 view .LVU56
 308 001a FEE7     		b	.L15
 309              	.L13:
 404:Middlewares/Third_Party/FreeRTOS/Source/portable/GCC/ARM_CM4F/port.c **** /*-----------------------------------------------------------*/
 310              		.loc 1 404 1 is_stmt 0 view .LVU57
 311 001c 7047     		bx	lr
 312              	.L17:
 313 001e 00BF     		.align	2
 314              	.L16:
 315 0020 00000000 		.word	.LANCHOR0
 316              		.cfi_endproc
 317              	.LFE10:
 319              		.section	.text.vPortEnterCritical,"ax",%progbits
 320              		.align	1
 321              		.global	vPortEnterCritical
 322              		.syntax unified
 323              		.thumb
 324              		.thumb_func
 325              		.fpu fpv4-sp-d16
 327              	vPortEnterCritical:
 328              	.LFB11:
 408:Middlewares/Third_Party/FreeRTOS/Source/portable/GCC/ARM_CM4F/port.c **** 	portDISABLE_INTERRUPTS();
 329              		.loc 1 408 1 is_stmt 1 view -0
 330              		.cfi_startproc
 331              		@ args = 0, pretend = 0, frame = 0
 332              		@ frame_needed = 0, uses_anonymous_args = 0
 333              		@ link register save eliminated.
 409:Middlewares/Third_Party/FreeRTOS/Source/portable/GCC/ARM_CM4F/port.c **** 	uxCriticalNesting++;
 334              		.loc 1 409 2 view .LVU59
 335              	.LBB35:
 336              	.LBI35:
 233:Middlewares/Third_Party/FreeRTOS/Source/portable/GCC/ARM_CM4F/portmacro.h **** {
 337              		.loc 2 233 30 view .LVU60
 338              	.LBB36:
 235:Middlewares/Third_Party/FreeRTOS/Source/portable/GCC/ARM_CM4F/portmacro.h **** 
 339              		.loc 2 235 1 view .LVU61
 340              		.loc 2 237 2 view .LVU62
 341              		.syntax unified
 342              	@ 237 "Middlewares/Third_Party/FreeRTOS/Source/portable/GCC/ARM_CM4F/portmacro.h" 1
 343 0000 4FF05003 			mov r3, #80												
 344 0004 83F31188 		msr basepri, r3											
 345 0008 BFF36F8F 		isb														
 346 000c BFF34F8F 		dsb														
 347              	
 348              	@ 0 "" 2
ARM GAS  /var/folders/n1/76bg37b13ls08p1dhb9rhvd40000gn/T//ccS6mBld.s 			page 24


 349              		.thumb
 350              		.syntax unified
 351              	.LBE36:
 352              	.LBE35:
 410:Middlewares/Third_Party/FreeRTOS/Source/portable/GCC/ARM_CM4F/port.c **** 
 353              		.loc 1 410 2 view .LVU63
 410:Middlewares/Third_Party/FreeRTOS/Source/portable/GCC/ARM_CM4F/port.c **** 
 354              		.loc 1 410 19 is_stmt 0 view .LVU64
 355 0010 0A4A     		ldr	r2, .L22
 356 0012 1368     		ldr	r3, [r2]
 357 0014 0133     		adds	r3, r3, #1
 358 0016 1360     		str	r3, [r2]
 417:Middlewares/Third_Party/FreeRTOS/Source/portable/GCC/ARM_CM4F/port.c **** 	{
 359              		.loc 1 417 2 is_stmt 1 view .LVU65
 417:Middlewares/Third_Party/FreeRTOS/Source/portable/GCC/ARM_CM4F/port.c **** 	{
 360              		.loc 1 417 4 is_stmt 0 view .LVU66
 361 0018 012B     		cmp	r3, #1
 362 001a 00D0     		beq	.L21
 363              	.L18:
 421:Middlewares/Third_Party/FreeRTOS/Source/portable/GCC/ARM_CM4F/port.c **** /*-----------------------------------------------------------*/
 364              		.loc 1 421 1 view .LVU67
 365 001c 7047     		bx	lr
 366              	.L21:
 419:Middlewares/Third_Party/FreeRTOS/Source/portable/GCC/ARM_CM4F/port.c **** 	}
 367              		.loc 1 419 3 is_stmt 1 view .LVU68
 368 001e 084B     		ldr	r3, .L22+4
 369 0020 1B68     		ldr	r3, [r3]
 370 0022 13F0FF0F 		tst	r3, #255
 371 0026 F9D0     		beq	.L18
 419:Middlewares/Third_Party/FreeRTOS/Source/portable/GCC/ARM_CM4F/port.c **** 	}
 372              		.loc 1 419 3 view .LVU69
 373              	.LBB37:
 374              	.LBI37:
 233:Middlewares/Third_Party/FreeRTOS/Source/portable/GCC/ARM_CM4F/portmacro.h **** {
 375              		.loc 2 233 30 view .LVU70
 376              	.LBB38:
 235:Middlewares/Third_Party/FreeRTOS/Source/portable/GCC/ARM_CM4F/portmacro.h **** 
 377              		.loc 2 235 1 view .LVU71
 378              		.loc 2 237 2 view .LVU72
 379              		.syntax unified
 380              	@ 237 "Middlewares/Third_Party/FreeRTOS/Source/portable/GCC/ARM_CM4F/portmacro.h" 1
 381 0028 4FF05003 			mov r3, #80												
 382 002c 83F31188 		msr basepri, r3											
 383 0030 BFF36F8F 		isb														
 384 0034 BFF34F8F 		dsb														
 385              	
 386              	@ 0 "" 2
 387              	.LVL11:
 388              		.thumb
 389              		.syntax unified
 390              	.L20:
 391              		.loc 2 237 2 is_stmt 0 view .LVU73
 392              	.LBE38:
 393              	.LBE37:
 419:Middlewares/Third_Party/FreeRTOS/Source/portable/GCC/ARM_CM4F/port.c **** 	}
 394              		.loc 1 419 3 is_stmt 1 discriminator 1 view .LVU74
 419:Middlewares/Third_Party/FreeRTOS/Source/portable/GCC/ARM_CM4F/port.c **** 	}
ARM GAS  /var/folders/n1/76bg37b13ls08p1dhb9rhvd40000gn/T//ccS6mBld.s 			page 25


 395              		.loc 1 419 3 discriminator 1 view .LVU75
 396 0038 FEE7     		b	.L20
 397              	.L23:
 398 003a 00BF     		.align	2
 399              	.L22:
 400 003c 00000000 		.word	.LANCHOR0
 401 0040 04ED00E0 		.word	-536810236
 402              		.cfi_endproc
 403              	.LFE11:
 405              		.section	.text.vPortExitCritical,"ax",%progbits
 406              		.align	1
 407              		.global	vPortExitCritical
 408              		.syntax unified
 409              		.thumb
 410              		.thumb_func
 411              		.fpu fpv4-sp-d16
 413              	vPortExitCritical:
 414              	.LFB12:
 425:Middlewares/Third_Party/FreeRTOS/Source/portable/GCC/ARM_CM4F/port.c **** 	configASSERT( uxCriticalNesting );
 415              		.loc 1 425 1 view -0
 416              		.cfi_startproc
 417              		@ args = 0, pretend = 0, frame = 0
 418              		@ frame_needed = 0, uses_anonymous_args = 0
 419              		@ link register save eliminated.
 426:Middlewares/Third_Party/FreeRTOS/Source/portable/GCC/ARM_CM4F/port.c **** 	uxCriticalNesting--;
 420              		.loc 1 426 2 view .LVU77
 421 0000 094B     		ldr	r3, .L28
 422 0002 1B68     		ldr	r3, [r3]
 423 0004 43B9     		cbnz	r3, .L25
 426:Middlewares/Third_Party/FreeRTOS/Source/portable/GCC/ARM_CM4F/port.c **** 	uxCriticalNesting--;
 424              		.loc 1 426 2 view .LVU78
 425              	.LBB39:
 426              	.LBI39:
 233:Middlewares/Third_Party/FreeRTOS/Source/portable/GCC/ARM_CM4F/portmacro.h **** {
 427              		.loc 2 233 30 view .LVU79
 428              	.LBB40:
 235:Middlewares/Third_Party/FreeRTOS/Source/portable/GCC/ARM_CM4F/portmacro.h **** 
 429              		.loc 2 235 1 view .LVU80
 430              		.loc 2 237 2 view .LVU81
 431              		.syntax unified
 432              	@ 237 "Middlewares/Third_Party/FreeRTOS/Source/portable/GCC/ARM_CM4F/portmacro.h" 1
 433 0006 4FF05003 			mov r3, #80												
 434 000a 83F31188 		msr basepri, r3											
 435 000e BFF36F8F 		isb														
 436 0012 BFF34F8F 		dsb														
 437              	
 438              	@ 0 "" 2
 439              	.LVL12:
 440              		.thumb
 441              		.syntax unified
 442              	.L26:
 443              		.loc 2 237 2 is_stmt 0 view .LVU82
 444              	.LBE40:
 445              	.LBE39:
 426:Middlewares/Third_Party/FreeRTOS/Source/portable/GCC/ARM_CM4F/port.c **** 	uxCriticalNesting--;
 446              		.loc 1 426 2 is_stmt 1 discriminator 1 view .LVU83
 426:Middlewares/Third_Party/FreeRTOS/Source/portable/GCC/ARM_CM4F/port.c **** 	uxCriticalNesting--;
ARM GAS  /var/folders/n1/76bg37b13ls08p1dhb9rhvd40000gn/T//ccS6mBld.s 			page 26


 447              		.loc 1 426 2 discriminator 1 view .LVU84
 448 0016 FEE7     		b	.L26
 449              	.L25:
 426:Middlewares/Third_Party/FreeRTOS/Source/portable/GCC/ARM_CM4F/port.c **** 	uxCriticalNesting--;
 450              		.loc 1 426 35 discriminator 2 view .LVU85
 427:Middlewares/Third_Party/FreeRTOS/Source/portable/GCC/ARM_CM4F/port.c **** 	if( uxCriticalNesting == 0 )
 451              		.loc 1 427 2 discriminator 2 view .LVU86
 427:Middlewares/Third_Party/FreeRTOS/Source/portable/GCC/ARM_CM4F/port.c **** 	if( uxCriticalNesting == 0 )
 452              		.loc 1 427 19 is_stmt 0 discriminator 2 view .LVU87
 453 0018 013B     		subs	r3, r3, #1
 454 001a 034A     		ldr	r2, .L28
 455 001c 1360     		str	r3, [r2]
 428:Middlewares/Third_Party/FreeRTOS/Source/portable/GCC/ARM_CM4F/port.c **** 	{
 456              		.loc 1 428 2 is_stmt 1 discriminator 2 view .LVU88
 428:Middlewares/Third_Party/FreeRTOS/Source/portable/GCC/ARM_CM4F/port.c **** 	{
 457              		.loc 1 428 4 is_stmt 0 discriminator 2 view .LVU89
 458 001e 0BB9     		cbnz	r3, .L24
 430:Middlewares/Third_Party/FreeRTOS/Source/portable/GCC/ARM_CM4F/port.c **** 	}
 459              		.loc 1 430 3 is_stmt 1 view .LVU90
 460              	.LVL13:
 461              	.LBB41:
 462              	.LBI41:
 238:Middlewares/Third_Party/FreeRTOS/Source/portable/GCC/ARM_CM4F/portmacro.h **** 	(
 239:Middlewares/Third_Party/FreeRTOS/Source/portable/GCC/ARM_CM4F/portmacro.h **** 		"	mov %0, %1												\n"	\
 240:Middlewares/Third_Party/FreeRTOS/Source/portable/GCC/ARM_CM4F/portmacro.h **** 		"	msr basepri, %0											\n" \
 241:Middlewares/Third_Party/FreeRTOS/Source/portable/GCC/ARM_CM4F/portmacro.h **** 		"	isb														\n" \
 242:Middlewares/Third_Party/FreeRTOS/Source/portable/GCC/ARM_CM4F/portmacro.h **** 		"	dsb														\n" \
 243:Middlewares/Third_Party/FreeRTOS/Source/portable/GCC/ARM_CM4F/portmacro.h **** 		:"=r" (ulNewBASEPRI) : "i" ( configMAX_SYSCALL_INTERRUPT_PRIORITY )
 244:Middlewares/Third_Party/FreeRTOS/Source/portable/GCC/ARM_CM4F/portmacro.h **** 	);
 245:Middlewares/Third_Party/FreeRTOS/Source/portable/GCC/ARM_CM4F/portmacro.h **** }
 246:Middlewares/Third_Party/FreeRTOS/Source/portable/GCC/ARM_CM4F/portmacro.h **** 
 247:Middlewares/Third_Party/FreeRTOS/Source/portable/GCC/ARM_CM4F/portmacro.h **** /*-----------------------------------------------------------*/
 248:Middlewares/Third_Party/FreeRTOS/Source/portable/GCC/ARM_CM4F/portmacro.h **** 
 249:Middlewares/Third_Party/FreeRTOS/Source/portable/GCC/ARM_CM4F/portmacro.h **** portFORCE_INLINE static uint32_t ulPortRaiseBASEPRI( void )
 250:Middlewares/Third_Party/FreeRTOS/Source/portable/GCC/ARM_CM4F/portmacro.h **** {
 251:Middlewares/Third_Party/FreeRTOS/Source/portable/GCC/ARM_CM4F/portmacro.h **** uint32_t ulOriginalBASEPRI, ulNewBASEPRI;
 252:Middlewares/Third_Party/FreeRTOS/Source/portable/GCC/ARM_CM4F/portmacro.h **** 
 253:Middlewares/Third_Party/FreeRTOS/Source/portable/GCC/ARM_CM4F/portmacro.h **** 	__asm volatile
 254:Middlewares/Third_Party/FreeRTOS/Source/portable/GCC/ARM_CM4F/portmacro.h **** 	(
 255:Middlewares/Third_Party/FreeRTOS/Source/portable/GCC/ARM_CM4F/portmacro.h **** 		"	mrs %0, basepri											\n" \
 256:Middlewares/Third_Party/FreeRTOS/Source/portable/GCC/ARM_CM4F/portmacro.h **** 		"	mov %1, %2												\n"	\
 257:Middlewares/Third_Party/FreeRTOS/Source/portable/GCC/ARM_CM4F/portmacro.h **** 		"	msr basepri, %1											\n" \
 258:Middlewares/Third_Party/FreeRTOS/Source/portable/GCC/ARM_CM4F/portmacro.h **** 		"	isb														\n" \
 259:Middlewares/Third_Party/FreeRTOS/Source/portable/GCC/ARM_CM4F/portmacro.h **** 		"	dsb														\n" \
 260:Middlewares/Third_Party/FreeRTOS/Source/portable/GCC/ARM_CM4F/portmacro.h **** 		:"=r" (ulOriginalBASEPRI), "=r" (ulNewBASEPRI) : "i" ( configMAX_SYSCALL_INTERRUPT_PRIORITY )
 261:Middlewares/Third_Party/FreeRTOS/Source/portable/GCC/ARM_CM4F/portmacro.h **** 	);
 262:Middlewares/Third_Party/FreeRTOS/Source/portable/GCC/ARM_CM4F/portmacro.h **** 
 263:Middlewares/Third_Party/FreeRTOS/Source/portable/GCC/ARM_CM4F/portmacro.h **** 	/* This return will not be reached but is necessary to prevent compiler
 264:Middlewares/Third_Party/FreeRTOS/Source/portable/GCC/ARM_CM4F/portmacro.h **** 	warnings. */
 265:Middlewares/Third_Party/FreeRTOS/Source/portable/GCC/ARM_CM4F/portmacro.h **** 	return ulOriginalBASEPRI;
 266:Middlewares/Third_Party/FreeRTOS/Source/portable/GCC/ARM_CM4F/portmacro.h **** }
 267:Middlewares/Third_Party/FreeRTOS/Source/portable/GCC/ARM_CM4F/portmacro.h **** /*-----------------------------------------------------------*/
 268:Middlewares/Third_Party/FreeRTOS/Source/portable/GCC/ARM_CM4F/portmacro.h **** 
 269:Middlewares/Third_Party/FreeRTOS/Source/portable/GCC/ARM_CM4F/portmacro.h **** portFORCE_INLINE static void vPortSetBASEPRI( uint32_t ulNewMaskValue )
 463              		.loc 2 269 30 view .LVU91
 464              	.LBB42:
 270:Middlewares/Third_Party/FreeRTOS/Source/portable/GCC/ARM_CM4F/portmacro.h **** {
ARM GAS  /var/folders/n1/76bg37b13ls08p1dhb9rhvd40000gn/T//ccS6mBld.s 			page 27


 271:Middlewares/Third_Party/FreeRTOS/Source/portable/GCC/ARM_CM4F/portmacro.h **** 	__asm volatile
 465              		.loc 2 271 2 view .LVU92
 466              		.syntax unified
 467              	@ 271 "Middlewares/Third_Party/FreeRTOS/Source/portable/GCC/ARM_CM4F/portmacro.h" 1
 468 0020 83F31188 			msr basepri, r3	
 469              	@ 0 "" 2
 470              	.LVL14:
 471              		.thumb
 472              		.syntax unified
 473              	.L24:
 474              		.loc 2 271 2 is_stmt 0 view .LVU93
 475              	.LBE42:
 476              	.LBE41:
 432:Middlewares/Third_Party/FreeRTOS/Source/portable/GCC/ARM_CM4F/port.c **** /*-----------------------------------------------------------*/
 477              		.loc 1 432 1 view .LVU94
 478 0024 7047     		bx	lr
 479              	.L29:
 480 0026 00BF     		.align	2
 481              	.L28:
 482 0028 00000000 		.word	.LANCHOR0
 483              		.cfi_endproc
 484              	.LFE12:
 486              		.section	.text.PendSV_Handler,"ax",%progbits
 487              		.align	1
 488              		.global	PendSV_Handler
 489              		.syntax unified
 490              		.thumb
 491              		.thumb_func
 492              		.fpu fpv4-sp-d16
 494              	PendSV_Handler:
 495              	.LFB13:
 436:Middlewares/Third_Party/FreeRTOS/Source/portable/GCC/ARM_CM4F/port.c **** 	/* This is a naked function. */
 496              		.loc 1 436 1 is_stmt 1 view -0
 497              		.cfi_startproc
 498              		@ Naked Function: prologue and epilogue provided by programmer.
 499              		@ args = 0, pretend = 0, frame = 0
 500              		@ frame_needed = 0, uses_anonymous_args = 0
 439:Middlewares/Third_Party/FreeRTOS/Source/portable/GCC/ARM_CM4F/port.c **** 	(
 501              		.loc 1 439 2 view .LVU96
 502              		.syntax unified
 503              	@ 439 "Middlewares/Third_Party/FreeRTOS/Source/portable/GCC/ARM_CM4F/port.c" 1
 504 0000 EFF30980 			mrs r0, psp							
 505 0004 BFF36F8F 		isb									
 506              											
 507 0008 154B     		ldr	r3, pxCurrentTCBConst			
 508 000a 1A68     		ldr	r2, [r3]						
 509              											
 510 000c 1EF0100F 		tst r14, #0x10						
 511 0010 08BF     		it eq								
 512 0012 20ED108A 		vstmdbeq r0!, {s16-s31}				
 513              											
 514 0016 20E9F04F 		stmdb r0!, {r4-r11, r14}			
 515              											
 516 001a 1060     		str r0, [r2]						
 517              											
 518 001c 4DF8043D 		stmdb sp!, {r3}						
 519 0020 4FF05000 		mov r0, #80 							
ARM GAS  /var/folders/n1/76bg37b13ls08p1dhb9rhvd40000gn/T//ccS6mBld.s 			page 28


 520 0024 80F31188 		msr basepri, r0						
 521 0028 BFF34F8F 		dsb									
 522 002c BFF36F8F 		isb									
 523 0030 FFF7FEFF 		bl vTaskSwitchContext				
 524 0034 4FF00000 		mov r0, #0							
 525 0038 80F31188 		msr basepri, r0						
 526 003c 08BC     		ldmia sp!, {r3}						
 527              											
 528 003e 1968     		ldr r1, [r3]						
 529 0040 0868     		ldr r0, [r1]						
 530              											
 531 0042 B0E8F04F 		ldmia r0!, {r4-r11, r14}			
 532              											
 533 0046 1EF0100F 		tst r14, #0x10						
 534 004a 08BF     		it eq								
 535 004c B0EC108A 		vldmiaeq r0!, {s16-s31}				
 536              											
 537 0050 80F30988 		msr psp, r0							
 538 0054 BFF36F8F 		isb									
 539              											
 540              											
 541 0058 7047     		bx r14								
 542              											
 543 005a 00BFAFF3 		.align 4							
 543      0080
 544 0060 00000000 	pxCurrentTCBConst: .word pxCurrentTCB	
 545              	
 546              	@ 0 "" 2
 490:Middlewares/Third_Party/FreeRTOS/Source/portable/GCC/ARM_CM4F/port.c **** /*-----------------------------------------------------------*/
 547              		.loc 1 490 1 is_stmt 0 view .LVU97
 548              		.thumb
 549              		.syntax unified
 550              		.cfi_endproc
 551              	.LFE13:
 553              		.section	.text.xPortSysTickHandler,"ax",%progbits
 554              		.align	1
 555              		.global	xPortSysTickHandler
 556              		.syntax unified
 557              		.thumb
 558              		.thumb_func
 559              		.fpu fpv4-sp-d16
 561              	xPortSysTickHandler:
 562              	.LFB14:
 494:Middlewares/Third_Party/FreeRTOS/Source/portable/GCC/ARM_CM4F/port.c **** 	/* The SysTick runs at the lowest interrupt priority, so when this interrupt
 563              		.loc 1 494 1 is_stmt 1 view -0
 564              		.cfi_startproc
 565              		@ args = 0, pretend = 0, frame = 0
 566              		@ frame_needed = 0, uses_anonymous_args = 0
 567 0000 08B5     		push	{r3, lr}
 568              	.LCFI0:
 569              		.cfi_def_cfa_offset 8
 570              		.cfi_offset 3, -8
 571              		.cfi_offset 14, -4
 499:Middlewares/Third_Party/FreeRTOS/Source/portable/GCC/ARM_CM4F/port.c **** 	{
 572              		.loc 1 499 2 view .LVU99
 573              	.LBB43:
 574              	.LBI43:
ARM GAS  /var/folders/n1/76bg37b13ls08p1dhb9rhvd40000gn/T//ccS6mBld.s 			page 29


 233:Middlewares/Third_Party/FreeRTOS/Source/portable/GCC/ARM_CM4F/portmacro.h **** {
 575              		.loc 2 233 30 view .LVU100
 576              	.LBB44:
 235:Middlewares/Third_Party/FreeRTOS/Source/portable/GCC/ARM_CM4F/portmacro.h **** 
 577              		.loc 2 235 1 view .LVU101
 237:Middlewares/Third_Party/FreeRTOS/Source/portable/GCC/ARM_CM4F/portmacro.h **** 	(
 578              		.loc 2 237 2 view .LVU102
 579              		.syntax unified
 580              	@ 237 "Middlewares/Third_Party/FreeRTOS/Source/portable/GCC/ARM_CM4F/portmacro.h" 1
 581 0002 4FF05003 			mov r3, #80												
 582 0006 83F31188 		msr basepri, r3											
 583 000a BFF36F8F 		isb														
 584 000e BFF34F8F 		dsb														
 585              	
 586              	@ 0 "" 2
 587              		.thumb
 588              		.syntax unified
 589              	.LBE44:
 590              	.LBE43:
 502:Middlewares/Third_Party/FreeRTOS/Source/portable/GCC/ARM_CM4F/port.c **** 		{
 591              		.loc 1 502 3 view .LVU103
 502:Middlewares/Third_Party/FreeRTOS/Source/portable/GCC/ARM_CM4F/port.c **** 		{
 592              		.loc 1 502 7 is_stmt 0 view .LVU104
 593 0012 FFF7FEFF 		bl	xTaskIncrementTick
 594              	.LVL15:
 502:Middlewares/Third_Party/FreeRTOS/Source/portable/GCC/ARM_CM4F/port.c **** 		{
 595              		.loc 1 502 5 view .LVU105
 596 0016 18B1     		cbz	r0, .L32
 506:Middlewares/Third_Party/FreeRTOS/Source/portable/GCC/ARM_CM4F/port.c **** 		}
 597              		.loc 1 506 4 is_stmt 1 view .LVU106
 506:Middlewares/Third_Party/FreeRTOS/Source/portable/GCC/ARM_CM4F/port.c **** 		}
 598              		.loc 1 506 26 is_stmt 0 view .LVU107
 599 0018 034B     		ldr	r3, .L34
 600 001a 4FF08052 		mov	r2, #268435456
 601 001e 1A60     		str	r2, [r3]
 602              	.L32:
 509:Middlewares/Third_Party/FreeRTOS/Source/portable/GCC/ARM_CM4F/port.c **** }
 603              		.loc 1 509 2 is_stmt 1 view .LVU108
 604              	.LVL16:
 605              	.LBB45:
 606              	.LBI45:
 269:Middlewares/Third_Party/FreeRTOS/Source/portable/GCC/ARM_CM4F/portmacro.h **** {
 607              		.loc 2 269 30 view .LVU109
 608              	.LBB46:
 609              		.loc 2 271 2 view .LVU110
 610 0020 0023     		movs	r3, #0
 611              		.syntax unified
 612              	@ 271 "Middlewares/Third_Party/FreeRTOS/Source/portable/GCC/ARM_CM4F/portmacro.h" 1
 613 0022 83F31188 			msr basepri, r3	
 614              	@ 0 "" 2
 615              	.LVL17:
 616              		.loc 2 271 2 is_stmt 0 view .LVU111
 617              		.thumb
 618              		.syntax unified
 619              	.LBE46:
 620              	.LBE45:
 510:Middlewares/Third_Party/FreeRTOS/Source/portable/GCC/ARM_CM4F/port.c **** /*-----------------------------------------------------------*/
ARM GAS  /var/folders/n1/76bg37b13ls08p1dhb9rhvd40000gn/T//ccS6mBld.s 			page 30


 621              		.loc 1 510 1 view .LVU112
 622 0026 08BD     		pop	{r3, pc}
 623              	.L35:
 624              		.align	2
 625              	.L34:
 626 0028 04ED00E0 		.word	-536810236
 627              		.cfi_endproc
 628              	.LFE14:
 630              		.section	.text.vPortSetupTimerInterrupt,"ax",%progbits
 631              		.align	1
 632              		.weak	vPortSetupTimerInterrupt
 633              		.syntax unified
 634              		.thumb
 635              		.thumb_func
 636              		.fpu fpv4-sp-d16
 638              	vPortSetupTimerInterrupt:
 639              	.LFB15:
 672:Middlewares/Third_Party/FreeRTOS/Source/portable/GCC/ARM_CM4F/port.c **** 	/* Calculate the constants required to configure the tick interrupt. */
 640              		.loc 1 672 1 is_stmt 1 view -0
 641              		.cfi_startproc
 642              		@ args = 0, pretend = 0, frame = 0
 643              		@ frame_needed = 0, uses_anonymous_args = 0
 644              		@ link register save eliminated.
 683:Middlewares/Third_Party/FreeRTOS/Source/portable/GCC/ARM_CM4F/port.c **** 	portNVIC_SYSTICK_CTRL_REG = ( portNVIC_SYSTICK_CLK_BIT | portNVIC_SYSTICK_INT_BIT | portNVIC_SYSTI
 645              		.loc 1 683 2 view .LVU114
 683:Middlewares/Third_Party/FreeRTOS/Source/portable/GCC/ARM_CM4F/port.c **** 	portNVIC_SYSTICK_CTRL_REG = ( portNVIC_SYSTICK_CLK_BIT | portNVIC_SYSTICK_INT_BIT | portNVIC_SYSTI
 646              		.loc 1 683 55 is_stmt 0 view .LVU115
 647 0000 064B     		ldr	r3, .L37
 648 0002 1B68     		ldr	r3, [r3]
 649 0004 064A     		ldr	r2, .L37+4
 650 0006 A2FB0323 		umull	r2, r3, r2, r3
 651 000a 9B09     		lsrs	r3, r3, #6
 683:Middlewares/Third_Party/FreeRTOS/Source/portable/GCC/ARM_CM4F/port.c **** 	portNVIC_SYSTICK_CTRL_REG = ( portNVIC_SYSTICK_CLK_BIT | portNVIC_SYSTICK_INT_BIT | portNVIC_SYSTI
 652              		.loc 1 683 78 view .LVU116
 653 000c 013B     		subs	r3, r3, #1
 683:Middlewares/Third_Party/FreeRTOS/Source/portable/GCC/ARM_CM4F/port.c **** 	portNVIC_SYSTICK_CTRL_REG = ( portNVIC_SYSTICK_CLK_BIT | portNVIC_SYSTICK_INT_BIT | portNVIC_SYSTI
 654              		.loc 1 683 28 view .LVU117
 655 000e 054A     		ldr	r2, .L37+8
 656 0010 1360     		str	r3, [r2]
 684:Middlewares/Third_Party/FreeRTOS/Source/portable/GCC/ARM_CM4F/port.c **** }
 657              		.loc 1 684 2 is_stmt 1 view .LVU118
 684:Middlewares/Third_Party/FreeRTOS/Source/portable/GCC/ARM_CM4F/port.c **** }
 658              		.loc 1 684 28 is_stmt 0 view .LVU119
 659 0012 054B     		ldr	r3, .L37+12
 660 0014 0722     		movs	r2, #7
 661 0016 1A60     		str	r2, [r3]
 685:Middlewares/Third_Party/FreeRTOS/Source/portable/GCC/ARM_CM4F/port.c **** /*-----------------------------------------------------------*/
 662              		.loc 1 685 1 view .LVU120
 663 0018 7047     		bx	lr
 664              	.L38:
 665 001a 00BF     		.align	2
 666              	.L37:
 667 001c 00000000 		.word	SystemCoreClock
 668 0020 D34D6210 		.word	274877907
 669 0024 14E000E0 		.word	-536813548
 670 0028 10E000E0 		.word	-536813552
 671              		.cfi_endproc
ARM GAS  /var/folders/n1/76bg37b13ls08p1dhb9rhvd40000gn/T//ccS6mBld.s 			page 31


 672              	.LFE15:
 674              		.section	.text.xPortStartScheduler,"ax",%progbits
 675              		.align	1
 676              		.global	xPortStartScheduler
 677              		.syntax unified
 678              		.thumb
 679              		.thumb_func
 680              		.fpu fpv4-sp-d16
 682              	xPortStartScheduler:
 683              	.LFB9:
 313:Middlewares/Third_Party/FreeRTOS/Source/portable/GCC/ARM_CM4F/port.c **** 	/* configMAX_SYSCALL_INTERRUPT_PRIORITY must not be set to 0.
 684              		.loc 1 313 1 is_stmt 1 view -0
 685              		.cfi_startproc
 686              		@ args = 0, pretend = 0, frame = 8
 687              		@ frame_needed = 0, uses_anonymous_args = 0
 316:Middlewares/Third_Party/FreeRTOS/Source/portable/GCC/ARM_CM4F/port.c **** 
 688              		.loc 1 316 2 view .LVU122
 316:Middlewares/Third_Party/FreeRTOS/Source/portable/GCC/ARM_CM4F/port.c **** 
 689              		.loc 1 316 54 view .LVU123
 321:Middlewares/Third_Party/FreeRTOS/Source/portable/GCC/ARM_CM4F/port.c **** 	configASSERT( portCPUID != portCORTEX_M7_r0p0_ID );
 690              		.loc 1 321 2 view .LVU124
 691 0000 314B     		ldr	r3, .L50
 692 0002 1A68     		ldr	r2, [r3]
 693 0004 314B     		ldr	r3, .L50+4
 694 0006 9A42     		cmp	r2, r3
 695 0008 1AD0     		beq	.L48
 321:Middlewares/Third_Party/FreeRTOS/Source/portable/GCC/ARM_CM4F/port.c **** 	configASSERT( portCPUID != portCORTEX_M7_r0p0_ID );
 696              		.loc 1 321 52 discriminator 2 view .LVU125
 322:Middlewares/Third_Party/FreeRTOS/Source/portable/GCC/ARM_CM4F/port.c **** 
 697              		.loc 1 322 2 discriminator 2 view .LVU126
 698 000a 2F4B     		ldr	r3, .L50
 699 000c 1A68     		ldr	r2, [r3]
 700 000e 304B     		ldr	r3, .L50+8
 701 0010 9A42     		cmp	r2, r3
 702 0012 1ED0     		beq	.L49
 313:Middlewares/Third_Party/FreeRTOS/Source/portable/GCC/ARM_CM4F/port.c **** 	/* configMAX_SYSCALL_INTERRUPT_PRIORITY must not be set to 0.
 703              		.loc 1 313 1 is_stmt 0 discriminator 2 view .LVU127
 704 0014 00B5     		push	{lr}
 705              	.LCFI1:
 706              		.cfi_def_cfa_offset 4
 707              		.cfi_offset 14, -4
 708 0016 83B0     		sub	sp, sp, #12
 709              	.LCFI2:
 710              		.cfi_def_cfa_offset 16
 322:Middlewares/Third_Party/FreeRTOS/Source/portable/GCC/ARM_CM4F/port.c **** 
 711              		.loc 1 322 52 is_stmt 1 discriminator 2 view .LVU128
 712              	.LBB47:
 326:Middlewares/Third_Party/FreeRTOS/Source/portable/GCC/ARM_CM4F/port.c **** 		volatile uint8_t * const pucFirstUserPriorityRegister = ( volatile uint8_t * const ) ( portNVIC_I
 713              		.loc 1 326 3 discriminator 2 view .LVU129
 327:Middlewares/Third_Party/FreeRTOS/Source/portable/GCC/ARM_CM4F/port.c **** 		volatile uint8_t ucMaxPriorityValue;
 714              		.loc 1 327 3 discriminator 2 view .LVU130
 715              	.LVL18:
 328:Middlewares/Third_Party/FreeRTOS/Source/portable/GCC/ARM_CM4F/port.c **** 
 716              		.loc 1 328 3 discriminator 2 view .LVU131
 336:Middlewares/Third_Party/FreeRTOS/Source/portable/GCC/ARM_CM4F/port.c **** 
 717              		.loc 1 336 3 discriminator 2 view .LVU132
 336:Middlewares/Third_Party/FreeRTOS/Source/portable/GCC/ARM_CM4F/port.c **** 
ARM GAS  /var/folders/n1/76bg37b13ls08p1dhb9rhvd40000gn/T//ccS6mBld.s 			page 32


 718              		.loc 1 336 24 is_stmt 0 discriminator 2 view .LVU133
 719 0018 2E4B     		ldr	r3, .L50+12
 720 001a 1A78     		ldrb	r2, [r3]	@ zero_extendqisi2
 721 001c D2B2     		uxtb	r2, r2
 336:Middlewares/Third_Party/FreeRTOS/Source/portable/GCC/ARM_CM4F/port.c **** 
 722              		.loc 1 336 22 discriminator 2 view .LVU134
 723 001e 0192     		str	r2, [sp, #4]
 340:Middlewares/Third_Party/FreeRTOS/Source/portable/GCC/ARM_CM4F/port.c **** 
 724              		.loc 1 340 3 is_stmt 1 discriminator 2 view .LVU135
 340:Middlewares/Third_Party/FreeRTOS/Source/portable/GCC/ARM_CM4F/port.c **** 
 725              		.loc 1 340 33 is_stmt 0 discriminator 2 view .LVU136
 726 0020 FF22     		movs	r2, #255
 727 0022 1A70     		strb	r2, [r3]
 343:Middlewares/Third_Party/FreeRTOS/Source/portable/GCC/ARM_CM4F/port.c **** 
 728              		.loc 1 343 3 is_stmt 1 discriminator 2 view .LVU137
 343:Middlewares/Third_Party/FreeRTOS/Source/portable/GCC/ARM_CM4F/port.c **** 
 729              		.loc 1 343 24 is_stmt 0 discriminator 2 view .LVU138
 730 0024 1B78     		ldrb	r3, [r3]	@ zero_extendqisi2
 731 0026 DBB2     		uxtb	r3, r3
 343:Middlewares/Third_Party/FreeRTOS/Source/portable/GCC/ARM_CM4F/port.c **** 
 732              		.loc 1 343 22 discriminator 2 view .LVU139
 733 0028 8DF80330 		strb	r3, [sp, #3]
 346:Middlewares/Third_Party/FreeRTOS/Source/portable/GCC/ARM_CM4F/port.c **** 
 734              		.loc 1 346 3 is_stmt 1 discriminator 2 view .LVU140
 346:Middlewares/Third_Party/FreeRTOS/Source/portable/GCC/ARM_CM4F/port.c **** 
 735              		.loc 1 346 63 is_stmt 0 discriminator 2 view .LVU141
 736 002c 9DF80330 		ldrb	r3, [sp, #3]	@ zero_extendqisi2
 737 0030 03F05003 		and	r3, r3, #80
 346:Middlewares/Third_Party/FreeRTOS/Source/portable/GCC/ARM_CM4F/port.c **** 
 738              		.loc 1 346 24 discriminator 2 view .LVU142
 739 0034 284A     		ldr	r2, .L50+16
 740 0036 1370     		strb	r3, [r2]
 350:Middlewares/Third_Party/FreeRTOS/Source/portable/GCC/ARM_CM4F/port.c **** 		while( ( ucMaxPriorityValue & portTOP_BIT_OF_BYTE ) == portTOP_BIT_OF_BYTE )
 741              		.loc 1 350 3 is_stmt 1 discriminator 2 view .LVU143
 350:Middlewares/Third_Party/FreeRTOS/Source/portable/GCC/ARM_CM4F/port.c **** 		while( ( ucMaxPriorityValue & portTOP_BIT_OF_BYTE ) == portTOP_BIT_OF_BYTE )
 742              		.loc 1 350 22 is_stmt 0 discriminator 2 view .LVU144
 743 0038 284B     		ldr	r3, .L50+20
 744 003a 0722     		movs	r2, #7
 745 003c 1A60     		str	r2, [r3]
 351:Middlewares/Third_Party/FreeRTOS/Source/portable/GCC/ARM_CM4F/port.c **** 		{
 746              		.loc 1 351 3 is_stmt 1 discriminator 2 view .LVU145
 351:Middlewares/Third_Party/FreeRTOS/Source/portable/GCC/ARM_CM4F/port.c **** 		{
 747              		.loc 1 351 8 is_stmt 0 discriminator 2 view .LVU146
 748 003e 1BE0     		b	.L44
 749              	.LVL19:
 750              	.L48:
 751              	.LCFI3:
 752              		.cfi_def_cfa_offset 0
 753              		.cfi_restore 14
 351:Middlewares/Third_Party/FreeRTOS/Source/portable/GCC/ARM_CM4F/port.c **** 		{
 754              		.loc 1 351 8 discriminator 2 view .LVU147
 755              	.LBE47:
 321:Middlewares/Third_Party/FreeRTOS/Source/portable/GCC/ARM_CM4F/port.c **** 	configASSERT( portCPUID != portCORTEX_M7_r0p0_ID );
 756              		.loc 1 321 2 is_stmt 1 view .LVU148
 757              	.LBB48:
 758              	.LBI48:
 233:Middlewares/Third_Party/FreeRTOS/Source/portable/GCC/ARM_CM4F/portmacro.h **** {
ARM GAS  /var/folders/n1/76bg37b13ls08p1dhb9rhvd40000gn/T//ccS6mBld.s 			page 33


 759              		.loc 2 233 30 view .LVU149
 760              	.LBB49:
 235:Middlewares/Third_Party/FreeRTOS/Source/portable/GCC/ARM_CM4F/portmacro.h **** 
 761              		.loc 2 235 1 view .LVU150
 237:Middlewares/Third_Party/FreeRTOS/Source/portable/GCC/ARM_CM4F/portmacro.h **** 	(
 762              		.loc 2 237 2 view .LVU151
 763              		.syntax unified
 764              	@ 237 "Middlewares/Third_Party/FreeRTOS/Source/portable/GCC/ARM_CM4F/portmacro.h" 1
 765 0040 4FF05003 			mov r3, #80												
 766 0044 83F31188 		msr basepri, r3											
 767 0048 BFF36F8F 		isb														
 768 004c BFF34F8F 		dsb														
 769              	
 770              	@ 0 "" 2
 771              	.LVL20:
 772              		.thumb
 773              		.syntax unified
 774              	.L41:
 237:Middlewares/Third_Party/FreeRTOS/Source/portable/GCC/ARM_CM4F/portmacro.h **** 	(
 775              		.loc 2 237 2 is_stmt 0 view .LVU152
 776              	.LBE49:
 777              	.LBE48:
 321:Middlewares/Third_Party/FreeRTOS/Source/portable/GCC/ARM_CM4F/port.c **** 	configASSERT( portCPUID != portCORTEX_M7_r0p0_ID );
 778              		.loc 1 321 2 is_stmt 1 discriminator 2 view .LVU153
 321:Middlewares/Third_Party/FreeRTOS/Source/portable/GCC/ARM_CM4F/port.c **** 	configASSERT( portCPUID != portCORTEX_M7_r0p0_ID );
 779              		.loc 1 321 2 discriminator 2 view .LVU154
 780 0050 FEE7     		b	.L41
 781              	.L49:
 322:Middlewares/Third_Party/FreeRTOS/Source/portable/GCC/ARM_CM4F/port.c **** 
 782              		.loc 1 322 2 view .LVU155
 783              	.LBB50:
 784              	.LBI50:
 233:Middlewares/Third_Party/FreeRTOS/Source/portable/GCC/ARM_CM4F/portmacro.h **** {
 785              		.loc 2 233 30 view .LVU156
 786              	.LBB51:
 235:Middlewares/Third_Party/FreeRTOS/Source/portable/GCC/ARM_CM4F/portmacro.h **** 
 787              		.loc 2 235 1 view .LVU157
 237:Middlewares/Third_Party/FreeRTOS/Source/portable/GCC/ARM_CM4F/portmacro.h **** 	(
 788              		.loc 2 237 2 view .LVU158
 789              		.syntax unified
 790              	@ 237 "Middlewares/Third_Party/FreeRTOS/Source/portable/GCC/ARM_CM4F/portmacro.h" 1
 791 0052 4FF05003 			mov r3, #80												
 792 0056 83F31188 		msr basepri, r3											
 793 005a BFF36F8F 		isb														
 794 005e BFF34F8F 		dsb														
 795              	
 796              	@ 0 "" 2
 797              	.LVL21:
 798              		.thumb
 799              		.syntax unified
 800              	.L43:
 237:Middlewares/Third_Party/FreeRTOS/Source/portable/GCC/ARM_CM4F/portmacro.h **** 	(
 801              		.loc 2 237 2 is_stmt 0 view .LVU159
 802              	.LBE51:
 803              	.LBE50:
 322:Middlewares/Third_Party/FreeRTOS/Source/portable/GCC/ARM_CM4F/port.c **** 
 804              		.loc 1 322 2 is_stmt 1 discriminator 3 view .LVU160
ARM GAS  /var/folders/n1/76bg37b13ls08p1dhb9rhvd40000gn/T//ccS6mBld.s 			page 34


 322:Middlewares/Third_Party/FreeRTOS/Source/portable/GCC/ARM_CM4F/port.c **** 
 805              		.loc 1 322 2 discriminator 3 view .LVU161
 806 0062 FEE7     		b	.L43
 807              	.LVL22:
 808              	.L45:
 809              	.LCFI4:
 810              		.cfi_def_cfa_offset 16
 811              		.cfi_offset 14, -4
 812              	.LBB52:
 353:Middlewares/Third_Party/FreeRTOS/Source/portable/GCC/ARM_CM4F/port.c **** 			ucMaxPriorityValue <<= ( uint8_t ) 0x01;
 813              		.loc 1 353 4 view .LVU162
 353:Middlewares/Third_Party/FreeRTOS/Source/portable/GCC/ARM_CM4F/port.c **** 			ucMaxPriorityValue <<= ( uint8_t ) 0x01;
 814              		.loc 1 353 22 is_stmt 0 view .LVU163
 815 0064 1D4A     		ldr	r2, .L50+20
 816 0066 1368     		ldr	r3, [r2]
 817 0068 013B     		subs	r3, r3, #1
 818 006a 1360     		str	r3, [r2]
 354:Middlewares/Third_Party/FreeRTOS/Source/portable/GCC/ARM_CM4F/port.c **** 		}
 819              		.loc 1 354 4 is_stmt 1 view .LVU164
 354:Middlewares/Third_Party/FreeRTOS/Source/portable/GCC/ARM_CM4F/port.c **** 		}
 820              		.loc 1 354 23 is_stmt 0 view .LVU165
 821 006c 9DF80330 		ldrb	r3, [sp, #3]	@ zero_extendqisi2
 822 0070 5B00     		lsls	r3, r3, #1
 823 0072 DBB2     		uxtb	r3, r3
 824 0074 8DF80330 		strb	r3, [sp, #3]
 825              	.L44:
 351:Middlewares/Third_Party/FreeRTOS/Source/portable/GCC/ARM_CM4F/port.c **** 		{
 826              		.loc 1 351 31 view .LVU166
 827 0078 9DF80330 		ldrb	r3, [sp, #3]	@ zero_extendqisi2
 351:Middlewares/Third_Party/FreeRTOS/Source/portable/GCC/ARM_CM4F/port.c **** 		{
 828              		.loc 1 351 8 view .LVU167
 829 007c 13F0800F 		tst	r3, #128
 830 0080 F0D1     		bne	.L45
 359:Middlewares/Third_Party/FreeRTOS/Source/portable/GCC/ARM_CM4F/port.c **** 		ulMaxPRIGROUPValue &= portPRIORITY_GROUP_MASK;
 831              		.loc 1 359 3 is_stmt 1 view .LVU168
 359:Middlewares/Third_Party/FreeRTOS/Source/portable/GCC/ARM_CM4F/port.c **** 		ulMaxPRIGROUPValue &= portPRIORITY_GROUP_MASK;
 832              		.loc 1 359 22 is_stmt 0 view .LVU169
 833 0082 164A     		ldr	r2, .L50+20
 834 0084 1368     		ldr	r3, [r2]
 835 0086 1B02     		lsls	r3, r3, #8
 360:Middlewares/Third_Party/FreeRTOS/Source/portable/GCC/ARM_CM4F/port.c **** 
 836              		.loc 1 360 3 is_stmt 1 view .LVU170
 360:Middlewares/Third_Party/FreeRTOS/Source/portable/GCC/ARM_CM4F/port.c **** 
 837              		.loc 1 360 22 is_stmt 0 view .LVU171
 838 0088 03F4E063 		and	r3, r3, #1792
 839 008c 1360     		str	r3, [r2]
 364:Middlewares/Third_Party/FreeRTOS/Source/portable/GCC/ARM_CM4F/port.c **** 	}
 840              		.loc 1 364 3 is_stmt 1 view .LVU172
 364:Middlewares/Third_Party/FreeRTOS/Source/portable/GCC/ARM_CM4F/port.c **** 	}
 841              		.loc 1 364 33 is_stmt 0 view .LVU173
 842 008e 019B     		ldr	r3, [sp, #4]
 843 0090 DBB2     		uxtb	r3, r3
 844 0092 104A     		ldr	r2, .L50+12
 845 0094 1370     		strb	r3, [r2]
 846              	.LBE52:
 369:Middlewares/Third_Party/FreeRTOS/Source/portable/GCC/ARM_CM4F/port.c **** 	portNVIC_SYSPRI2_REG |= portNVIC_SYSTICK_PRI;
 847              		.loc 1 369 2 is_stmt 1 view .LVU174
ARM GAS  /var/folders/n1/76bg37b13ls08p1dhb9rhvd40000gn/T//ccS6mBld.s 			page 35


 369:Middlewares/Third_Party/FreeRTOS/Source/portable/GCC/ARM_CM4F/port.c **** 	portNVIC_SYSPRI2_REG |= portNVIC_SYSTICK_PRI;
 848              		.loc 1 369 23 is_stmt 0 view .LVU175
 849 0096 124B     		ldr	r3, .L50+24
 850 0098 1A68     		ldr	r2, [r3]
 851 009a 42F47002 		orr	r2, r2, #15728640
 852 009e 1A60     		str	r2, [r3]
 370:Middlewares/Third_Party/FreeRTOS/Source/portable/GCC/ARM_CM4F/port.c **** 
 853              		.loc 1 370 2 is_stmt 1 view .LVU176
 370:Middlewares/Third_Party/FreeRTOS/Source/portable/GCC/ARM_CM4F/port.c **** 
 854              		.loc 1 370 23 is_stmt 0 view .LVU177
 855 00a0 1A68     		ldr	r2, [r3]
 856 00a2 42F07042 		orr	r2, r2, #-268435456
 857 00a6 1A60     		str	r2, [r3]
 374:Middlewares/Third_Party/FreeRTOS/Source/portable/GCC/ARM_CM4F/port.c **** 
 858              		.loc 1 374 2 is_stmt 1 view .LVU178
 859 00a8 FFF7FEFF 		bl	vPortSetupTimerInterrupt
 860              	.LVL23:
 377:Middlewares/Third_Party/FreeRTOS/Source/portable/GCC/ARM_CM4F/port.c **** 
 861              		.loc 1 377 2 view .LVU179
 377:Middlewares/Third_Party/FreeRTOS/Source/portable/GCC/ARM_CM4F/port.c **** 
 862              		.loc 1 377 20 is_stmt 0 view .LVU180
 863 00ac 0D4B     		ldr	r3, .L50+28
 864 00ae 0022     		movs	r2, #0
 865 00b0 1A60     		str	r2, [r3]
 380:Middlewares/Third_Party/FreeRTOS/Source/portable/GCC/ARM_CM4F/port.c **** 
 866              		.loc 1 380 2 is_stmt 1 view .LVU181
 867 00b2 FFF7FEFF 		bl	vPortEnableVFP
 868              	.LVL24:
 383:Middlewares/Third_Party/FreeRTOS/Source/portable/GCC/ARM_CM4F/port.c **** 
 869              		.loc 1 383 2 view .LVU182
 383:Middlewares/Third_Party/FreeRTOS/Source/portable/GCC/ARM_CM4F/port.c **** 
 870              		.loc 1 383 17 is_stmt 0 view .LVU183
 871 00b6 0C4A     		ldr	r2, .L50+32
 872 00b8 1368     		ldr	r3, [r2]
 873 00ba 43F04043 		orr	r3, r3, #-1073741824
 874 00be 1360     		str	r3, [r2]
 386:Middlewares/Third_Party/FreeRTOS/Source/portable/GCC/ARM_CM4F/port.c **** 
 875              		.loc 1 386 2 is_stmt 1 view .LVU184
 876 00c0 FFF7FEFF 		bl	prvPortStartFirstTask
 877              	.LVL25:
 392:Middlewares/Third_Party/FreeRTOS/Source/portable/GCC/ARM_CM4F/port.c **** 
 878              		.loc 1 392 2 view .LVU185
 879 00c4 FFF7FEFF 		bl	prvTaskExitError
 880              	.LVL26:
 881              	.L51:
 882              		.align	2
 883              	.L50:
 884 00c8 00ED00E0 		.word	-536810240
 885 00cc 71C20F41 		.word	1091551857
 886 00d0 70C20F41 		.word	1091551856
 887 00d4 00E400E0 		.word	-536812544
 888 00d8 00000000 		.word	.LANCHOR1
 889 00dc 00000000 		.word	.LANCHOR2
 890 00e0 20ED00E0 		.word	-536810208
 891 00e4 00000000 		.word	.LANCHOR0
 892 00e8 34EF00E0 		.word	-536809676
 893              		.cfi_endproc
ARM GAS  /var/folders/n1/76bg37b13ls08p1dhb9rhvd40000gn/T//ccS6mBld.s 			page 36


 894              	.LFE9:
 896              		.section	.text.vPortValidateInterruptPriority,"ax",%progbits
 897              		.align	1
 898              		.global	vPortValidateInterruptPriority
 899              		.syntax unified
 900              		.thumb
 901              		.thumb_func
 902              		.fpu fpv4-sp-d16
 904              	vPortValidateInterruptPriority:
 905              	.LFB17:
 701:Middlewares/Third_Party/FreeRTOS/Source/portable/GCC/ARM_CM4F/port.c **** /*-----------------------------------------------------------*/
 702:Middlewares/Third_Party/FreeRTOS/Source/portable/GCC/ARM_CM4F/port.c **** 
 703:Middlewares/Third_Party/FreeRTOS/Source/portable/GCC/ARM_CM4F/port.c **** #if( configASSERT_DEFINED == 1 )
 704:Middlewares/Third_Party/FreeRTOS/Source/portable/GCC/ARM_CM4F/port.c **** 
 705:Middlewares/Third_Party/FreeRTOS/Source/portable/GCC/ARM_CM4F/port.c **** 	void vPortValidateInterruptPriority( void )
 706:Middlewares/Third_Party/FreeRTOS/Source/portable/GCC/ARM_CM4F/port.c **** 	{
 906              		.loc 1 706 2 view -0
 907              		.cfi_startproc
 908              		@ args = 0, pretend = 0, frame = 0
 909              		@ frame_needed = 0, uses_anonymous_args = 0
 910              		@ link register save eliminated.
 707:Middlewares/Third_Party/FreeRTOS/Source/portable/GCC/ARM_CM4F/port.c **** 	uint32_t ulCurrentInterrupt;
 911              		.loc 1 707 2 view .LVU187
 708:Middlewares/Third_Party/FreeRTOS/Source/portable/GCC/ARM_CM4F/port.c **** 	uint8_t ucCurrentPriority;
 912              		.loc 1 708 2 view .LVU188
 709:Middlewares/Third_Party/FreeRTOS/Source/portable/GCC/ARM_CM4F/port.c **** 
 710:Middlewares/Third_Party/FreeRTOS/Source/portable/GCC/ARM_CM4F/port.c **** 		/* Obtain the number of the currently executing interrupt. */
 711:Middlewares/Third_Party/FreeRTOS/Source/portable/GCC/ARM_CM4F/port.c **** 		__asm volatile( "mrs %0, ipsr" : "=r"( ulCurrentInterrupt ) );
 913              		.loc 1 711 3 view .LVU189
 914              		.syntax unified
 915              	@ 711 "Middlewares/Third_Party/FreeRTOS/Source/portable/GCC/ARM_CM4F/port.c" 1
 916 0000 EFF30583 		mrs r3, ipsr
 917              	@ 0 "" 2
 918              	.LVL27:
 712:Middlewares/Third_Party/FreeRTOS/Source/portable/GCC/ARM_CM4F/port.c **** 
 713:Middlewares/Third_Party/FreeRTOS/Source/portable/GCC/ARM_CM4F/port.c **** 		/* Is the interrupt number a user defined interrupt? */
 714:Middlewares/Third_Party/FreeRTOS/Source/portable/GCC/ARM_CM4F/port.c **** 		if( ulCurrentInterrupt >= portFIRST_USER_INTERRUPT_NUMBER )
 919              		.loc 1 714 3 view .LVU190
 920              		.loc 1 714 5 is_stmt 0 view .LVU191
 921              		.thumb
 922              		.syntax unified
 923 0004 0F2B     		cmp	r3, #15
 924 0006 0FD9     		bls	.L53
 715:Middlewares/Third_Party/FreeRTOS/Source/portable/GCC/ARM_CM4F/port.c **** 		{
 716:Middlewares/Third_Party/FreeRTOS/Source/portable/GCC/ARM_CM4F/port.c **** 			/* Look up the interrupt's priority. */
 717:Middlewares/Third_Party/FreeRTOS/Source/portable/GCC/ARM_CM4F/port.c **** 			ucCurrentPriority = pcInterruptPriorityRegisters[ ulCurrentInterrupt ];
 925              		.loc 1 717 4 is_stmt 1 view .LVU192
 926              		.loc 1 717 52 is_stmt 0 view .LVU193
 927 0008 104A     		ldr	r2, .L57
 928              		.loc 1 717 22 view .LVU194
 929 000a 9B5C     		ldrb	r3, [r3, r2]	@ zero_extendqisi2
 930              	.LVL28:
 931              		.loc 1 717 22 view .LVU195
 932 000c DBB2     		uxtb	r3, r3
 933              	.LVL29:
 718:Middlewares/Third_Party/FreeRTOS/Source/portable/GCC/ARM_CM4F/port.c **** 
 719:Middlewares/Third_Party/FreeRTOS/Source/portable/GCC/ARM_CM4F/port.c **** 			/* The following assertion will fail if a service routine (ISR) for
ARM GAS  /var/folders/n1/76bg37b13ls08p1dhb9rhvd40000gn/T//ccS6mBld.s 			page 37


 720:Middlewares/Third_Party/FreeRTOS/Source/portable/GCC/ARM_CM4F/port.c **** 			an interrupt that has been assigned a priority above
 721:Middlewares/Third_Party/FreeRTOS/Source/portable/GCC/ARM_CM4F/port.c **** 			configMAX_SYSCALL_INTERRUPT_PRIORITY calls an ISR safe FreeRTOS API
 722:Middlewares/Third_Party/FreeRTOS/Source/portable/GCC/ARM_CM4F/port.c **** 			function.  ISR safe FreeRTOS API functions must *only* be called
 723:Middlewares/Third_Party/FreeRTOS/Source/portable/GCC/ARM_CM4F/port.c **** 			from interrupts that have been assigned a priority at or below
 724:Middlewares/Third_Party/FreeRTOS/Source/portable/GCC/ARM_CM4F/port.c **** 			configMAX_SYSCALL_INTERRUPT_PRIORITY.
 725:Middlewares/Third_Party/FreeRTOS/Source/portable/GCC/ARM_CM4F/port.c **** 
 726:Middlewares/Third_Party/FreeRTOS/Source/portable/GCC/ARM_CM4F/port.c **** 			Numerically low interrupt priority numbers represent logically high
 727:Middlewares/Third_Party/FreeRTOS/Source/portable/GCC/ARM_CM4F/port.c **** 			interrupt priorities, therefore the priority of the interrupt must
 728:Middlewares/Third_Party/FreeRTOS/Source/portable/GCC/ARM_CM4F/port.c **** 			be set to a value equal to or numerically *higher* than
 729:Middlewares/Third_Party/FreeRTOS/Source/portable/GCC/ARM_CM4F/port.c **** 			configMAX_SYSCALL_INTERRUPT_PRIORITY.
 730:Middlewares/Third_Party/FreeRTOS/Source/portable/GCC/ARM_CM4F/port.c **** 
 731:Middlewares/Third_Party/FreeRTOS/Source/portable/GCC/ARM_CM4F/port.c **** 			Interrupts that	use the FreeRTOS API must not be left at their
 732:Middlewares/Third_Party/FreeRTOS/Source/portable/GCC/ARM_CM4F/port.c **** 			default priority of	zero as that is the highest possible priority,
 733:Middlewares/Third_Party/FreeRTOS/Source/portable/GCC/ARM_CM4F/port.c **** 			which is guaranteed to be above configMAX_SYSCALL_INTERRUPT_PRIORITY,
 734:Middlewares/Third_Party/FreeRTOS/Source/portable/GCC/ARM_CM4F/port.c **** 			and	therefore also guaranteed to be invalid.
 735:Middlewares/Third_Party/FreeRTOS/Source/portable/GCC/ARM_CM4F/port.c **** 
 736:Middlewares/Third_Party/FreeRTOS/Source/portable/GCC/ARM_CM4F/port.c **** 			FreeRTOS maintains separate thread and ISR API functions to ensure
 737:Middlewares/Third_Party/FreeRTOS/Source/portable/GCC/ARM_CM4F/port.c **** 			interrupt entry is as fast and simple as possible.
 738:Middlewares/Third_Party/FreeRTOS/Source/portable/GCC/ARM_CM4F/port.c **** 
 739:Middlewares/Third_Party/FreeRTOS/Source/portable/GCC/ARM_CM4F/port.c **** 			The following links provide detailed information:
 740:Middlewares/Third_Party/FreeRTOS/Source/portable/GCC/ARM_CM4F/port.c **** 			http://www.freertos.org/RTOS-Cortex-M3-M4.html
 741:Middlewares/Third_Party/FreeRTOS/Source/portable/GCC/ARM_CM4F/port.c **** 			http://www.freertos.org/FAQHelp.html */
 742:Middlewares/Third_Party/FreeRTOS/Source/portable/GCC/ARM_CM4F/port.c **** 			configASSERT( ucCurrentPriority >= ucMaxSysCallPriority );
 934              		.loc 1 742 4 is_stmt 1 view .LVU196
 935 000e 104A     		ldr	r2, .L57+4
 936 0010 1278     		ldrb	r2, [r2]	@ zero_extendqisi2
 937 0012 9A42     		cmp	r2, r3
 938 0014 08D9     		bls	.L53
 939              		.loc 1 742 4 view .LVU197
 940              	.LBB53:
 941              	.LBI53:
 233:Middlewares/Third_Party/FreeRTOS/Source/portable/GCC/ARM_CM4F/portmacro.h **** {
 942              		.loc 2 233 30 view .LVU198
 943              	.LBB54:
 235:Middlewares/Third_Party/FreeRTOS/Source/portable/GCC/ARM_CM4F/portmacro.h **** 
 944              		.loc 2 235 1 view .LVU199
 237:Middlewares/Third_Party/FreeRTOS/Source/portable/GCC/ARM_CM4F/portmacro.h **** 	(
 945              		.loc 2 237 2 view .LVU200
 946              		.syntax unified
 947              	@ 237 "Middlewares/Third_Party/FreeRTOS/Source/portable/GCC/ARM_CM4F/portmacro.h" 1
 948 0016 4FF05003 			mov r3, #80												
 949 001a 83F31188 		msr basepri, r3											
 950 001e BFF36F8F 		isb														
 951 0022 BFF34F8F 		dsb														
 952              	
 953              	@ 0 "" 2
 954              	.LVL30:
 955              		.thumb
 956              		.syntax unified
 957              	.L54:
 237:Middlewares/Third_Party/FreeRTOS/Source/portable/GCC/ARM_CM4F/portmacro.h **** 	(
 958              		.loc 2 237 2 is_stmt 0 view .LVU201
 959              	.LBE54:
 960              	.LBE53:
 961              		.loc 1 742 4 is_stmt 1 discriminator 1 view .LVU202
 962              		.loc 1 742 4 discriminator 1 view .LVU203
 963 0026 FEE7     		b	.L54
ARM GAS  /var/folders/n1/76bg37b13ls08p1dhb9rhvd40000gn/T//ccS6mBld.s 			page 38


 964              	.L53:
 965              		.loc 1 742 61 discriminator 2 view .LVU204
 743:Middlewares/Third_Party/FreeRTOS/Source/portable/GCC/ARM_CM4F/port.c **** 		}
 744:Middlewares/Third_Party/FreeRTOS/Source/portable/GCC/ARM_CM4F/port.c **** 
 745:Middlewares/Third_Party/FreeRTOS/Source/portable/GCC/ARM_CM4F/port.c **** 		/* Priority grouping:  The interrupt controller (NVIC) allows the bits
 746:Middlewares/Third_Party/FreeRTOS/Source/portable/GCC/ARM_CM4F/port.c **** 		that define each interrupt's priority to be split between bits that
 747:Middlewares/Third_Party/FreeRTOS/Source/portable/GCC/ARM_CM4F/port.c **** 		define the interrupt's pre-emption priority bits and bits that define
 748:Middlewares/Third_Party/FreeRTOS/Source/portable/GCC/ARM_CM4F/port.c **** 		the interrupt's sub-priority.  For simplicity all bits must be defined
 749:Middlewares/Third_Party/FreeRTOS/Source/portable/GCC/ARM_CM4F/port.c **** 		to be pre-emption priority bits.  The following assertion will fail if
 750:Middlewares/Third_Party/FreeRTOS/Source/portable/GCC/ARM_CM4F/port.c **** 		this is not the case (if some bits represent a sub-priority).
 751:Middlewares/Third_Party/FreeRTOS/Source/portable/GCC/ARM_CM4F/port.c **** 
 752:Middlewares/Third_Party/FreeRTOS/Source/portable/GCC/ARM_CM4F/port.c **** 		If the application only uses CMSIS libraries for interrupt
 753:Middlewares/Third_Party/FreeRTOS/Source/portable/GCC/ARM_CM4F/port.c **** 		configuration then the correct setting can be achieved on all Cortex-M
 754:Middlewares/Third_Party/FreeRTOS/Source/portable/GCC/ARM_CM4F/port.c **** 		devices by calling NVIC_SetPriorityGrouping( 0 ); before starting the
 755:Middlewares/Third_Party/FreeRTOS/Source/portable/GCC/ARM_CM4F/port.c **** 		scheduler.  Note however that some vendor specific peripheral libraries
 756:Middlewares/Third_Party/FreeRTOS/Source/portable/GCC/ARM_CM4F/port.c **** 		assume a non-zero priority group setting, in which cases using a value
 757:Middlewares/Third_Party/FreeRTOS/Source/portable/GCC/ARM_CM4F/port.c **** 		of zero will result in unpredicable behaviour. */
 758:Middlewares/Third_Party/FreeRTOS/Source/portable/GCC/ARM_CM4F/port.c **** 		configASSERT( ( portAIRCR_REG & portPRIORITY_GROUP_MASK ) <= ulMaxPRIGROUPValue );
 966              		.loc 1 758 3 discriminator 2 view .LVU205
 967 0028 0A4B     		ldr	r3, .L57+8
 968 002a 1B68     		ldr	r3, [r3]
 969 002c 03F4E063 		and	r3, r3, #1792
 970 0030 094A     		ldr	r2, .L57+12
 971 0032 1268     		ldr	r2, [r2]
 972 0034 9342     		cmp	r3, r2
 973 0036 08D9     		bls	.L52
 974              		.loc 1 758 3 view .LVU206
 975              	.LBB55:
 976              	.LBI55:
 233:Middlewares/Third_Party/FreeRTOS/Source/portable/GCC/ARM_CM4F/portmacro.h **** {
 977              		.loc 2 233 30 view .LVU207
 978              	.LBB56:
 235:Middlewares/Third_Party/FreeRTOS/Source/portable/GCC/ARM_CM4F/portmacro.h **** 
 979              		.loc 2 235 1 view .LVU208
 237:Middlewares/Third_Party/FreeRTOS/Source/portable/GCC/ARM_CM4F/portmacro.h **** 	(
 980              		.loc 2 237 2 view .LVU209
 981              		.syntax unified
 982              	@ 237 "Middlewares/Third_Party/FreeRTOS/Source/portable/GCC/ARM_CM4F/portmacro.h" 1
 983 0038 4FF05003 			mov r3, #80												
 984 003c 83F31188 		msr basepri, r3											
 985 0040 BFF36F8F 		isb														
 986 0044 BFF34F8F 		dsb														
 987              	
 988              	@ 0 "" 2
 989              	.LVL31:
 990              		.thumb
 991              		.syntax unified
 992              	.L56:
 237:Middlewares/Third_Party/FreeRTOS/Source/portable/GCC/ARM_CM4F/portmacro.h **** 	(
 993              		.loc 2 237 2 is_stmt 0 view .LVU210
 994              	.LBE56:
 995              	.LBE55:
 996              		.loc 1 758 3 is_stmt 1 discriminator 2 view .LVU211
 997              		.loc 1 758 3 discriminator 2 view .LVU212
 998 0048 FEE7     		b	.L56
 999              	.L52:
 759:Middlewares/Third_Party/FreeRTOS/Source/portable/GCC/ARM_CM4F/port.c **** 	}
ARM GAS  /var/folders/n1/76bg37b13ls08p1dhb9rhvd40000gn/T//ccS6mBld.s 			page 39


 1000              		.loc 1 759 2 is_stmt 0 view .LVU213
 1001 004a 7047     		bx	lr
 1002              	.L58:
 1003              		.align	2
 1004              	.L57:
 1005 004c F0E300E0 		.word	-536812560
 1006 0050 00000000 		.word	.LANCHOR1
 1007 0054 0CED00E0 		.word	-536810228
 1008 0058 00000000 		.word	.LANCHOR2
 1009              		.cfi_endproc
 1010              	.LFE17:
 1012              		.section	.bss.ucMaxSysCallPriority,"aw",%nobits
 1013              		.set	.LANCHOR1,. + 0
 1016              	ucMaxSysCallPriority:
 1017 0000 00       		.space	1
 1018              		.section	.bss.ulMaxPRIGROUPValue,"aw",%nobits
 1019              		.align	2
 1020              		.set	.LANCHOR2,. + 0
 1023              	ulMaxPRIGROUPValue:
 1024 0000 00000000 		.space	4
 1025              		.section	.data.uxCriticalNesting,"aw"
 1026              		.align	2
 1027              		.set	.LANCHOR0,. + 0
 1030              	uxCriticalNesting:
 1031 0000 AAAAAAAA 		.word	-1431655766
 1032              		.text
 1033              	.Letext0:
 1034              		.file 3 "/Users/drb/Downloads/gcc-arm-none-eabi-8-2018-q4-major/arm-none-eabi/include/machine/_def
 1035              		.file 4 "/Users/drb/Downloads/gcc-arm-none-eabi-8-2018-q4-major/arm-none-eabi/include/sys/_stdint.
 1036              		.file 5 "Middlewares/Third_Party/FreeRTOS/Source/include/projdefs.h"
 1037              		.file 6 "Core/Inc/FreeRTOSConfig.h"
 1038              		.file 7 "Middlewares/Third_Party/FreeRTOS/Source/include/task.h"
ARM GAS  /var/folders/n1/76bg37b13ls08p1dhb9rhvd40000gn/T//ccS6mBld.s 			page 40


DEFINED SYMBOLS
                            *ABS*:0000000000000000 port.c
/var/folders/n1/76bg37b13ls08p1dhb9rhvd40000gn/T//ccS6mBld.s:18     .text.prvTaskExitError:0000000000000000 $t
/var/folders/n1/76bg37b13ls08p1dhb9rhvd40000gn/T//ccS6mBld.s:25     .text.prvTaskExitError:0000000000000000 prvTaskExitError
/var/folders/n1/76bg37b13ls08p1dhb9rhvd40000gn/T//ccS6mBld.s:95     .text.prvTaskExitError:0000000000000030 $d
/var/folders/n1/76bg37b13ls08p1dhb9rhvd40000gn/T//ccS6mBld.s:100    .text.prvPortStartFirstTask:0000000000000000 $t
/var/folders/n1/76bg37b13ls08p1dhb9rhvd40000gn/T//ccS6mBld.s:106    .text.prvPortStartFirstTask:0000000000000000 prvPortStartFirstTask
/var/folders/n1/76bg37b13ls08p1dhb9rhvd40000gn/T//ccS6mBld.s:135    .text.vPortEnableVFP:0000000000000000 $t
/var/folders/n1/76bg37b13ls08p1dhb9rhvd40000gn/T//ccS6mBld.s:141    .text.vPortEnableVFP:0000000000000000 vPortEnableVFP
/var/folders/n1/76bg37b13ls08p1dhb9rhvd40000gn/T//ccS6mBld.s:165    .text.pxPortInitialiseStack:0000000000000000 $t
/var/folders/n1/76bg37b13ls08p1dhb9rhvd40000gn/T//ccS6mBld.s:172    .text.pxPortInitialiseStack:0000000000000000 pxPortInitialiseStack
/var/folders/n1/76bg37b13ls08p1dhb9rhvd40000gn/T//ccS6mBld.s:222    .text.pxPortInitialiseStack:0000000000000028 $d
/var/folders/n1/76bg37b13ls08p1dhb9rhvd40000gn/T//ccS6mBld.s:227    .text.SVC_Handler:0000000000000000 $t
/var/folders/n1/76bg37b13ls08p1dhb9rhvd40000gn/T//ccS6mBld.s:234    .text.SVC_Handler:0000000000000000 SVC_Handler
/var/folders/n1/76bg37b13ls08p1dhb9rhvd40000gn/T//ccS6mBld.s:255    .text.SVC_Handler:0000000000000020 pxCurrentTCBConst2
/var/folders/n1/76bg37b13ls08p1dhb9rhvd40000gn/T//ccS6mBld.s:255    .text.SVC_Handler:0000000000000020 $d
/var/folders/n1/76bg37b13ls08p1dhb9rhvd40000gn/T//ccS6mBld.s:265    .text.vPortEndScheduler:0000000000000000 $t
/var/folders/n1/76bg37b13ls08p1dhb9rhvd40000gn/T//ccS6mBld.s:272    .text.vPortEndScheduler:0000000000000000 vPortEndScheduler
/var/folders/n1/76bg37b13ls08p1dhb9rhvd40000gn/T//ccS6mBld.s:315    .text.vPortEndScheduler:0000000000000020 $d
/var/folders/n1/76bg37b13ls08p1dhb9rhvd40000gn/T//ccS6mBld.s:320    .text.vPortEnterCritical:0000000000000000 $t
/var/folders/n1/76bg37b13ls08p1dhb9rhvd40000gn/T//ccS6mBld.s:327    .text.vPortEnterCritical:0000000000000000 vPortEnterCritical
/var/folders/n1/76bg37b13ls08p1dhb9rhvd40000gn/T//ccS6mBld.s:400    .text.vPortEnterCritical:000000000000003c $d
/var/folders/n1/76bg37b13ls08p1dhb9rhvd40000gn/T//ccS6mBld.s:406    .text.vPortExitCritical:0000000000000000 $t
/var/folders/n1/76bg37b13ls08p1dhb9rhvd40000gn/T//ccS6mBld.s:413    .text.vPortExitCritical:0000000000000000 vPortExitCritical
/var/folders/n1/76bg37b13ls08p1dhb9rhvd40000gn/T//ccS6mBld.s:482    .text.vPortExitCritical:0000000000000028 $d
/var/folders/n1/76bg37b13ls08p1dhb9rhvd40000gn/T//ccS6mBld.s:487    .text.PendSV_Handler:0000000000000000 $t
/var/folders/n1/76bg37b13ls08p1dhb9rhvd40000gn/T//ccS6mBld.s:494    .text.PendSV_Handler:0000000000000000 PendSV_Handler
/var/folders/n1/76bg37b13ls08p1dhb9rhvd40000gn/T//ccS6mBld.s:544    .text.PendSV_Handler:0000000000000060 pxCurrentTCBConst
/var/folders/n1/76bg37b13ls08p1dhb9rhvd40000gn/T//ccS6mBld.s:544    .text.PendSV_Handler:0000000000000060 $d
/var/folders/n1/76bg37b13ls08p1dhb9rhvd40000gn/T//ccS6mBld.s:554    .text.xPortSysTickHandler:0000000000000000 $t
/var/folders/n1/76bg37b13ls08p1dhb9rhvd40000gn/T//ccS6mBld.s:561    .text.xPortSysTickHandler:0000000000000000 xPortSysTickHandler
/var/folders/n1/76bg37b13ls08p1dhb9rhvd40000gn/T//ccS6mBld.s:626    .text.xPortSysTickHandler:0000000000000028 $d
/var/folders/n1/76bg37b13ls08p1dhb9rhvd40000gn/T//ccS6mBld.s:631    .text.vPortSetupTimerInterrupt:0000000000000000 $t
/var/folders/n1/76bg37b13ls08p1dhb9rhvd40000gn/T//ccS6mBld.s:638    .text.vPortSetupTimerInterrupt:0000000000000000 vPortSetupTimerInterrupt
/var/folders/n1/76bg37b13ls08p1dhb9rhvd40000gn/T//ccS6mBld.s:667    .text.vPortSetupTimerInterrupt:000000000000001c $d
/var/folders/n1/76bg37b13ls08p1dhb9rhvd40000gn/T//ccS6mBld.s:675    .text.xPortStartScheduler:0000000000000000 $t
/var/folders/n1/76bg37b13ls08p1dhb9rhvd40000gn/T//ccS6mBld.s:682    .text.xPortStartScheduler:0000000000000000 xPortStartScheduler
/var/folders/n1/76bg37b13ls08p1dhb9rhvd40000gn/T//ccS6mBld.s:884    .text.xPortStartScheduler:00000000000000c8 $d
/var/folders/n1/76bg37b13ls08p1dhb9rhvd40000gn/T//ccS6mBld.s:897    .text.vPortValidateInterruptPriority:0000000000000000 $t
/var/folders/n1/76bg37b13ls08p1dhb9rhvd40000gn/T//ccS6mBld.s:904    .text.vPortValidateInterruptPriority:0000000000000000 vPortValidateInterruptPriority
/var/folders/n1/76bg37b13ls08p1dhb9rhvd40000gn/T//ccS6mBld.s:1005   .text.vPortValidateInterruptPriority:000000000000004c $d
/var/folders/n1/76bg37b13ls08p1dhb9rhvd40000gn/T//ccS6mBld.s:1016   .bss.ucMaxSysCallPriority:0000000000000000 ucMaxSysCallPriority
/var/folders/n1/76bg37b13ls08p1dhb9rhvd40000gn/T//ccS6mBld.s:1017   .bss.ucMaxSysCallPriority:0000000000000000 $d
/var/folders/n1/76bg37b13ls08p1dhb9rhvd40000gn/T//ccS6mBld.s:1019   .bss.ulMaxPRIGROUPValue:0000000000000000 $d
/var/folders/n1/76bg37b13ls08p1dhb9rhvd40000gn/T//ccS6mBld.s:1023   .bss.ulMaxPRIGROUPValue:0000000000000000 ulMaxPRIGROUPValue
/var/folders/n1/76bg37b13ls08p1dhb9rhvd40000gn/T//ccS6mBld.s:1026   .data.uxCriticalNesting:0000000000000000 $d
/var/folders/n1/76bg37b13ls08p1dhb9rhvd40000gn/T//ccS6mBld.s:1030   .data.uxCriticalNesting:0000000000000000 uxCriticalNesting
/var/folders/n1/76bg37b13ls08p1dhb9rhvd40000gn/T//ccS6mBld.s:164    .text.vPortEnableVFP:000000000000000e $d
/var/folders/n1/76bg37b13ls08p1dhb9rhvd40000gn/T//ccS6mBld.s:2714   .text.vPortEnableVFP:0000000000000010 $d
/var/folders/n1/76bg37b13ls08p1dhb9rhvd40000gn/T//ccS6mBld.s:134    .text.prvPortStartFirstTask:000000000000001a $d
/var/folders/n1/76bg37b13ls08p1dhb9rhvd40000gn/T//ccS6mBld.s:2714   .text.prvPortStartFirstTask:000000000000001c $d

UNDEFINED SYMBOLS
pxCurrentTCB
vTaskSwitchContext
xTaskIncrementTick
SystemCoreClock
ARM GAS  /var/folders/n1/76bg37b13ls08p1dhb9rhvd40000gn/T//ccS6mBld.s 			page 41


